

Microchip MPLAB XC8 Assembler V2.41 build 20230208172133 
                                                                                               Thu Jul 06 19:05:16 2023

Microchip MPLAB XC8 C Compiler v2.41 (Free license) build 20230208172133 Og1 
     1                           	processor	18F4620
     2                           	fnconf	rparam,??,?,0
     3                           	pagewidth 120
     4                           	opt	flic
     5                           	psect	idataCOMRAM,global,class=CODE,delta=1,noexec
     6                           	psect	idataBANK0,global,class=CODE,delta=1,noexec
     7                           	psect	smallconst,global,reloc=2,class=SMALLCONST,delta=1,noexec
     8                           	psect	cinit,global,reloc=2,class=CODE,delta=1
     9                           	psect	bssCOMRAM,global,class=COMRAM,space=1,delta=1,lowdata,noexec
    10                           	psect	dataCOMRAM,global,class=COMRAM,space=1,delta=1,lowdata,noexec
    11                           	psect	bssBANK0,global,class=BANK0,space=1,delta=1,lowdata,noexec
    12                           	psect	dataBANK0,global,class=BANK0,space=1,delta=1,lowdata,noexec
    13                           	psect	cstackBANK0,global,class=BANK0,space=1,delta=1,lowdata,noexec
    14                           	psect	cstackCOMRAM,global,class=COMRAM,space=1,delta=1,lowdata,noexec
    15                           	psect	text0,global,reloc=2,class=CODE,delta=1
    16                           	psect	text1,global,reloc=2,class=CODE,delta=1
    17                           	psect	text2,global,reloc=2,class=CODE,delta=1
    18                           	psect	text3,global,reloc=2,class=CODE,delta=1
    19                           	psect	text4,global,reloc=2,class=CODE,delta=1
    20                           	psect	text5,global,reloc=2,class=CODE,delta=1
    21                           	psect	text6,global,reloc=2,class=CODE,delta=1
    22                           	psect	text7,global,reloc=2,class=CODE,delta=1
    23                           	psect	intcode,global,reloc=2,class=CODE,delta=1
    24                           	psect	intcode_body,global,reloc=2,class=CODE,delta=1
    25                           	psect	text9,global,reloc=2,class=CODE,delta=1
    26                           	psect	text10,global,reloc=2,class=CODE,delta=1
    27                           	psect	text11,global,reloc=2,class=CODE,delta=1
    28                           	psect	text12,global,reloc=2,class=CODE,delta=1
    29                           	psect	text13,global,reloc=2,class=CODE,delta=1
    30                           	psect	text14,global,reloc=2,class=CODE,delta=1
    31                           	psect	text15,global,reloc=2,class=CODE,delta=1
    32                           	psect	text16,global,reloc=2,class=CODE,delta=1
    33                           	psect	text17,global,reloc=2,class=CODE,delta=1
    34                           	psect	text18,global,reloc=2,class=CODE,delta=1
    35                           	psect	text19,global,reloc=2,class=CODE,delta=1
    36                           	psect	text20,global,reloc=2,class=CODE,delta=1
    37                           	psect	intsave_regs,global,class=BIGRAM,space=1,delta=1,noexec
    38                           	psect	text21,global,reloc=2,class=CODE,delta=1
    39                           	psect	rparam,global,class=COMRAM,space=1,delta=1,noexec
    40                           	psect	temp,global,ovrld,common,class=COMRAM,space=1,delta=1
    41                           	psect	idloc,global,abs,ovrld,class=IDLOC,space=5,delta=1,noexec
    42                           	psect	config,global,abs,ovrld,class=CONFIG,space=4,delta=1,noexec
    43   000000                     
    44                           ; Version 2.40
    45                           ; Generated 17/11/2021 GMT
    46                           ; 
    47                           ; Copyright © 2021, Microchip Technology Inc. and its subsidiaries ("Microchip")
    48                           ; All rights reserved.
    49                           ; 
    50                           ; This software is developed by Microchip Technology Inc. and its subsidiaries ("Microch
      +                          ip").
    51                           ; 
    52                           ; Redistribution and use in source and binary forms, with or without modification, are
    53                           ; permitted provided that the following conditions are met:
    54                           ; 
    55                           ;     1. Redistributions of source code must retain the above copyright notice, this lis
      +                          t of
    56                           ;        conditions and the following disclaimer.
    57                           ; 
    58                           ;     2. Redistributions in binary form must reproduce the above copyright notice, this 
      +                          list
    59                           ;        of conditions and the following disclaimer in the documentation and/or other
    60                           ;        materials provided with the distribution. Publication is not required when
    61                           ;        this file is used in an embedded application.
    62                           ; 
    63                           ;     3. Microchip's name may not be used to endorse or promote products derived from th
      +                          is
    64                           ;        software without specific prior written permission.
    65                           ; 
    66                           ; THIS SOFTWARE IS PROVIDED BY MICROCHIP "AS IS" AND ANY EXPRESS OR IMPLIED WARRANTIES,
    67                           ; INCLUDING, BUT NOT LIMITED TO, THE IMPLIED WARRANTIES OF MERCHANTABILITY AND FITNESS F
      +                          OR
    68                           ; PURPOSE ARE DISCLAIMED.  IN NO EVENT SHALL MICROCHIP BE LIABLE FOR ANY DIRECT, INDIREC
      +                          T,
    69                           ; INCIDENTAL, SPECIAL, EXEMPLARY, OR CONSEQUENTIAL DAMAGES (INCLUDING BUT NOT LIMITED TO
    70                           ; PROCUREMENT OF SUBSTITUTE GOODS OR SERVICES; LOSS OF USE, DATA OR PROFITS; OR BUSINESS
    71                           ; INTERRUPTION) HOWSOEVER CAUSED AND ON ANY THEORY OF LIABILITY, WHETHER IN CONTRACT, ST
      +                          RICT
    72                           ; LIABILITY, OR TORT (INCLUDING NEGLIGENCE OR OTHERWISE) ARISING IN ANY WAY OUT OF THE U
      +                          SE OF
    73                           ; THIS SOFTWARE, EVEN IF ADVISED OF THE POSSIBILITY OF SUCH DAMAGE.
    74                           ; 
    75                           ; 
    76                           ; Code-generator required, PIC18F4620 Definitions
    77                           ; 
    78                           ; SFR Addresses
    79   000000                     
    80                           	psect	idataCOMRAM
    81   00199E                     __pidataCOMRAM:
    82                           	callstack 0
    83                           
    84                           ;initializer for _Tris_Regs
    85   00199E  92                 	db	146
    86   00199F  0F                 	db	15
    87   0019A0  93                 	db	147
    88   0019A1  0F                 	db	15
    89   0019A2  94                 	db	148
    90   0019A3  0F                 	db	15
    91   0019A4  95                 	db	149
    92   0019A5  0F                 	db	15
    93   0019A6  96                 	db	150
    94   0019A7  0F                 	db	15
    95                           
    96                           ;initializer for _Lat_Regs
    97   0019A8  89                 	db	137
    98   0019A9  0F                 	db	15
    99   0019AA  8A                 	db	138
   100   0019AB  0F                 	db	15
   101   0019AC  8B                 	db	139
   102   0019AD  0F                 	db	15
   103   0019AE  8C                 	db	140
   104   0019AF  0F                 	db	15
   105   0019B0  8D                 	db	141
   106   0019B1  0F                 	db	15
   107                           
   108                           ;initializer for _Port_Regs
   109   0019B2  80                 	db	128
   110   0019B3  0F                 	db	15
   111   0019B4  81                 	db	129
   112   0019B5  0F                 	db	15
   113   0019B6  82                 	db	130
   114   0019B7  0F                 	db	15
   115   0019B8  83                 	db	131
   116   0019B9  0F                 	db	15
   117   0019BA  84                 	db	132
   118   0019BB  0F                 	db	15
   119                           
   120                           ;initializer for _timer0_module
   121   0019BC  40                 	db	low _timer0
   122   0019BD  1A                 	db	high _timer0
   123   0019BE  00                 	db	0
   124   0019BF  02                 	db	2
   125   0019C0  0BDC               	dw	3036
   126   0019C2  02                 	db	2
   127                           
   128                           ;initializer for _flage_7
   129   0019C3  01                 	db	1
   130                           
   131                           ;initializer for _flage_6
   132   0019C4  01                 	db	1
   133                           
   134                           ;initializer for _flage_5
   135   0019C5  01                 	db	1
   136                           
   137                           ;initializer for _flage_4
   138   0019C6  01                 	db	1
   139                           
   140                           ;initializer for _led1
   141   0019C7  02                 	db	2
   142                           
   143                           	psect	idataBANK0
   144   001A30                     __pidataBANK0:
   145                           	callstack 0
   146                           
   147                           ;initializer for _KEYPAD_SHAPE
   148   001A30  37                 	db	55
   149   001A31  38                 	db	56
   150   001A32  39                 	db	57
   151   001A33  2F                 	db	47
   152   001A34  34                 	db	52
   153   001A35  35                 	db	53
   154   001A36  36                 	db	54
   155   001A37  2A                 	db	42
   156   001A38  31                 	db	49
   157   001A39  32                 	db	50
   158   001A3A  33                 	db	51
   159   001A3B  2D                 	db	45
   160   001A3C  23                 	db	35
   161   001A3D  30                 	db	48
   162   001A3E  3D                 	db	61
   163   001A3F  2B                 	db	43
   164   000000                     _INTCON2bits	set	4081
   165   000000                     _EECON2	set	4007
   166   000000                     _ADCON1bits	set	4033
   167   000000                     _ADRESL	set	4035
   168   000000                     _ADRESH	set	4036
   169   000000                     _INTCONbits	set	4082
   170   000000                     _TRISD	set	3989
   171   000000                     _TRISC	set	3988
   172   000000                     _TRISB	set	3987
   173   000000                     _TRISE	set	3990
   174   000000                     _PORTBbits	set	3969
   175   000000                     _PIE1bits	set	3997
   176   000000                     _ADCON2bits	set	4032
   177   000000                     _ADCON0bits	set	4034
   178   000000                     _LATA	set	3977
   179   000000                     _PORTE	set	3972
   180   000000                     _PORTD	set	3971
   181   000000                     _PORTC	set	3970
   182   000000                     _PORTB	set	3969
   183   000000                     _PORTA	set	3968
   184   000000                     _TRISA	set	3986
   185   000000                     _EECON1bits	set	4006
   186   000000                     _EEDATA	set	4008
   187   000000                     _EEADR	set	4009
   188   000000                     _EEADRH	set	4010
   189   000000                     _PIR1bits	set	3998
   190   000000                     _T0CONbits	set	4053
   191   000000                     _INTCON3bits	set	4080
   192   000000                     _LATE	set	3981
   193   000000                     _LATD	set	3980
   194   000000                     _LATC	set	3979
   195   000000                     _LATB	set	3978
   196   000000                     _TMR0H	set	4055
   197   000000                     _TMR0L	set	4054
   198                           
   199                           	psect	smallconst
   200   001000                     __psmallconst:
   201                           	callstack 0
   202   001000  00                 	db	0
   203   001001                     STR_1:
   204   001001  25                 	db	37
   205   001002  75                 	db	117	;'u'
   206   001003  00                 	db	0
   207   001004  00                 	db	0	; dummy byte at the end
   208   000000                     
   209                           ; #config settings
   210                           
   211                           	psect	cinit
   212   00187E                     __pcinit:
   213                           	callstack 0
   214   00187E                     start_initialization:
   215                           	callstack 0
   216   00187E                     __initialization:
   217                           	callstack 0
   218                           
   219                           ; Initialize objects allocated to BANK0 (16 bytes)
   220                           ; load TBLPTR registers with __pidataBANK0
   221   00187E  0E30               	movlw	low __pidataBANK0
   222   001880  6EF6               	movwf	tblptrl,c
   223   001882  0E1A               	movlw	high __pidataBANK0
   224   001884  6EF7               	movwf	tblptrh,c
   225   001886  0E00               	movlw	low (__pidataBANK0 shr (0+16))
   226   001888  6EF8               	movwf	tblptru,c
   227   00188A  EE00  F080         	lfsr	0,__pdataBANK0
   228   00188E  EE10 F010          	lfsr	1,16
   229   001892                     copy_data0:
   230   001892  0009               	tblrd		*+
   231   001894  CFF5 FFEE          	movff	tablat,postinc0
   232   001898  50E5               	movf	postdec1,w,c
   233   00189A  50E1               	movf	fsr1l,w,c
   234   00189C  E1FA               	bnz	copy_data0
   235                           
   236                           ; Initialize objects allocated to COMRAM (42 bytes)
   237                           ; load TBLPTR registers with __pidataCOMRAM
   238   00189E  0E9E               	movlw	low __pidataCOMRAM
   239   0018A0  6EF6               	movwf	tblptrl,c
   240   0018A2  0E19               	movlw	high __pidataCOMRAM
   241   0018A4  6EF7               	movwf	tblptrh,c
   242   0018A6  0E00               	movlw	low (__pidataCOMRAM shr (0+16))
   243   0018A8  6EF8               	movwf	tblptru,c
   244   0018AA  EE00  F02F         	lfsr	0,__pdataCOMRAM
   245   0018AE  EE10 F02A          	lfsr	1,42
   246   0018B2                     copy_data1:
   247   0018B2  0009               	tblrd		*+
   248   0018B4  CFF5 FFEE          	movff	tablat,postinc0
   249   0018B8  50E5               	movf	postdec1,w,c
   250   0018BA  50E1               	movf	fsr1l,w,c
   251   0018BC  E1FA               	bnz	copy_data1
   252                           
   253                           ; Clear objects allocated to BANK0 (11 bytes)
   254   0018BE  EE00  F09D         	lfsr	0,__pbssBANK0
   255   0018C2  0E0B               	movlw	11
   256   0018C4                     clear_0:
   257   0018C4  6AEE               	clrf	postinc0,c
   258   0018C6  06E8               	decf	wreg,f,c
   259   0018C8  E1FD               	bnz	clear_0
   260                           
   261                           ; Clear objects allocated to COMRAM (46 bytes)
   262   0018CA  EE00  F001         	lfsr	0,__pbssCOMRAM
   263   0018CE  0E2E               	movlw	46
   264   0018D0                     clear_1:
   265   0018D0  6AEE               	clrf	postinc0,c
   266   0018D2  06E8               	decf	wreg,f,c
   267   0018D4  E1FD               	bnz	clear_1
   268   0018D6                     end_of_initialization:
   269                           	callstack 0
   270   0018D6                     __end_of__initialization:
   271                           	callstack 0
   272   0018D6  906E               	bcf	int$flags,0,c	;clear compiler interrupt flag (level 1)
   273   0018D8  926E               	bcf	int$flags,1,c	;clear compiler interrupt flag (level 2)
   274   0018DA  0100               	movlb	0
   275   0018DC  EF70  F00C         	goto	_main	;jump to C main() function
   276                           
   277                           	psect	bssCOMRAM
   278   000001                     __pbssCOMRAM:
   279                           	callstack 0
   280   000001                     	ds	6
   281   000007                     	ds	4
   282   00000B                     _timer0_preload:
   283                           	callstack 0
   284   00000B                     	ds	2
   285   00000D                     _timer0_callback_ptr:
   286                           	callstack 0
   287   00000D                     	ds	2
   288   00000F                     _RB7_HIGH_interrupt_Handeler:
   289                           	callstack 0
   290   00000F                     	ds	2
   291   000011                     _RB7_LOW_interrupt_Handeler:
   292                           	callstack 0
   293   000011                     	ds	2
   294   000013                     _RB6_HIGH_interrupt_Handeler:
   295                           	callstack 0
   296   000013                     	ds	2
   297   000015                     _RB6_LOW_interrupt_Handeler:
   298                           	callstack 0
   299   000015                     	ds	2
   300   000017                     _RB5_HIGH_interrupt_Handeler:
   301                           	callstack 0
   302   000017                     	ds	2
   303   000019                     _RB5_LOW_interrupt_Handeler:
   304                           	callstack 0
   305   000019                     	ds	2
   306   00001B                     _RB4_HIGH_interrupt_Handeler:
   307                           	callstack 0
   308   00001B                     	ds	2
   309   00001D                     _RB4_LOW_interrupt_Handeler:
   310                           	callstack 0
   311   00001D                     	ds	2
   312   00001F                     _Int2_interrupt_Handeler:
   313                           	callstack 0
   314   00001F                     	ds	2
   315   000021                     _Int1_interrupt_Handeler:
   316                           	callstack 0
   317   000021                     	ds	2
   318   000023                     _Int0_interrupt_Handeler:
   319                           	callstack 0
   320   000023                     	ds	2
   321   000025                     _ADC_Interrupt_handler:
   322                           	callstack 0
   323   000025                     	ds	2
   324   000027                     relay_toggel@F3068:
   325                           	callstack 0
   326   000027                     	ds	1
   327   000028                     relay_off@F3063:
   328                           	callstack 0
   329   000028                     	ds	1
   330   000029                     relay_on@F3058:
   331                           	callstack 0
   332   000029                     	ds	1
   333   00002A                     relay_int@F3053:
   334                           	callstack 0
   335   00002A                     	ds	1
   336   00002B                     led_toggel@F3069:
   337                           	callstack 0
   338   00002B                     	ds	1
   339   00002C                     led_off@F3064:
   340                           	callstack 0
   341   00002C                     	ds	1
   342   00002D                     led_on@F3059:
   343                           	callstack 0
   344   00002D                     	ds	1
   345   00002E                     led_int@F3054:
   346                           	callstack 0
   347   00002E                     	ds	1
   348                           
   349                           	psect	dataCOMRAM
   350   00002F                     __pdataCOMRAM:
   351                           	callstack 0
   352   00002F                     _Tris_Regs:
   353                           	callstack 0
   354   00002F                     	ds	10
   355   000039                     _Lat_Regs:
   356                           	callstack 0
   357   000039                     	ds	10
   358   000043                     _Port_Regs:
   359                           	callstack 0
   360   000043                     	ds	10
   361   00004D                     _timer0_module:
   362                           	callstack 0
   363   00004D                     	ds	7
   364   000054                     _flage_7:
   365                           	callstack 0
   366   000054                     	ds	1
   367   000055                     _flage_6:
   368                           	callstack 0
   369   000055                     	ds	1
   370   000056                     _flage_5:
   371                           	callstack 0
   372   000056                     	ds	1
   373   000057                     _flage_4:
   374                           	callstack 0
   375   000057                     	ds	1
   376   000058                     _led1:
   377                           	callstack 0
   378   000058                     	ds	1
   379                           
   380                           	psect	bssBANK0
   381   00009D                     __pbssBANK0:
   382                           	callstack 0
   383   00009D                     	ds	11
   384                           
   385                           	psect	dataBANK0
   386   000080                     __pdataBANK0:
   387                           	callstack 0
   388   000080                     _KEYPAD_SHAPE:
   389                           	callstack 0
   390   000080                     	ds	16
   391                           
   392                           	psect	cstackBANK0
   393   000090                     __pcstackBANK0:
   394                           	callstack 0
   395   000090                     ??_gpio_pin_direction_int:
   396   000090                     ??_gpio_pin_write_level:
   397   000090                     ??_gpio_pin_toggle_level:
   398                           
   399                           ; 1 bytes @ 0x0
   400   000090                     	ds	5
   401   000095                     ??_led_toggel:
   402                           
   403                           ; 1 bytes @ 0x5
   404   000095                     	ds	1
   405   000096                     led_toggel@pin_cfg:
   406                           	callstack 0
   407   000096                     gpio_pin_int@pin_cfg:
   408                           	callstack 0
   409                           
   410                           ; 2 bytes @ 0x6
   411   000096                     	ds	2
   412   000098                     led_int@led_cfg:
   413                           	callstack 0
   414                           
   415                           ; 2 bytes @ 0x8
   416   000098                     	ds	2
   417   00009A                     led_int@pin_cfg:
   418                           	callstack 0
   419                           
   420                           ; 1 bytes @ 0xA
   421   00009A                     	ds	1
   422   00009B                     ??_main:
   423                           
   424                           ; 1 bytes @ 0xB
   425   00009B                     	ds	2
   426                           
   427                           	psect	cstackCOMRAM
   428   000059                     __pcstackCOMRAM:
   429                           	callstack 0
   430   000059                     RB4_ISR@flage:
   431                           	callstack 0
   432   000059                     RB5_ISR@flage:
   433                           	callstack 0
   434   000059                     RB6_ISR@flage:
   435                           	callstack 0
   436   000059                     RB7_ISR@flage:
   437                           	callstack 0
   438   000059                     i2gpio_pin_toggle_level@pin_cfg:
   439                           	callstack 0
   440                           
   441                           ; 2 bytes @ 0x0
   442   000059                     	ds	2
   443   00005B                     ??i2_gpio_pin_toggle_level:
   444                           
   445                           ; 1 bytes @ 0x2
   446   00005B                     	ds	5
   447   000060                     i2led_toggel@led_cfg:
   448                           	callstack 0
   449                           
   450                           ; 2 bytes @ 0x7
   451   000060                     	ds	2
   452   000062                     ??i2_led_toggel:
   453                           
   454                           ; 1 bytes @ 0x9
   455   000062                     	ds	1
   456   000063                     i2led_toggel@pin_cfg:
   457                           	callstack 0
   458                           
   459                           ; 1 bytes @ 0xA
   460   000063                     	ds	1
   461   000064                     ??_InterruptManagmentHigh:
   462   000064                     
   463                           ; 1 bytes @ 0xB
   464   000064                     	ds	6
   465   00006A                     gpio_pin_direction_int@pin_cfg:
   466                           	callstack 0
   467   00006A                     gpio_pin_write_level@pin_cfg:
   468                           	callstack 0
   469   00006A                     gpio_pin_toggle_level@pin_cfg:
   470                           	callstack 0
   471   00006A                     timer0_int@ptr:
   472                           	callstack 0
   473                           
   474                           ; 2 bytes @ 0x11
   475   00006A                     	ds	2
   476   00006C                     ??_timer0_int:
   477   00006C                     gpio_pin_write_level@level:
   478                           	callstack 0
   479   00006C                     led_toggel@led_cfg:
   480                           	callstack 0
   481                           
   482                           ; 2 bytes @ 0x13
   483   00006C                     	ds	1
   484   00006D                     ??_led_int:
   485                           
   486                           ; 1 bytes @ 0x14
   487   00006D                     	ds	1
   488                           
   489 ;;
   490 ;;Main: autosize = 0, tempsize = 2, incstack = 0, save=0
   491 ;;
   492 ;; *************** function _main *****************
   493 ;; Defined at:
   494 ;;		line 35 in file "Application.c"
   495 ;; Parameters:    Size  Location     Type
   496 ;;		None
   497 ;; Auto vars:     Size  Location     Type
   498 ;;		None
   499 ;; Return value:  Size  Location     Type
   500 ;;                  2  847[None  ] int 
   501 ;; Registers used:
   502 ;;		wreg, fsr2l, fsr2h, status,2, status,0, prodl, prodh, cstack
   503 ;; Tracked objects:
   504 ;;		On entry : 0/0
   505 ;;		On exit  : 0/0
   506 ;;		Unchanged: 0/0
   507 ;; Data sizes:     COMRAM   BANK0   BANK1   BANK2   BANK3   BANK4   BANK5   BANK6   BANK7   BANK8   BANK9  BANK10  BANK1
      +1  BANK12  BANK13  BANK14  BANK15
   508 ;;      Params:         0       0       0       0       0       0       0       0       0       0       0       0       
      +0       0       0       0       0
   509 ;;      Locals:         0       0       0       0       0       0       0       0       0       0       0       0       
      +0       0       0       0       0
   510 ;;      Temps:          0       2       0       0       0       0       0       0       0       0       0       0       
      +0       0       0       0       0
   511 ;;      Totals:         0       2       0       0       0       0       0       0       0       0       0       0       
      +0       0       0       0       0
   512 ;;Total ram usage:        2 bytes
   513 ;; Hardware stack levels required when called: 8
   514 ;; This function calls:
   515 ;;		_led_int
   516 ;;		_led_toggel
   517 ;;		_timer0_int
   518 ;; This function is called by:
   519 ;;		Startup code after reset
   520 ;; This function uses a non-reentrant model
   521 ;;
   522                           
   523                           	psect	text0
   524   0018E0                     __ptext0:
   525                           	callstack 0
   526   0018E0                     _main:
   527                           	callstack 23
   528   0018E0                     
   529                           ;Application.c: 37: led_int(&led1);
   530   0018E0  0E58               	movlw	low _led1
   531   0018E2  0100               	movlb	0	; () banked
   532   0018E4  6F98               	movwf	led_int@led_cfg& (0+255),b
   533   0018E6  0E00               	movlw	high _led1
   534   0018E8  6F99               	movwf	(led_int@led_cfg+1)& (0+255),b
   535   0018EA  EC5F  F00B         	call	_led_int	;wreg free
   536   0018EE                     
   537                           ;Application.c: 38: timer0_int(&timer0);
   538   0018EE  0E40               	movlw	low _timer0
   539   0018F0  6E6A               	movwf	timer0_int@ptr^0,c
   540   0018F2  0E1A               	movlw	high _timer0
   541   0018F4  6E6B               	movwf	(timer0_int@ptr+1)^0,c
   542   0018F6  EC7E  F009         	call	_timer0_int	;wreg free
   543   0018FA                     l5275:
   544                           
   545                           ;Application.c: 43:         led_toggel(&led1);
   546   0018FA  0E58               	movlw	low _led1
   547   0018FC  6E6C               	movwf	led_toggel@led_cfg^0,c
   548   0018FE  0E00               	movlw	high _led1
   549   001900  6E6D               	movwf	(led_toggel@led_cfg+1)^0,c
   550   001902  EC25  F00B         	call	_led_toggel	;wreg free
   551   001906                     
   552                           ;Application.c: 44:         _delay((unsigned long)((500)*(8000000UL/4000.0)));
   553   001906  0E06               	movlw	6
   554   001908  0100               	movlb	0	; () banked
   555   00190A  6F9C               	movwf	(??_main+1)& (0+255),b
   556   00190C  0E13               	movlw	19
   557   00190E  6F9B               	movwf	??_main& (0+255),b
   558   001910  0EAD               	movlw	173
   559   001912                     u4897:
   560   001912  2EE8               	decfsz	wreg,f,c
   561   001914  D7FE               	bra	u4897
   562   001916  2F9B               	decfsz	??_main& (0+255),f,b
   563   001918  D7FC               	bra	u4897
   564   00191A  2F9C               	decfsz	(??_main+1)& (0+255),f,b
   565   00191C  D7FA               	bra	u4897
   566   00191E  D000               	nop2	
   567   001920  EF7D  F00C         	goto	l5275
   568   001924  EF07  F000         	goto	start
   569   001928                     __end_of_main:
   570                           	callstack 0
   571                           
   572 ;; *************** function _timer0_int *****************
   573 ;; Defined at:
   574 ;;		line 14 in file "MCAL_Layer/Timer/timer0.c"
   575 ;; Parameters:    Size  Location     Type
   576 ;;  ptr             2   17[COMRAM] PTR const struct .
   577 ;; Auto vars:     Size  Location     Type
   578 ;;  returt_statu    1    0        unsigned char 
   579 ;; Return value:  Size  Location     Type
   580 ;;                  1    wreg      unsigned char 
   581 ;; Registers used:
   582 ;;		wreg, fsr2l, fsr2h, status,2, status,0
   583 ;; Tracked objects:
   584 ;;		On entry : 0/0
   585 ;;		On exit  : 0/0
   586 ;;		Unchanged: 0/0
   587 ;; Data sizes:     COMRAM   BANK0   BANK1   BANK2   BANK3   BANK4   BANK5   BANK6   BANK7   BANK8   BANK9  BANK10  BANK1
      +1  BANK12  BANK13  BANK14  BANK15
   588 ;;      Params:         2       0       0       0       0       0       0       0       0       0       0       0       
      +0       0       0       0       0
   589 ;;      Locals:         0       0       0       0       0       0       0       0       0       0       0       0       
      +0       0       0       0       0
   590 ;;      Temps:          2       0       0       0       0       0       0       0       0       0       0       0       
      +0       0       0       0       0
   591 ;;      Totals:         4       0       0       0       0       0       0       0       0       0       0       0       
      +0       0       0       0       0
   592 ;;Total ram usage:        4 bytes
   593 ;; Hardware stack levels used: 1
   594 ;; Hardware stack levels required when called: 5
   595 ;; This function calls:
   596 ;;		Nothing
   597 ;; This function is called by:
   598 ;;		_main
   599 ;; This function uses a non-reentrant model
   600 ;;
   601                           
   602                           	psect	text1
   603   0012FC                     __ptext1:
   604                           	callstack 0
   605   0012FC                     _timer0_int:
   606                           	callstack 25
   607   0012FC                     
   608                           ;MCAL_Layer/Timer/timer0.c: 16:     if(((void*)0)!=ptr){
   609   0012FC  506A               	movf	timer0_int@ptr^0,w,c
   610   0012FE  106B               	iorwf	(timer0_int@ptr+1)^0,w,c
   611   001300  B4D8               	btfsc	status,2,c
   612   001302  EF85  F009         	goto	u2481
   613   001306  EF87  F009         	goto	u2480
   614   00130A                     u2481:
   615   00130A  EF12  F00A         	goto	l3505
   616   00130E                     u2480:
   617   00130E                     
   618                           ;MCAL_Layer/Timer/timer0.c: 17:         timer0_preload=ptr->timer0_preload_value;
   619   00130E  EE20 F004          	lfsr	2,4
   620   001312  506A               	movf	timer0_int@ptr^0,w,c
   621   001314  26D9               	addwf	fsr2l,f,c
   622   001316  506B               	movf	(timer0_int@ptr+1)^0,w,c
   623   001318  22DA               	addwfc	fsr2h,f,c
   624   00131A  CFDE F00B          	movff	postinc2,_timer0_preload
   625   00131E  CFDD F00C          	movff	postdec2,_timer0_preload+1
   626   001322                     
   627                           ;MCAL_Layer/Timer/timer0.c: 19:         (T0CONbits.TMR0ON=0);
   628   001322  9ED5               	bcf	213,7,c	;volatile
   629                           
   630                           ;MCAL_Layer/Timer/timer0.c: 21:         if(ptr->timer0_select_mode_bits ==(1)){
   631   001324  EE20 F006          	lfsr	2,6
   632   001328  506A               	movf	timer0_int@ptr^0,w,c
   633   00132A  26D9               	addwf	fsr2l,f,c
   634   00132C  506B               	movf	(timer0_int@ptr+1)^0,w,c
   635   00132E  22DA               	addwfc	fsr2h,f,c
   636   001330  A6DF               	btfss	indf2,3,c
   637   001332  EF9D  F009         	goto	u2491
   638   001336  EF9F  F009         	goto	u2490
   639   00133A                     u2491:
   640   00133A  EFAA  F009         	goto	l796
   641   00133E                     u2490:
   642   00133E                     
   643                           ;MCAL_Layer/Timer/timer0.c: 22:             (T0CONbits.T08BIT=1);
   644   00133E  8CD5               	bsf	213,6,c	;volatile
   645   001340                     
   646                           ;MCAL_Layer/Timer/timer0.c: 23:             TMR0L =ptr->timer0_preload_value;
   647   001340  EE20 F004          	lfsr	2,4
   648   001344  506A               	movf	timer0_int@ptr^0,w,c
   649   001346  26D9               	addwf	fsr2l,f,c
   650   001348  506B               	movf	(timer0_int@ptr+1)^0,w,c
   651   00134A  22DA               	addwfc	fsr2h,f,c
   652   00134C  50DF               	movf	indf2,w,c
   653   00134E  6ED6               	movwf	214,c	;volatile
   654                           
   655                           ;MCAL_Layer/Timer/timer0.c: 24:         }
   656   001350  EFC2  F009         	goto	l797
   657   001354                     l796:
   658                           
   659                           ;MCAL_Layer/Timer/timer0.c: 26:             (T0CONbits.T08BIT=0);
   660   001354  9CD5               	bcf	213,6,c	;volatile
   661   001356                     
   662                           ;MCAL_Layer/Timer/timer0.c: 27:             TMR0H=ptr->timer0_preload_value>>8;
   663   001356  EE20 F004          	lfsr	2,4
   664   00135A  506A               	movf	timer0_int@ptr^0,w,c
   665   00135C  26D9               	addwf	fsr2l,f,c
   666   00135E  506B               	movf	(timer0_int@ptr+1)^0,w,c
   667   001360  22DA               	addwfc	fsr2h,f,c
   668   001362  CFDE F06C          	movff	postinc2,??_timer0_int
   669   001366  CFDD F06D          	movff	postdec2,??_timer0_int+1
   670   00136A  C06D  F06C         	movff	??_timer0_int+1,??_timer0_int
   671   00136E  6A6D               	clrf	(??_timer0_int+1)^0,c
   672   001370  506C               	movf	??_timer0_int^0,w,c
   673   001372  6ED7               	movwf	215,c	;volatile
   674                           
   675                           ;MCAL_Layer/Timer/timer0.c: 28:             TMR0L =(uint8)ptr->timer0_preload_value;
   676   001374  EE20 F004          	lfsr	2,4
   677   001378  506A               	movf	timer0_int@ptr^0,w,c
   678   00137A  26D9               	addwf	fsr2l,f,c
   679   00137C  506B               	movf	(timer0_int@ptr+1)^0,w,c
   680   00137E  22DA               	addwfc	fsr2h,f,c
   681   001380  50DF               	movf	indf2,w,c
   682   001382  6ED6               	movwf	214,c	;volatile
   683   001384                     l797:
   684                           
   685                           ;MCAL_Layer/Timer/timer0.c: 31:         if(ptr->timer0_prescaler_statuse== (0)){
   686   001384  EE20 F006          	lfsr	2,6
   687   001388  506A               	movf	timer0_int@ptr^0,w,c
   688   00138A  26D9               	addwf	fsr2l,f,c
   689   00138C  506B               	movf	(timer0_int@ptr+1)^0,w,c
   690   00138E  22DA               	addwfc	fsr2h,f,c
   691   001390  B4DF               	btfsc	indf2,2,c
   692   001392  EFCD  F009         	goto	u2501
   693   001396  EFCF  F009         	goto	u2500
   694   00139A                     u2501:
   695   00139A  EFDF  F009         	goto	l798
   696   00139E                     u2500:
   697   00139E                     
   698                           ;MCAL_Layer/Timer/timer0.c: 32:             (T0CONbits.PSA=0);
   699   00139E  96D5               	bcf	213,3,c	;volatile
   700   0013A0                     
   701                           ;MCAL_Layer/Timer/timer0.c: 33:             (T0CONbits.T0PS=ptr->timer0_Prescaler_type);
   702   0013A0  EE20 F003          	lfsr	2,3
   703   0013A4  506A               	movf	timer0_int@ptr^0,w,c
   704   0013A6  26D9               	addwf	fsr2l,f,c
   705   0013A8  506B               	movf	(timer0_int@ptr+1)^0,w,c
   706   0013AA  22DA               	addwfc	fsr2h,f,c
   707   0013AC  50DF               	movf	indf2,w,c
   708   0013AE  6E6C               	movwf	??_timer0_int^0,c
   709   0013B0  50D5               	movf	213,w,c	;volatile
   710   0013B2  186C               	xorwf	??_timer0_int^0,w,c
   711   0013B4  0BF8               	andlw	-8
   712   0013B6  186C               	xorwf	??_timer0_int^0,w,c
   713   0013B8  6ED5               	movwf	213,c	;volatile
   714                           
   715                           ;MCAL_Layer/Timer/timer0.c: 34:         }
   716   0013BA  EFE0  F009         	goto	l3485
   717   0013BE                     l798:
   718                           
   719                           ;MCAL_Layer/Timer/timer0.c: 36:             (T0CONbits.PSA=1);
   720   0013BE  86D5               	bsf	213,3,c	;volatile
   721   0013C0                     l3485:
   722                           
   723                           ;MCAL_Layer/Timer/timer0.c: 39:         if(ptr->timer0_select_sourse == (1)){
   724   0013C0  EE20 F006          	lfsr	2,6
   725   0013C4  506A               	movf	timer0_int@ptr^0,w,c
   726   0013C6  26D9               	addwf	fsr2l,f,c
   727   0013C8  506B               	movf	(timer0_int@ptr+1)^0,w,c
   728   0013CA  22DA               	addwfc	fsr2h,f,c
   729   0013CC  A0DF               	btfss	indf2,0,c
   730   0013CE  EFEB  F009         	goto	u2511
   731   0013D2  EFED  F009         	goto	u2510
   732   0013D6                     u2511:
   733   0013D6  EF01  F00A         	goto	l800
   734   0013DA                     u2510:
   735   0013DA                     
   736                           ;MCAL_Layer/Timer/timer0.c: 40:             (T0CONbits.T0CS=0);
   737   0013DA  9AD5               	bcf	213,5,c	;volatile
   738   0013DC                     
   739                           ;MCAL_Layer/Timer/timer0.c: 42:             if(ptr->timer0_select_edge==(1)){
   740   0013DC  EE20 F006          	lfsr	2,6
   741   0013E0  506A               	movf	timer0_int@ptr^0,w,c
   742   0013E2  26D9               	addwf	fsr2l,f,c
   743   0013E4  506B               	movf	(timer0_int@ptr+1)^0,w,c
   744   0013E6  22DA               	addwfc	fsr2h,f,c
   745   0013E8  A2DF               	btfss	indf2,1,c
   746   0013EA  EFF9  F009         	goto	u2521
   747   0013EE  EFFB  F009         	goto	u2520
   748   0013F2                     u2521:
   749   0013F2  EFFE  F009         	goto	l801
   750   0013F6                     u2520:
   751   0013F6                     
   752                           ;MCAL_Layer/Timer/timer0.c: 43:                 (T0CONbits.T0SE=1);
   753   0013F6  88D5               	bsf	213,4,c	;volatile
   754                           
   755                           ;MCAL_Layer/Timer/timer0.c: 44:             }
   756   0013F8  EF02  F00A         	goto	l803
   757   0013FC                     l801:
   758                           
   759                           ;MCAL_Layer/Timer/timer0.c: 46:                 (T0CONbits.T0SE=0);
   760   0013FC  98D5               	bcf	213,4,c	;volatile
   761   0013FE  EF02  F00A         	goto	l803
   762   001402                     l800:
   763                           
   764                           ;MCAL_Layer/Timer/timer0.c: 50:             (T0CONbits.T0CS=0);
   765   001402  9AD5               	bcf	213,5,c	;volatile
   766   001404                     l803:
   767                           
   768                           ;MCAL_Layer/Timer/timer0.c: 57:         (INTCONbits.TMR0IE=0);
   769   001404  9AF2               	bcf	242,5,c	;volatile
   770                           
   771                           ;MCAL_Layer/Timer/timer0.c: 58:         (INTCONbits.TMR0IF=0);
   772   001406  94F2               	bcf	242,2,c	;volatile
   773   001408                     
   774                           ;MCAL_Layer/Timer/timer0.c: 59:         timer0_callback_ptr=ptr->timer0_callback;
   775   001408  C06A  FFD9         	movff	timer0_int@ptr,fsr2l
   776   00140C  C06B  FFDA         	movff	timer0_int@ptr+1,fsr2h
   777   001410  CFDE F00D          	movff	postinc2,_timer0_callback_ptr
   778   001414  CFDD F00E          	movff	postdec2,_timer0_callback_ptr+1
   779   001418                     
   780                           ;MCAL_Layer/Timer/timer0.c: 72:         (INTCONbits.GIE=1);
   781   001418  8EF2               	bsf	242,7,c	;volatile
   782   00141A                     
   783                           ;MCAL_Layer/Timer/timer0.c: 73:         (INTCONbits.PEIE=1);
   784   00141A  8CF2               	bsf	242,6,c	;volatile
   785   00141C                     
   786                           ;MCAL_Layer/Timer/timer0.c: 75:         (INTCONbits.TMR0IE=1);
   787   00141C  8AF2               	bsf	242,5,c	;volatile
   788   00141E                     
   789                           ;MCAL_Layer/Timer/timer0.c: 78:         (T0CONbits.TMR0ON=1);
   790   00141E  8ED5               	bsf	213,7,c	;volatile
   791   001420                     
   792                           ;MCAL_Layer/Timer/timer0.c: 80:     }
   793   001420  EF12  F00A         	goto	l805
   794   001424                     l3505:
   795   001424                     l805:
   796   001424  0012               	return		;funcret
   797   001426                     __end_of_timer0_int:
   798                           	callstack 0
   799                           
   800 ;; *************** function _led_toggel *****************
   801 ;; Defined at:
   802 ;;		line 70 in file "ECU_Layer/LED/LED.c"
   803 ;; Parameters:    Size  Location     Type
   804 ;;  led_cfg         2   19[COMRAM] PTR struct .
   805 ;;		 -> led1(1), 
   806 ;; Auto vars:     Size  Location     Type
   807 ;;  pin_cfg         1    6[BANK0 ] struct .
   808 ;;  returt_state    1    0        unsigned char 
   809 ;; Return value:  Size  Location     Type
   810 ;;                  1    wreg      unsigned char 
   811 ;; Registers used:
   812 ;;		wreg, fsr2l, fsr2h, status,2, status,0, prodl, prodh, cstack
   813 ;; Tracked objects:
   814 ;;		On entry : 0/0
   815 ;;		On exit  : 0/0
   816 ;;		Unchanged: 0/0
   817 ;; Data sizes:     COMRAM   BANK0   BANK1   BANK2   BANK3   BANK4   BANK5   BANK6   BANK7   BANK8   BANK9  BANK10  BANK1
      +1  BANK12  BANK13  BANK14  BANK15
   818 ;;      Params:         2       0       0       0       0       0       0       0       0       0       0       0       
      +0       0       0       0       0
   819 ;;      Locals:         0       1       0       0       0       0       0       0       0       0       0       0       
      +0       0       0       0       0
   820 ;;      Temps:          0       1       0       0       0       0       0       0       0       0       0       0       
      +0       0       0       0       0
   821 ;;      Totals:         2       2       0       0       0       0       0       0       0       0       0       0       
      +0       0       0       0       0
   822 ;;Total ram usage:        4 bytes
   823 ;; Hardware stack levels used: 1
   824 ;; Hardware stack levels required when called: 6
   825 ;; This function calls:
   826 ;;		_gpio_pin_toggle_level
   827 ;; This function is called by:
   828 ;;		_main
   829 ;; This function uses a non-reentrant model
   830 ;;
   831                           
   832                           	psect	text2
   833   00164A                     __ptext2:
   834                           	callstack 0
   835   00164A                     _led_toggel:
   836                           	callstack 24
   837   00164A                     
   838                           ;ECU_Layer/LED/LED.c: 72:     pin_cfg_t pin_cfg={
   839   00164A  C02B  F096         	movff	led_toggel@F3069,led_toggel@pin_cfg
   840   00164E  0100               	movlb	0	; () banked
   841   001650  9196               	bcf	led_toggel@pin_cfg& (0+255),0,b
   842   001652                     
   843                           ; BSR set to: 0
   844   001652  C06C  FFD9         	movff	led_toggel@led_cfg,fsr2l
   845   001656  C06D  FFDA         	movff	led_toggel@led_cfg+1,fsr2h
   846   00165A  AEDF               	btfss	indf2,7,c
   847   00165C  D002               	bra	u3965
   848   00165E  8396               	bsf	led_toggel@pin_cfg& (0+255),1,b
   849   001660  D002               	bra	u3967
   850   001662                     u3965:
   851   001662  0100               	movlb	0	; () banked
   852   001664  9396               	bcf	led_toggel@pin_cfg& (0+255),1,b
   853   001666                     u3967:
   854   001666                     
   855                           ; BSR set to: 0
   856   001666  C06C  FFD9         	movff	led_toggel@led_cfg,fsr2l
   857   00166A  C06D  FFDA         	movff	led_toggel@led_cfg+1,fsr2h
   858   00166E  38DF               	swapf	223,w,c
   859   001670  0B07               	andlw	7
   860   001672  6F95               	movwf	??_led_toggel& (0+255),b
   861   001674  4795               	rlncf	??_led_toggel& (0+255),f,b
   862   001676  4795               	rlncf	??_led_toggel& (0+255),f,b
   863   001678  5196               	movf	led_toggel@pin_cfg& (0+255),w,b
   864   00167A  1995               	xorwf	??_led_toggel& (0+255),w,b
   865   00167C  0BE3               	andlw	-29
   866   00167E  1995               	xorwf	??_led_toggel& (0+255),w,b
   867   001680  6F96               	movwf	led_toggel@pin_cfg& (0+255),b
   868   001682                     
   869                           ; BSR set to: 0
   870   001682  C06C  FFD9         	movff	led_toggel@led_cfg,fsr2l
   871   001686  C06D  FFDA         	movff	led_toggel@led_cfg+1,fsr2h
   872   00168A  50DF               	movf	223,w,c
   873   00168C  0B0F               	andlw	15
   874   00168E  6F95               	movwf	??_led_toggel& (0+255),b
   875   001690  3B95               	swapf	??_led_toggel& (0+255),f,b
   876   001692  4795               	rlncf	??_led_toggel& (0+255),f,b
   877   001694  5196               	movf	led_toggel@pin_cfg& (0+255),w,b
   878   001696  1995               	xorwf	??_led_toggel& (0+255),w,b
   879   001698  0B1F               	andlw	-225
   880   00169A  1995               	xorwf	??_led_toggel& (0+255),w,b
   881   00169C  6F96               	movwf	led_toggel@pin_cfg& (0+255),b
   882   00169E                     
   883                           ; BSR set to: 0
   884                           ;ECU_Layer/LED/LED.c: 78:     if(((void*)0)!=led_cfg)
   885   00169E  506C               	movf	led_toggel@led_cfg^0,w,c
   886   0016A0  106D               	iorwf	(led_toggel@led_cfg+1)^0,w,c
   887   0016A2  B4D8               	btfsc	status,2,c
   888   0016A4  EF56  F00B         	goto	u3971
   889   0016A8  EF58  F00B         	goto	u3970
   890   0016AC                     u3971:
   891   0016AC  EF5E  F00B         	goto	l267
   892   0016B0                     u3970:
   893   0016B0                     
   894                           ; BSR set to: 0
   895                           ;ECU_Layer/LED/LED.c: 79:     {;ECU_Layer/LED/LED.c: 80:         gpio_pin_toggle_level(&
      +                          pin_cfg);
   896   0016B0  0E96               	movlw	low led_toggel@pin_cfg
   897   0016B2  6E6A               	movwf	gpio_pin_toggle_level@pin_cfg^0,c
   898   0016B4  0E00               	movlw	high led_toggel@pin_cfg
   899   0016B6  6E6B               	movwf	(gpio_pin_toggle_level@pin_cfg+1)^0,c
   900   0016B8  EC99  F00B         	call	_gpio_pin_toggle_level	;wreg free
   901   0016BC                     l267:
   902   0016BC  0012               	return		;funcret
   903   0016BE                     __end_of_led_toggel:
   904                           	callstack 0
   905                           
   906 ;; *************** function _gpio_pin_toggle_level *****************
   907 ;; Defined at:
   908 ;;		line 113 in file "MCAL_Layer/GPIO/GPIO.c"
   909 ;; Parameters:    Size  Location     Type
   910 ;;  pin_cfg         2   17[COMRAM] PTR const struct .
   911 ;;		 -> relay_toggel@relay_pin(1), led_toggel@pin_cfg(1), 
   912 ;; Auto vars:     Size  Location     Type
   913 ;;  return_statu    1    0        unsigned char 
   914 ;; Return value:  Size  Location     Type
   915 ;;                  1    wreg      unsigned char 
   916 ;; Registers used:
   917 ;;		wreg, fsr2l, fsr2h, status,2, status,0, prodl, prodh
   918 ;; Tracked objects:
   919 ;;		On entry : 0/0
   920 ;;		On exit  : 0/0
   921 ;;		Unchanged: 0/0
   922 ;; Data sizes:     COMRAM   BANK0   BANK1   BANK2   BANK3   BANK4   BANK5   BANK6   BANK7   BANK8   BANK9  BANK10  BANK1
      +1  BANK12  BANK13  BANK14  BANK15
   923 ;;      Params:         2       0       0       0       0       0       0       0       0       0       0       0       
      +0       0       0       0       0
   924 ;;      Locals:         0       0       0       0       0       0       0       0       0       0       0       0       
      +0       0       0       0       0
   925 ;;      Temps:          0       5       0       0       0       0       0       0       0       0       0       0       
      +0       0       0       0       0
   926 ;;      Totals:         2       5       0       0       0       0       0       0       0       0       0       0       
      +0       0       0       0       0
   927 ;;Total ram usage:        7 bytes
   928 ;; Hardware stack levels used: 1
   929 ;; Hardware stack levels required when called: 5
   930 ;; This function calls:
   931 ;;		Nothing
   932 ;; This function is called by:
   933 ;;		_led_toggel
   934 ;;		_relay_toggel
   935 ;; This function uses a non-reentrant model
   936 ;;
   937                           
   938                           	psect	text3
   939   001732                     __ptext3:
   940                           	callstack 0
   941   001732                     _gpio_pin_toggle_level:
   942                           	callstack 24
   943   001732                     
   944                           ;MCAL_Layer/GPIO/GPIO.c: 116:     if(((void*)0)!=pin_cfg)
   945   001732  506A               	movf	gpio_pin_toggle_level@pin_cfg^0,w,c
   946   001734  106B               	iorwf	(gpio_pin_toggle_level@pin_cfg+1)^0,w,c
   947   001736  B4D8               	btfsc	status,2,c
   948   001738  EFA0  F00B         	goto	u3801
   949   00173C  EFA2  F00B         	goto	u3800
   950   001740                     u3801:
   951   001740  EFD0  F00B         	goto	l493
   952   001744                     u3800:
   953   001744                     
   954                           ;MCAL_Layer/GPIO/GPIO.c: 117:     {;MCAL_Layer/GPIO/GPIO.c: 118:         (*Lat_Regs[pin_
      +                          cfg->port]^=(1<<pin_cfg->pin));
   955   001744  C06A  FFD9         	movff	gpio_pin_toggle_level@pin_cfg,fsr2l
   956   001748  C06B  FFDA         	movff	gpio_pin_toggle_level@pin_cfg+1,fsr2h
   957   00174C  30DF               	rrcf	223,w,c
   958   00174E  32E8               	rrcf	wreg,f,c
   959   001750  0B07               	andlw	7
   960   001752  0100               	movlb	0	; () banked
   961   001754  6F90               	movwf	??_gpio_pin_toggle_level& (0+255),b
   962   001756  0E01               	movlw	1
   963   001758  6F91               	movwf	(??_gpio_pin_toggle_level+1)& (0+255),b
   964   00175A  2B90               	incf	??_gpio_pin_toggle_level& (0+255),f,b
   965   00175C  EFB2  F00B         	goto	u3814
   966   001760                     u3815:
   967   001760  90D8               	bcf	status,0,c
   968   001762  3791               	rlcf	(??_gpio_pin_toggle_level+1)& (0+255),f,b
   969   001764                     u3814:
   970   001764  2F90               	decfsz	??_gpio_pin_toggle_level& (0+255),f,b
   971   001766  EFB0  F00B         	goto	u3815
   972   00176A  C06A  FFD9         	movff	gpio_pin_toggle_level@pin_cfg,fsr2l
   973   00176E  C06B  FFDA         	movff	gpio_pin_toggle_level@pin_cfg+1,fsr2h
   974   001772  38DF               	swapf	223,w,c
   975   001774  32E8               	rrcf	wreg,f,c
   976   001776  0B07               	andlw	7
   977   001778  0100               	movlb	0	; () banked
   978   00177A  6F92               	movwf	(??_gpio_pin_toggle_level+2)& (0+255),b
   979   00177C  5192               	movf	(??_gpio_pin_toggle_level+2)& (0+255),w,b
   980   00177E  0D02               	mullw	2
   981   001780  0E39               	movlw	low _Lat_Regs
   982   001782  24F3               	addwf	243,w,c
   983   001784  6ED9               	movwf	fsr2l,c
   984   001786  0E00               	movlw	high _Lat_Regs
   985   001788  20F4               	addwfc	prodh,w,c
   986   00178A  6EDA               	movwf	fsr2h,c
   987   00178C  CFDE F093          	movff	postinc2,??_gpio_pin_toggle_level+3
   988   001790  CFDD F094          	movff	postdec2,??_gpio_pin_toggle_level+4
   989   001794  C093  FFD9         	movff	??_gpio_pin_toggle_level+3,fsr2l
   990   001798  C094  FFDA         	movff	??_gpio_pin_toggle_level+4,fsr2h
   991   00179C  5191               	movf	(??_gpio_pin_toggle_level+1)& (0+255),w,b
   992   00179E  1ADF               	xorwf	indf2,f,c
   993   0017A0                     l493:
   994   0017A0  0012               	return		;funcret
   995   0017A2                     __end_of_gpio_pin_toggle_level:
   996                           	callstack 0
   997                           
   998 ;; *************** function _led_int *****************
   999 ;; Defined at:
  1000 ;;		line 8 in file "ECU_Layer/LED/LED.c"
  1001 ;; Parameters:    Size  Location     Type
  1002 ;;  led_cfg         2    8[BANK0 ] PTR struct .
  1003 ;;		 -> led1(1), 
  1004 ;; Auto vars:     Size  Location     Type
  1005 ;;  pin_cfg         1   10[BANK0 ] struct .
  1006 ;;  returt_state    1    0        unsigned char 
  1007 ;; Return value:  Size  Location     Type
  1008 ;;                  1    wreg      unsigned char 
  1009 ;; Registers used:
  1010 ;;		wreg, fsr2l, fsr2h, status,2, status,0, prodl, prodh, cstack
  1011 ;; Tracked objects:
  1012 ;;		On entry : 0/0
  1013 ;;		On exit  : 0/0
  1014 ;;		Unchanged: 0/0
  1015 ;; Data sizes:     COMRAM   BANK0   BANK1   BANK2   BANK3   BANK4   BANK5   BANK6   BANK7   BANK8   BANK9  BANK10  BANK1
      +1  BANK12  BANK13  BANK14  BANK15
  1016 ;;      Params:         0       2       0       0       0       0       0       0       0       0       0       0       
      +0       0       0       0       0
  1017 ;;      Locals:         0       1       0       0       0       0       0       0       0       0       0       0       
      +0       0       0       0       0
  1018 ;;      Temps:          1       0       0       0       0       0       0       0       0       0       0       0       
      +0       0       0       0       0
  1019 ;;      Totals:         1       3       0       0       0       0       0       0       0       0       0       0       
      +0       0       0       0       0
  1020 ;;Total ram usage:        4 bytes
  1021 ;; Hardware stack levels used: 1
  1022 ;; Hardware stack levels required when called: 7
  1023 ;; This function calls:
  1024 ;;		_gpio_pin_int
  1025 ;; This function is called by:
  1026 ;;		_main
  1027 ;; This function uses a non-reentrant model
  1028 ;;
  1029                           
  1030                           	psect	text4
  1031   0016BE                     __ptext4:
  1032                           	callstack 0
  1033   0016BE                     _led_int:
  1034                           	callstack 23
  1035   0016BE                     
  1036                           ;ECU_Layer/LED/LED.c: 11:     pin_cfg_t pin_cfg={
  1037   0016BE  C02E  F09A         	movff	led_int@F3054,led_int@pin_cfg
  1038   0016C2  0100               	movlb	0	; () banked
  1039   0016C4  919A               	bcf	led_int@pin_cfg& (0+255),0,b
  1040   0016C6                     
  1041                           ; BSR set to: 0
  1042   0016C6  C098  FFD9         	movff	led_int@led_cfg,fsr2l
  1043   0016CA  C099  FFDA         	movff	led_int@led_cfg+1,fsr2h
  1044   0016CE  AEDF               	btfss	indf2,7,c
  1045   0016D0  D002               	bra	u3945
  1046   0016D2  839A               	bsf	led_int@pin_cfg& (0+255),1,b
  1047   0016D4  D002               	bra	u3947
  1048   0016D6                     u3945:
  1049   0016D6  0100               	movlb	0	; () banked
  1050   0016D8  939A               	bcf	led_int@pin_cfg& (0+255),1,b
  1051   0016DA                     u3947:
  1052   0016DA                     
  1053                           ; BSR set to: 0
  1054   0016DA  C098  FFD9         	movff	led_int@led_cfg,fsr2l
  1055   0016DE  C099  FFDA         	movff	led_int@led_cfg+1,fsr2h
  1056   0016E2  38DF               	swapf	223,w,c
  1057   0016E4  0B07               	andlw	7
  1058   0016E6  6E6D               	movwf	??_led_int^0,c
  1059   0016E8  466D               	rlncf	??_led_int^0,f,c
  1060   0016EA  466D               	rlncf	??_led_int^0,f,c
  1061   0016EC  519A               	movf	led_int@pin_cfg& (0+255),w,b
  1062   0016EE  186D               	xorwf	??_led_int^0,w,c
  1063   0016F0  0BE3               	andlw	-29
  1064   0016F2  186D               	xorwf	??_led_int^0,w,c
  1065   0016F4  6F9A               	movwf	led_int@pin_cfg& (0+255),b
  1066   0016F6                     
  1067                           ; BSR set to: 0
  1068   0016F6  C098  FFD9         	movff	led_int@led_cfg,fsr2l
  1069   0016FA  C099  FFDA         	movff	led_int@led_cfg+1,fsr2h
  1070   0016FE  50DF               	movf	223,w,c
  1071   001700  0B0F               	andlw	15
  1072   001702  6E6D               	movwf	??_led_int^0,c
  1073   001704  3A6D               	swapf	??_led_int^0,f,c
  1074   001706  466D               	rlncf	??_led_int^0,f,c
  1075   001708  519A               	movf	led_int@pin_cfg& (0+255),w,b
  1076   00170A  186D               	xorwf	??_led_int^0,w,c
  1077   00170C  0B1F               	andlw	-225
  1078   00170E  186D               	xorwf	??_led_int^0,w,c
  1079   001710  6F9A               	movwf	led_int@pin_cfg& (0+255),b
  1080   001712                     
  1081                           ; BSR set to: 0
  1082                           ;ECU_Layer/LED/LED.c: 17:     if(((void*)0)!=led_cfg)
  1083   001712  5198               	movf	led_int@led_cfg& (0+255),w,b
  1084   001714  1199               	iorwf	(led_int@led_cfg+1)& (0+255),w,b
  1085   001716  B4D8               	btfsc	status,2,c
  1086   001718  EF90  F00B         	goto	u3951
  1087   00171C  EF92  F00B         	goto	u3950
  1088   001720                     u3951:
  1089   001720  EF98  F00B         	goto	l249
  1090   001724                     u3950:
  1091   001724                     
  1092                           ; BSR set to: 0
  1093                           ;ECU_Layer/LED/LED.c: 18:     {;ECU_Layer/LED/LED.c: 19:         gpio_pin_int(&pin_cfg);
  1094   001724  0E9A               	movlw	low led_int@pin_cfg
  1095   001726  6F96               	movwf	gpio_pin_int@pin_cfg& (0+255),b
  1096   001728  0E00               	movlw	high led_int@pin_cfg
  1097   00172A  6F97               	movwf	(gpio_pin_int@pin_cfg+1)& (0+255),b
  1098   00172C  EC94  F00C         	call	_gpio_pin_int	;wreg free
  1099   001730                     l249:
  1100   001730  0012               	return		;funcret
  1101   001732                     __end_of_led_int:
  1102                           	callstack 0
  1103                           
  1104 ;; *************** function _gpio_pin_int *****************
  1105 ;; Defined at:
  1106 ;;		line 128 in file "MCAL_Layer/GPIO/GPIO.c"
  1107 ;; Parameters:    Size  Location     Type
  1108 ;;  pin_cfg         2    6[BANK0 ] PTR const struct .
  1109 ;;		 -> led_int@pin_cfg(1), 
  1110 ;; Auto vars:     Size  Location     Type
  1111 ;;  return_statu    1    0        unsigned char 
  1112 ;; Return value:  Size  Location     Type
  1113 ;;                  1    wreg      unsigned char 
  1114 ;; Registers used:
  1115 ;;		wreg, fsr2l, fsr2h, status,2, status,0, prodl, prodh, cstack
  1116 ;; Tracked objects:
  1117 ;;		On entry : 0/0
  1118 ;;		On exit  : 0/0
  1119 ;;		Unchanged: 0/0
  1120 ;; Data sizes:     COMRAM   BANK0   BANK1   BANK2   BANK3   BANK4   BANK5   BANK6   BANK7   BANK8   BANK9  BANK10  BANK1
      +1  BANK12  BANK13  BANK14  BANK15
  1121 ;;      Params:         0       2       0       0       0       0       0       0       0       0       0       0       
      +0       0       0       0       0
  1122 ;;      Locals:         0       0       0       0       0       0       0       0       0       0       0       0       
      +0       0       0       0       0
  1123 ;;      Temps:          0       0       0       0       0       0       0       0       0       0       0       0       
      +0       0       0       0       0
  1124 ;;      Totals:         0       2       0       0       0       0       0       0       0       0       0       0       
      +0       0       0       0       0
  1125 ;;Total ram usage:        2 bytes
  1126 ;; Hardware stack levels used: 1
  1127 ;; Hardware stack levels required when called: 6
  1128 ;; This function calls:
  1129 ;;		_gpio_pin_direction_int
  1130 ;;		_gpio_pin_write_level
  1131 ;; This function is called by:
  1132 ;;		_led_int
  1133 ;;		_chr_lcd_4_int
  1134 ;;		_chr_lcd_8_int
  1135 ;;		_keypad_int
  1136 ;; This function uses a non-reentrant model
  1137 ;;
  1138                           
  1139                           	psect	text5
  1140   001928                     __ptext5:
  1141                           	callstack 0
  1142   001928                     _gpio_pin_int:
  1143                           	callstack 23
  1144   001928                     
  1145                           ;MCAL_Layer/GPIO/GPIO.c: 131:     if(((void*)0)!=pin_cfg)
  1146   001928  0100               	movlb	0	; () banked
  1147   00192A  5196               	movf	gpio_pin_int@pin_cfg& (0+255),w,b
  1148   00192C  1197               	iorwf	(gpio_pin_int@pin_cfg+1)& (0+255),w,b
  1149   00192E  B4D8               	btfsc	status,2,c
  1150   001930  EF9C  F00C         	goto	u3741
  1151   001934  EF9E  F00C         	goto	u3740
  1152   001938                     u3741:
  1153   001938  EFB3  F00C         	goto	l497
  1154   00193C                     u3740:
  1155   00193C                     
  1156                           ; BSR set to: 0
  1157                           ;MCAL_Layer/GPIO/GPIO.c: 132:     {;MCAL_Layer/GPIO/GPIO.c: 133:             gpio_pin_di
      +                          rection_int(pin_cfg);
  1158   00193C  C096  F06A         	movff	gpio_pin_int@pin_cfg,gpio_pin_direction_int@pin_cfg
  1159   001940  C097  F06B         	movff	gpio_pin_int@pin_cfg+1,gpio_pin_direction_int@pin_cfg+1
  1160   001944  EC13  F00A         	call	_gpio_pin_direction_int	;wreg free
  1161                           
  1162                           ;MCAL_Layer/GPIO/GPIO.c: 134:             gpio_pin_write_level(pin_cfg,pin_cfg->level);
  1163   001948  C096  F06A         	movff	gpio_pin_int@pin_cfg,gpio_pin_write_level@pin_cfg
  1164   00194C  C097  F06B         	movff	gpio_pin_int@pin_cfg+1,gpio_pin_write_level@pin_cfg+1
  1165   001950  C096  FFD9         	movff	gpio_pin_int@pin_cfg,fsr2l
  1166   001954  C097  FFDA         	movff	gpio_pin_int@pin_cfg+1,fsr2h
  1167   001958  0100               	movlb	0	; () banked
  1168   00195A  0E00               	movlw	0
  1169   00195C  B2DF               	btfsc	indf2,1,c
  1170   00195E  0E01               	movlw	1
  1171   001960  6E6C               	movwf	gpio_pin_write_level@level^0,c
  1172   001962  ECA2  F00A         	call	_gpio_pin_write_level	;wreg free
  1173   001966                     l497:
  1174   001966  0012               	return		;funcret
  1175   001968                     __end_of_gpio_pin_int:
  1176                           	callstack 0
  1177                           
  1178 ;; *************** function _gpio_pin_write_level *****************
  1179 ;; Defined at:
  1180 ;;		line 67 in file "MCAL_Layer/GPIO/GPIO.c"
  1181 ;; Parameters:    Size  Location     Type
  1182 ;;  pin_cfg         2   17[COMRAM] PTR const struct .
  1183 ;;		 -> relay_off@relay_pin(1), relay_on@relay_pin(1), relay_int@relay_pin(1), led_off@pin_cfg(1), 
  1184 ;;		 -> led_on@pin_cfg(1), led_int@pin_cfg(1), 
  1185 ;;  level           1   19[COMRAM] enum E2974
  1186 ;; Auto vars:     Size  Location     Type
  1187 ;;  return_statu    1    0        unsigned char 
  1188 ;; Return value:  Size  Location     Type
  1189 ;;                  1    wreg      unsigned char 
  1190 ;; Registers used:
  1191 ;;		wreg, fsr2l, fsr2h, status,2, status,0, prodl, prodh
  1192 ;; Tracked objects:
  1193 ;;		On entry : 0/0
  1194 ;;		On exit  : 0/0
  1195 ;;		Unchanged: 0/0
  1196 ;; Data sizes:     COMRAM   BANK0   BANK1   BANK2   BANK3   BANK4   BANK5   BANK6   BANK7   BANK8   BANK9  BANK10  BANK1
      +1  BANK12  BANK13  BANK14  BANK15
  1197 ;;      Params:         3       0       0       0       0       0       0       0       0       0       0       0       
      +0       0       0       0       0
  1198 ;;      Locals:         0       0       0       0       0       0       0       0       0       0       0       0       
      +0       0       0       0       0
  1199 ;;      Temps:          0       6       0       0       0       0       0       0       0       0       0       0       
      +0       0       0       0       0
  1200 ;;      Totals:         3       6       0       0       0       0       0       0       0       0       0       0       
      +0       0       0       0       0
  1201 ;;Total ram usage:        9 bytes
  1202 ;; Hardware stack levels used: 1
  1203 ;; Hardware stack levels required when called: 5
  1204 ;; This function calls:
  1205 ;;		Nothing
  1206 ;; This function is called by:
  1207 ;;		_gpio_pin_int
  1208 ;;		_chr_lcd_4_send_cmd
  1209 ;;		_chr_lcd_4_send_char
  1210 ;;		_chr_lcd_4_send_char_pos
  1211 ;;		_chr_lcd_8_send_cmd
  1212 ;;		_chr_lcd_8_send_char
  1213 ;;		_chr_lcd_8_send_char_pos
  1214 ;;		_lcd_send_4_bit
  1215 ;;		_lcd_send_4_bit_enable
  1216 ;;		_lcd_send_8_bit_enable
  1217 ;;		_motor_int
  1218 ;;		_motor_right
  1219 ;;		_motor_left
  1220 ;;		_motor_stop
  1221 ;;		_keypad_get_value
  1222 ;;		_led_on
  1223 ;;		_led_off
  1224 ;;		_relay_int
  1225 ;;		_relay_on
  1226 ;;		_relay_off
  1227 ;;		_seven_segment_int
  1228 ;;		_seven_segment_write_number
  1229 ;; This function uses a non-reentrant model
  1230 ;;
  1231                           
  1232                           	psect	text6
  1233   001544                     __ptext6:
  1234                           	callstack 0
  1235   001544                     _gpio_pin_write_level:
  1236                           	callstack 23
  1237   001544                     
  1238                           ;MCAL_Layer/GPIO/GPIO.c: 71:     if(((void*)0)!=pin_cfg)
  1239   001544  506A               	movf	gpio_pin_write_level@pin_cfg^0,w,c
  1240   001546  106B               	iorwf	(gpio_pin_write_level@pin_cfg+1)^0,w,c
  1241   001548  B4D8               	btfsc	status,2,c
  1242   00154A  EFA9  F00A         	goto	u3691
  1243   00154E  EFAB  F00A         	goto	u3690
  1244   001552                     u3691:
  1245   001552  EF24  F00B         	goto	l485
  1246   001556                     u3690:
  1247   001556  EF0E  F00B         	goto	l4389
  1248   00155A                     l4381:
  1249                           
  1250                           ; BSR set to: 0
  1251                           ;MCAL_Layer/GPIO/GPIO.c: 77:                  (*(Lat_Regs[pin_cfg->port])|=(1<<pin_cfg->
      +                          pin));
  1252   00155A  C06A  FFD9         	movff	gpio_pin_write_level@pin_cfg,fsr2l
  1253   00155E  C06B  FFDA         	movff	gpio_pin_write_level@pin_cfg+1,fsr2h
  1254   001562  30DF               	rrcf	223,w,c
  1255   001564  32E8               	rrcf	wreg,f,c
  1256   001566  0B07               	andlw	7
  1257   001568  6F90               	movwf	??_gpio_pin_write_level& (0+255),b
  1258   00156A  0E01               	movlw	1
  1259   00156C  6F91               	movwf	(??_gpio_pin_write_level+1)& (0+255),b
  1260   00156E  2B90               	incf	??_gpio_pin_write_level& (0+255),f,b
  1261   001570  EFBC  F00A         	goto	u3704
  1262   001574                     u3705:
  1263   001574  90D8               	bcf	status,0,c
  1264   001576  3791               	rlcf	(??_gpio_pin_write_level+1)& (0+255),f,b
  1265   001578                     u3704:
  1266   001578  2F90               	decfsz	??_gpio_pin_write_level& (0+255),f,b
  1267   00157A  EFBA  F00A         	goto	u3705
  1268   00157E  C06A  FFD9         	movff	gpio_pin_write_level@pin_cfg,fsr2l
  1269   001582  C06B  FFDA         	movff	gpio_pin_write_level@pin_cfg+1,fsr2h
  1270   001586  38DF               	swapf	223,w,c
  1271   001588  32E8               	rrcf	wreg,f,c
  1272   00158A  0B07               	andlw	7
  1273   00158C  0100               	movlb	0	; () banked
  1274   00158E  6F92               	movwf	(??_gpio_pin_write_level+2)& (0+255),b
  1275   001590  5192               	movf	(??_gpio_pin_write_level+2)& (0+255),w,b
  1276   001592  0D02               	mullw	2
  1277   001594  0E39               	movlw	low _Lat_Regs
  1278   001596  24F3               	addwf	243,w,c
  1279   001598  6ED9               	movwf	fsr2l,c
  1280   00159A  0E00               	movlw	high _Lat_Regs
  1281   00159C  20F4               	addwfc	prodh,w,c
  1282   00159E  6EDA               	movwf	fsr2h,c
  1283   0015A0  CFDE F093          	movff	postinc2,??_gpio_pin_write_level+3
  1284   0015A4  CFDD F094          	movff	postdec2,??_gpio_pin_write_level+4
  1285   0015A8  C093  FFD9         	movff	??_gpio_pin_write_level+3,fsr2l
  1286   0015AC  C094  FFDA         	movff	??_gpio_pin_write_level+4,fsr2h
  1287   0015B0  5191               	movf	(??_gpio_pin_write_level+1)& (0+255),w,b
  1288   0015B2  12DF               	iorwf	indf2,f,c
  1289                           
  1290                           ;MCAL_Layer/GPIO/GPIO.c: 79:                 break;
  1291   0015B4  EF24  F00B         	goto	l485
  1292   0015B8                     l4383:
  1293                           
  1294                           ; BSR set to: 0
  1295                           ;MCAL_Layer/GPIO/GPIO.c: 82:                 (*Lat_Regs[pin_cfg->port]&=~(1<<pin_cfg->pi
      +                          n));
  1296   0015B8  C06A  FFD9         	movff	gpio_pin_write_level@pin_cfg,fsr2l
  1297   0015BC  C06B  FFDA         	movff	gpio_pin_write_level@pin_cfg+1,fsr2h
  1298   0015C0  30DF               	rrcf	223,w,c
  1299   0015C2  32E8               	rrcf	wreg,f,c
  1300   0015C4  0B07               	andlw	7
  1301   0015C6  6F90               	movwf	??_gpio_pin_write_level& (0+255),b
  1302   0015C8  0E01               	movlw	1
  1303   0015CA  6F91               	movwf	(??_gpio_pin_write_level+1)& (0+255),b
  1304   0015CC  2B90               	incf	??_gpio_pin_write_level& (0+255),f,b
  1305   0015CE  EFEB  F00A         	goto	u3714
  1306   0015D2                     u3715:
  1307   0015D2  90D8               	bcf	status,0,c
  1308   0015D4  3791               	rlcf	(??_gpio_pin_write_level+1)& (0+255),f,b
  1309   0015D6                     u3714:
  1310   0015D6  2F90               	decfsz	??_gpio_pin_write_level& (0+255),f,b
  1311   0015D8  EFE9  F00A         	goto	u3715
  1312   0015DC  0100               	movlb	0	; () banked
  1313   0015DE  5191               	movf	(??_gpio_pin_write_level+1)& (0+255),w,b
  1314   0015E0  0AFF               	xorlw	255
  1315   0015E2  6F92               	movwf	(??_gpio_pin_write_level+2)& (0+255),b
  1316   0015E4  C06A  FFD9         	movff	gpio_pin_write_level@pin_cfg,fsr2l
  1317   0015E8  C06B  FFDA         	movff	gpio_pin_write_level@pin_cfg+1,fsr2h
  1318   0015EC  38DF               	swapf	223,w,c
  1319   0015EE  32E8               	rrcf	wreg,f,c
  1320   0015F0  0B07               	andlw	7
  1321   0015F2  6F93               	movwf	(??_gpio_pin_write_level+3)& (0+255),b
  1322   0015F4  5193               	movf	(??_gpio_pin_write_level+3)& (0+255),w,b
  1323   0015F6  0D02               	mullw	2
  1324   0015F8  0E39               	movlw	low _Lat_Regs
  1325   0015FA  24F3               	addwf	243,w,c
  1326   0015FC  6ED9               	movwf	fsr2l,c
  1327   0015FE  0E00               	movlw	high _Lat_Regs
  1328   001600  20F4               	addwfc	prodh,w,c
  1329   001602  6EDA               	movwf	fsr2h,c
  1330   001604  CFDE F094          	movff	postinc2,??_gpio_pin_write_level+4
  1331   001608  CFDD F095          	movff	postdec2,??_gpio_pin_write_level+5
  1332   00160C  C094  FFD9         	movff	??_gpio_pin_write_level+4,fsr2l
  1333   001610  C095  FFDA         	movff	??_gpio_pin_write_level+5,fsr2h
  1334   001614  5192               	movf	(??_gpio_pin_write_level+2)& (0+255),w,b
  1335   001616  16DF               	andwf	indf2,f,c
  1336   001618                     
  1337                           ; BSR set to: 0
  1338                           ;MCAL_Layer/GPIO/GPIO.c: 84:                 break;
  1339   001618  EF24  F00B         	goto	l485
  1340   00161C                     l4389:
  1341   00161C  506C               	movf	gpio_pin_write_level@level^0,w,c
  1342   00161E  0100               	movlb	0	; () banked
  1343   001620  6F90               	movwf	??_gpio_pin_write_level& (0+255),b
  1344   001622  6B91               	clrf	(??_gpio_pin_write_level+1)& (0+255),b
  1345                           
  1346                           ; Switch on 2 bytes has been partitioned into a top level switch of size 1, and 1 sub-sw
      +                          itches
  1347                           ; Switch size 1, requested type "simple"
  1348                           ; Number of cases is 1, Range of values is 0 to 0
  1349                           ; switch strategies available:
  1350                           ; Name         Instructions Cycles
  1351                           ; simple_byte            4     3 (average)
  1352                           ;	Chosen strategy is simple_byte
  1353   001624  5191               	movf	(??_gpio_pin_write_level+1)& (0+255),w,b
  1354   001626  0A00               	xorlw	0	; case 0
  1355   001628  B4D8               	btfsc	status,2,c
  1356   00162A  EF19  F00B         	goto	l5329
  1357   00162E  EF24  F00B         	goto	l485
  1358   001632                     l5329:
  1359                           
  1360                           ; BSR set to: 0
  1361                           ; Switch size 1, requested type "simple"
  1362                           ; Number of cases is 2, Range of values is 0 to 1
  1363                           ; switch strategies available:
  1364                           ; Name         Instructions Cycles
  1365                           ; simple_byte            7     4 (average)
  1366                           ;	Chosen strategy is simple_byte
  1367   001632  5190               	movf	??_gpio_pin_write_level& (0+255),w,b
  1368   001634  0A00               	xorlw	0	; case 0
  1369   001636  B4D8               	btfsc	status,2,c
  1370   001638  EFDC  F00A         	goto	l4383
  1371   00163C  0A01               	xorlw	1	; case 1
  1372   00163E  B4D8               	btfsc	status,2,c
  1373   001640  EFAD  F00A         	goto	l4381
  1374   001644  EF24  F00B         	goto	l485
  1375   001648                     l485:
  1376   001648  0012               	return		;funcret
  1377   00164A                     __end_of_gpio_pin_write_level:
  1378                           	callstack 0
  1379                           
  1380 ;; *************** function _gpio_pin_direction_int *****************
  1381 ;; Defined at:
  1382 ;;		line 14 in file "MCAL_Layer/GPIO/GPIO.c"
  1383 ;; Parameters:    Size  Location     Type
  1384 ;;  pin_cfg         2   17[COMRAM] PTR const struct .
  1385 ;;		 -> relay_int@relay_pin(1), led_int@pin_cfg(1), 
  1386 ;; Auto vars:     Size  Location     Type
  1387 ;;  return_statu    1    0        unsigned char 
  1388 ;; Return value:  Size  Location     Type
  1389 ;;                  1    wreg      unsigned char 
  1390 ;; Registers used:
  1391 ;;		wreg, fsr2l, fsr2h, status,2, status,0, prodl, prodh
  1392 ;; Tracked objects:
  1393 ;;		On entry : 0/0
  1394 ;;		On exit  : 0/0
  1395 ;;		Unchanged: 0/0
  1396 ;; Data sizes:     COMRAM   BANK0   BANK1   BANK2   BANK3   BANK4   BANK5   BANK6   BANK7   BANK8   BANK9  BANK10  BANK1
      +1  BANK12  BANK13  BANK14  BANK15
  1397 ;;      Params:         2       0       0       0       0       0       0       0       0       0       0       0       
      +0       0       0       0       0
  1398 ;;      Locals:         0       0       0       0       0       0       0       0       0       0       0       0       
      +0       0       0       0       0
  1399 ;;      Temps:          0       6       0       0       0       0       0       0       0       0       0       0       
      +0       0       0       0       0
  1400 ;;      Totals:         2       6       0       0       0       0       0       0       0       0       0       0       
      +0       0       0       0       0
  1401 ;;Total ram usage:        8 bytes
  1402 ;; Hardware stack levels used: 1
  1403 ;; Hardware stack levels required when called: 5
  1404 ;; This function calls:
  1405 ;;		Nothing
  1406 ;; This function is called by:
  1407 ;;		_gpio_pin_int
  1408 ;;		_button_int
  1409 ;;		_motor_int
  1410 ;;		_keypad_int
  1411 ;;		_relay_int
  1412 ;;		_seven_segment_int
  1413 ;;		_interrupt_rbx_int
  1414 ;;		_interrupt_intx_pin
  1415 ;; This function uses a non-reentrant model
  1416 ;;
  1417                           
  1418                           	psect	text7
  1419   001426                     __ptext7:
  1420                           	callstack 0
  1421   001426                     _gpio_pin_direction_int:
  1422                           	callstack 23
  1423   001426                     
  1424                           ;MCAL_Layer/GPIO/GPIO.c: 17:     if(((void*)0)!=pin_cfg)
  1425   001426  506A               	movf	gpio_pin_direction_int@pin_cfg^0,w,c
  1426   001428  106B               	iorwf	(gpio_pin_direction_int@pin_cfg+1)^0,w,c
  1427   00142A  B4D8               	btfsc	status,2,c
  1428   00142C  EF1A  F00A         	goto	u3641
  1429   001430  EF1C  F00A         	goto	u3640
  1430   001434                     u3641:
  1431   001434  EFA1  F00A         	goto	l473
  1432   001438                     u3640:
  1433   001438  EF7F  F00A         	goto	l4367
  1434   00143C                     l4357:
  1435                           
  1436                           ; BSR set to: 0
  1437                           ;MCAL_Layer/GPIO/GPIO.c: 22:                 (*Tris_Regs[pin_cfg->port]&=~(1<<pin_cfg->p
      +                          in));
  1438   00143C  C06A  FFD9         	movff	gpio_pin_direction_int@pin_cfg,fsr2l
  1439   001440  C06B  FFDA         	movff	gpio_pin_direction_int@pin_cfg+1,fsr2h
  1440   001444  30DF               	rrcf	223,w,c
  1441   001446  32E8               	rrcf	wreg,f,c
  1442   001448  0B07               	andlw	7
  1443   00144A  6F90               	movwf	??_gpio_pin_direction_int& (0+255),b
  1444   00144C  0E01               	movlw	1
  1445   00144E  6F91               	movwf	(??_gpio_pin_direction_int+1)& (0+255),b
  1446   001450  2B90               	incf	??_gpio_pin_direction_int& (0+255),f,b
  1447   001452  EF2D  F00A         	goto	u3654
  1448   001456                     u3655:
  1449   001456  90D8               	bcf	status,0,c
  1450   001458  3791               	rlcf	(??_gpio_pin_direction_int+1)& (0+255),f,b
  1451   00145A                     u3654:
  1452   00145A  2F90               	decfsz	??_gpio_pin_direction_int& (0+255),f,b
  1453   00145C  EF2B  F00A         	goto	u3655
  1454   001460  0100               	movlb	0	; () banked
  1455   001462  5191               	movf	(??_gpio_pin_direction_int+1)& (0+255),w,b
  1456   001464  0AFF               	xorlw	255
  1457   001466  6F92               	movwf	(??_gpio_pin_direction_int+2)& (0+255),b
  1458   001468  C06A  FFD9         	movff	gpio_pin_direction_int@pin_cfg,fsr2l
  1459   00146C  C06B  FFDA         	movff	gpio_pin_direction_int@pin_cfg+1,fsr2h
  1460   001470  38DF               	swapf	223,w,c
  1461   001472  32E8               	rrcf	wreg,f,c
  1462   001474  0B07               	andlw	7
  1463   001476  6F93               	movwf	(??_gpio_pin_direction_int+3)& (0+255),b
  1464   001478  5193               	movf	(??_gpio_pin_direction_int+3)& (0+255),w,b
  1465   00147A  0D02               	mullw	2
  1466   00147C  0E2F               	movlw	low _Tris_Regs
  1467   00147E  24F3               	addwf	243,w,c
  1468   001480  6ED9               	movwf	fsr2l,c
  1469   001482  0E00               	movlw	high _Tris_Regs
  1470   001484  20F4               	addwfc	prodh,w,c
  1471   001486  6EDA               	movwf	fsr2h,c
  1472   001488  CFDE F094          	movff	postinc2,??_gpio_pin_direction_int+4
  1473   00148C  CFDD F095          	movff	postdec2,??_gpio_pin_direction_int+5
  1474   001490  C094  FFD9         	movff	??_gpio_pin_direction_int+4,fsr2l
  1475   001494  C095  FFDA         	movff	??_gpio_pin_direction_int+5,fsr2h
  1476   001498  5192               	movf	(??_gpio_pin_direction_int+2)& (0+255),w,b
  1477   00149A  16DF               	andwf	indf2,f,c
  1478   00149C                     l4359:
  1479                           
  1480                           ; BSR set to: 0
  1481                           ;MCAL_Layer/GPIO/GPIO.c: 24:                 break;
  1482   00149C  EFA1  F00A         	goto	l473
  1483   0014A0                     l4361:
  1484                           
  1485                           ; BSR set to: 0
  1486                           ;MCAL_Layer/GPIO/GPIO.c: 27:                 (*Tris_Regs[pin_cfg->port]|=(1<<pin_cfg->pi
      +                          n));
  1487   0014A0  C06A  FFD9         	movff	gpio_pin_direction_int@pin_cfg,fsr2l
  1488   0014A4  C06B  FFDA         	movff	gpio_pin_direction_int@pin_cfg+1,fsr2h
  1489   0014A8  30DF               	rrcf	223,w,c
  1490   0014AA  32E8               	rrcf	wreg,f,c
  1491   0014AC  0B07               	andlw	7
  1492   0014AE  6F90               	movwf	??_gpio_pin_direction_int& (0+255),b
  1493   0014B0  0E01               	movlw	1
  1494   0014B2  6F91               	movwf	(??_gpio_pin_direction_int+1)& (0+255),b
  1495   0014B4  2B90               	incf	??_gpio_pin_direction_int& (0+255),f,b
  1496   0014B6  EF5F  F00A         	goto	u3664
  1497   0014BA                     u3665:
  1498   0014BA  90D8               	bcf	status,0,c
  1499   0014BC  3791               	rlcf	(??_gpio_pin_direction_int+1)& (0+255),f,b
  1500   0014BE                     u3664:
  1501   0014BE  2F90               	decfsz	??_gpio_pin_direction_int& (0+255),f,b
  1502   0014C0  EF5D  F00A         	goto	u3665
  1503   0014C4  C06A  FFD9         	movff	gpio_pin_direction_int@pin_cfg,fsr2l
  1504   0014C8  C06B  FFDA         	movff	gpio_pin_direction_int@pin_cfg+1,fsr2h
  1505   0014CC  38DF               	swapf	223,w,c
  1506   0014CE  32E8               	rrcf	wreg,f,c
  1507   0014D0  0B07               	andlw	7
  1508   0014D2  0100               	movlb	0	; () banked
  1509   0014D4  6F92               	movwf	(??_gpio_pin_direction_int+2)& (0+255),b
  1510   0014D6  5192               	movf	(??_gpio_pin_direction_int+2)& (0+255),w,b
  1511   0014D8  0D02               	mullw	2
  1512   0014DA  0E2F               	movlw	low _Tris_Regs
  1513   0014DC  24F3               	addwf	243,w,c
  1514   0014DE  6ED9               	movwf	fsr2l,c
  1515   0014E0  0E00               	movlw	high _Tris_Regs
  1516   0014E2  20F4               	addwfc	prodh,w,c
  1517   0014E4  6EDA               	movwf	fsr2h,c
  1518   0014E6  CFDE F093          	movff	postinc2,??_gpio_pin_direction_int+3
  1519   0014EA  CFDD F094          	movff	postdec2,??_gpio_pin_direction_int+4
  1520   0014EE  C093  FFD9         	movff	??_gpio_pin_direction_int+3,fsr2l
  1521   0014F2  C094  FFDA         	movff	??_gpio_pin_direction_int+4,fsr2h
  1522   0014F6  5191               	movf	(??_gpio_pin_direction_int+1)& (0+255),w,b
  1523   0014F8  12DF               	iorwf	indf2,f,c
  1524   0014FA  EF4E  F00A         	goto	l4359
  1525   0014FE                     l4367:
  1526   0014FE  C06A  FFD9         	movff	gpio_pin_direction_int@pin_cfg,fsr2l
  1527   001502  C06B  FFDA         	movff	gpio_pin_direction_int@pin_cfg+1,fsr2h
  1528   001506  B0DF               	btfsc	indf2,0,c
  1529   001508  EF88  F00A         	goto	u3671
  1530   00150C  EF8B  F00A         	goto	u3670
  1531   001510                     u3671:
  1532   001510  0E01               	movlw	1
  1533   001512  EF8C  F00A         	goto	u3680
  1534   001516                     u3670:
  1535   001516  0E00               	movlw	0
  1536   001518                     u3680:
  1537   001518  0100               	movlb	0	; () banked
  1538   00151A  6F90               	movwf	??_gpio_pin_direction_int& (0+255),b
  1539   00151C  6B91               	clrf	(??_gpio_pin_direction_int+1)& (0+255),b
  1540                           
  1541                           ; Switch on 2 bytes has been partitioned into a top level switch of size 1, and 1 sub-sw
      +                          itches
  1542                           ; Switch size 1, requested type "simple"
  1543                           ; Number of cases is 1, Range of values is 0 to 0
  1544                           ; switch strategies available:
  1545                           ; Name         Instructions Cycles
  1546                           ; simple_byte            4     3 (average)
  1547                           ;	Chosen strategy is simple_byte
  1548   00151E  5191               	movf	(??_gpio_pin_direction_int+1)& (0+255),w,b
  1549   001520  0A00               	xorlw	0	; case 0
  1550   001522  B4D8               	btfsc	status,2,c
  1551   001524  EF96  F00A         	goto	l5331
  1552   001528  EFA1  F00A         	goto	l473
  1553   00152C                     l5331:
  1554                           
  1555                           ; BSR set to: 0
  1556                           ; Switch size 1, requested type "simple"
  1557                           ; Number of cases is 2, Range of values is 0 to 1
  1558                           ; switch strategies available:
  1559                           ; Name         Instructions Cycles
  1560                           ; simple_byte            7     4 (average)
  1561                           ;	Chosen strategy is simple_byte
  1562   00152C  5190               	movf	??_gpio_pin_direction_int& (0+255),w,b
  1563   00152E  0A00               	xorlw	0	; case 0
  1564   001530  B4D8               	btfsc	status,2,c
  1565   001532  EF1E  F00A         	goto	l4357
  1566   001536  0A01               	xorlw	1	; case 1
  1567   001538  B4D8               	btfsc	status,2,c
  1568   00153A  EF50  F00A         	goto	l4361
  1569   00153E  EFA1  F00A         	goto	l473
  1570   001542                     l473:
  1571   001542  0012               	return		;funcret
  1572   001544                     __end_of_gpio_pin_direction_int:
  1573                           	callstack 0
  1574                           
  1575 ;; *************** function _InterruptManagmentHigh *****************
  1576 ;; Defined at:
  1577 ;;		line 69 in file "MCAL_Layer/Interrupt/Interrupt_managment.c"
  1578 ;; Parameters:    Size  Location     Type
  1579 ;;		None
  1580 ;; Auto vars:     Size  Location     Type
  1581 ;;		None
  1582 ;; Return value:  Size  Location     Type
  1583 ;;                  1    wreg      void 
  1584 ;; Registers used:
  1585 ;;		wreg, fsr2l, fsr2h, status,2, status,0, pcl, pclath, pclatu, tosl, prodl, prodh, cstack
  1586 ;; Tracked objects:
  1587 ;;		On entry : 0/0
  1588 ;;		On exit  : 0/0
  1589 ;;		Unchanged: 0/0
  1590 ;; Data sizes:     COMRAM   BANK0   BANK1   BANK2   BANK3   BANK4   BANK5   BANK6   BANK7   BANK8   BANK9  BANK10  BANK1
      +1  BANK12  BANK13  BANK14  BANK15
  1591 ;;      Params:         0       0       0       0       0       0       0       0       0       0       0       0       
      +0       0       0       0       0
  1592 ;;      Locals:         0       0       0       0       0       0       0       0       0       0       0       0       
      +0       0       0       0       0
  1593 ;;      Temps:          6       0       0       0       0       0       0       0       0       0       0       0       
      +0       0       0       0       0
  1594 ;;      Totals:         6       0       0       0       0       0       0       0       0       0       0       0       
      +0       0       0       0       0
  1595 ;;Total ram usage:        6 bytes
  1596 ;; Hardware stack levels used: 1
  1597 ;; Hardware stack levels required when called: 4
  1598 ;; This function calls:
  1599 ;;		_ADC_ISR
  1600 ;;		_INT0_ISR
  1601 ;;		_INT1_ISR
  1602 ;;		_INT2_ISR
  1603 ;;		_RB4_ISR
  1604 ;;		_RB5_ISR
  1605 ;;		_RB6_ISR
  1606 ;;		_RB7_ISR
  1607 ;;		_TIMER0_ISR
  1608 ;; This function is called by:
  1609 ;;		Interrupt level 2
  1610 ;; This function uses a non-reentrant model
  1611 ;;
  1612                           
  1613                           	psect	intcode
  1614   000008                     __pintcode:
  1615                           	callstack 0
  1616   000008                     _InterruptManagmentHigh:
  1617                           	callstack 23
  1618                           
  1619                           ;incstack = 0
  1620   000008  826E               	bsf	int$flags,1,c	;set compiler interrupt flag (level 2)
  1621   00000A  ED03  F008         	call	int_func,f	;refresh shadow registers
  1622                           
  1623                           	psect	intcode_body
  1624   001006                     __pintcode_body:
  1625                           	callstack 23
  1626   001006                     int_func:
  1627                           	callstack 23
  1628   001006  0006               	pop		; remove dummy address from shadow register refresh
  1629   001008  CFFA F064          	movff	pclath,??_InterruptManagmentHigh
  1630   00100C  CFFB F065          	movff	pclatu,??_InterruptManagmentHigh+1
  1631   001010  CFD9 F066          	movff	fsr2l,??_InterruptManagmentHigh+2
  1632   001014  CFDA F067          	movff	fsr2h,??_InterruptManagmentHigh+3
  1633   001018  CFF3 F068          	movff	prodl,??_InterruptManagmentHigh+4
  1634   00101C  CFF4 F069          	movff	prodh,??_InterruptManagmentHigh+5
  1635   001020                     
  1636                           ;MCAL_Layer/Interrupt/Interrupt_managment.c: 76: if(INTCONbits.INT0IE==1 && INTCONbits.I
      +                          NT0IF==1){
  1637   001020  A8F2               	btfss	242,4,c	;volatile
  1638   001022  EF15  F008         	goto	i2u444_41
  1639   001026  EF17  F008         	goto	i2u444_40
  1640   00102A                     i2u444_41:
  1641   00102A  EF20  F008         	goto	i2l5081
  1642   00102E                     i2u444_40:
  1643   00102E  A2F2               	btfss	242,1,c	;volatile
  1644   001030  EF1C  F008         	goto	i2u445_41
  1645   001034  EF1E  F008         	goto	i2u445_40
  1646   001038                     i2u445_41:
  1647   001038  EF20  F008         	goto	i2l5081
  1648   00103C                     i2u445_40:
  1649   00103C                     
  1650                           ;MCAL_Layer/Interrupt/Interrupt_managment.c: 77:         INT0_ISR();
  1651   00103C  EC2B  F00D         	call	_INT0_ISR	;wreg free
  1652   001040                     i2l5081:
  1653                           
  1654                           ;MCAL_Layer/Interrupt/Interrupt_managment.c: 79:      if(INTCON3bits.INT1IE==1 && INTCON
      +                          3bits.INT1IF==1){
  1655   001040  A6F0               	btfss	240,3,c	;volatile
  1656   001042  EF25  F008         	goto	i2u446_41
  1657   001046  EF27  F008         	goto	i2u446_40
  1658   00104A                     i2u446_41:
  1659   00104A  EF30  F008         	goto	i2l5087
  1660   00104E                     i2u446_40:
  1661   00104E  A0F0               	btfss	240,0,c	;volatile
  1662   001050  EF2C  F008         	goto	i2u447_41
  1663   001054  EF2E  F008         	goto	i2u447_40
  1664   001058                     i2u447_41:
  1665   001058  EF30  F008         	goto	i2l5087
  1666   00105C                     i2u447_40:
  1667   00105C                     
  1668                           ;MCAL_Layer/Interrupt/Interrupt_managment.c: 80:         INT1_ISR();
  1669   00105C  EC29  F00D         	call	_INT1_ISR	;wreg free
  1670   001060                     i2l5087:
  1671                           
  1672                           ;MCAL_Layer/Interrupt/Interrupt_managment.c: 82:      if(INTCON3bits.INT2IE==1 && INTCON
      +                          3bits.INT2IF==1){
  1673   001060  A8F0               	btfss	240,4,c	;volatile
  1674   001062  EF35  F008         	goto	i2u448_41
  1675   001066  EF37  F008         	goto	i2u448_40
  1676   00106A                     i2u448_41:
  1677   00106A  EF40  F008         	goto	i2l5093
  1678   00106E                     i2u448_40:
  1679   00106E  A2F0               	btfss	240,1,c	;volatile
  1680   001070  EF3C  F008         	goto	i2u449_41
  1681   001074  EF3E  F008         	goto	i2u449_40
  1682   001078                     i2u449_41:
  1683   001078  EF40  F008         	goto	i2l5093
  1684   00107C                     i2u449_40:
  1685   00107C                     
  1686                           ;MCAL_Layer/Interrupt/Interrupt_managment.c: 83:     INT2_ISR();
  1687   00107C  EC27  F00D         	call	_INT2_ISR	;wreg free
  1688   001080                     i2l5093:
  1689                           
  1690                           ;MCAL_Layer/Interrupt/Interrupt_managment.c: 86:     if((INTCONbits.RBIE==1 && INTCONbit
      +                          s.RBIF==1)&& (PORTBbits.RB4==1)&&(flage_4==1)){
  1691   001080  A6F2               	btfss	242,3,c	;volatile
  1692   001082  EF45  F008         	goto	i2u450_41
  1693   001086  EF47  F008         	goto	i2u450_40
  1694   00108A                     i2u450_41:
  1695   00108A  EF62  F008         	goto	i2l5105
  1696   00108E                     i2u450_40:
  1697   00108E  A0F2               	btfss	242,0,c	;volatile
  1698   001090  EF4C  F008         	goto	i2u451_41
  1699   001094  EF4E  F008         	goto	i2u451_40
  1700   001098                     i2u451_41:
  1701   001098  EF62  F008         	goto	i2l5105
  1702   00109C                     i2u451_40:
  1703   00109C  A881               	btfss	129,4,c	;volatile
  1704   00109E  EF53  F008         	goto	i2u452_41
  1705   0010A2  EF55  F008         	goto	i2u452_40
  1706   0010A6                     i2u452_41:
  1707   0010A6  EF62  F008         	goto	i2l5105
  1708   0010AA                     i2u452_40:
  1709   0010AA  0457               	decf	_flage_4^0,w,c	;volatile
  1710   0010AC  A4D8               	btfss	status,2,c
  1711   0010AE  EF5B  F008         	goto	i2u453_41
  1712   0010B2  EF5D  F008         	goto	i2u453_40
  1713   0010B6                     i2u453_41:
  1714   0010B6  EF62  F008         	goto	i2l5105
  1715   0010BA                     i2u453_40:
  1716   0010BA                     
  1717                           ;MCAL_Layer/Interrupt/Interrupt_managment.c: 87:         flage_4=0;
  1718   0010BA  0E00               	movlw	0
  1719   0010BC  6E57               	movwf	_flage_4^0,c	;volatile
  1720   0010BE                     
  1721                           ;MCAL_Layer/Interrupt/Interrupt_managment.c: 88:     RB4_ISR(1);
  1722   0010BE  0E01               	movlw	1
  1723   0010C0  EC0B  F00D         	call	_RB4_ISR
  1724   0010C4                     i2l5105:
  1725                           
  1726                           ;MCAL_Layer/Interrupt/Interrupt_managment.c: 90:     if((INTCONbits.RBIE==1 && INTCONbit
      +                          s.RBIF==1)&& (PORTBbits.RB4==0)&&(flage_4==0)){
  1727   0010C4  A6F2               	btfss	242,3,c	;volatile
  1728   0010C6  EF67  F008         	goto	i2u454_41
  1729   0010CA  EF69  F008         	goto	i2u454_40
  1730   0010CE                     i2u454_41:
  1731   0010CE  EF84  F008         	goto	i2l5117
  1732   0010D2                     i2u454_40:
  1733   0010D2  A0F2               	btfss	242,0,c	;volatile
  1734   0010D4  EF6E  F008         	goto	i2u455_41
  1735   0010D8  EF70  F008         	goto	i2u455_40
  1736   0010DC                     i2u455_41:
  1737   0010DC  EF84  F008         	goto	i2l5117
  1738   0010E0                     i2u455_40:
  1739   0010E0  B881               	btfsc	129,4,c	;volatile
  1740   0010E2  EF75  F008         	goto	i2u456_41
  1741   0010E6  EF77  F008         	goto	i2u456_40
  1742   0010EA                     i2u456_41:
  1743   0010EA  EF84  F008         	goto	i2l5117
  1744   0010EE                     i2u456_40:
  1745   0010EE  5057               	movf	_flage_4^0,w,c	;volatile
  1746   0010F0  A4D8               	btfss	status,2,c
  1747   0010F2  EF7D  F008         	goto	i2u457_41
  1748   0010F6  EF7F  F008         	goto	i2u457_40
  1749   0010FA                     i2u457_41:
  1750   0010FA  EF84  F008         	goto	i2l5117
  1751   0010FE                     i2u457_40:
  1752   0010FE                     
  1753                           ;MCAL_Layer/Interrupt/Interrupt_managment.c: 91:         flage_4=1;
  1754   0010FE  0E01               	movlw	1
  1755   001100  6E57               	movwf	_flage_4^0,c	;volatile
  1756   001102                     
  1757                           ;MCAL_Layer/Interrupt/Interrupt_managment.c: 92:     RB4_ISR(0);
  1758   001102  0E00               	movlw	0
  1759   001104  EC0B  F00D         	call	_RB4_ISR
  1760   001108                     i2l5117:
  1761                           
  1762                           ;MCAL_Layer/Interrupt/Interrupt_managment.c: 95:     if((INTCONbits.RBIE==1 && INTCONbit
      +                          s.RBIF==1)&& (PORTBbits.RB5==1)&&(flage_5==1)){
  1763   001108  A6F2               	btfss	242,3,c	;volatile
  1764   00110A  EF89  F008         	goto	i2u458_41
  1765   00110E  EF8B  F008         	goto	i2u458_40
  1766   001112                     i2u458_41:
  1767   001112  EFA6  F008         	goto	i2l5129
  1768   001116                     i2u458_40:
  1769   001116  A0F2               	btfss	242,0,c	;volatile
  1770   001118  EF90  F008         	goto	i2u459_41
  1771   00111C  EF92  F008         	goto	i2u459_40
  1772   001120                     i2u459_41:
  1773   001120  EFA6  F008         	goto	i2l5129
  1774   001124                     i2u459_40:
  1775   001124  AA81               	btfss	129,5,c	;volatile
  1776   001126  EF97  F008         	goto	i2u460_41
  1777   00112A  EF99  F008         	goto	i2u460_40
  1778   00112E                     i2u460_41:
  1779   00112E  EFA6  F008         	goto	i2l5129
  1780   001132                     i2u460_40:
  1781   001132  0456               	decf	_flage_5^0,w,c	;volatile
  1782   001134  A4D8               	btfss	status,2,c
  1783   001136  EF9F  F008         	goto	i2u461_41
  1784   00113A  EFA1  F008         	goto	i2u461_40
  1785   00113E                     i2u461_41:
  1786   00113E  EFA6  F008         	goto	i2l5129
  1787   001142                     i2u461_40:
  1788   001142                     
  1789                           ;MCAL_Layer/Interrupt/Interrupt_managment.c: 96:         flage_5=0;
  1790   001142  0E00               	movlw	0
  1791   001144  6E56               	movwf	_flage_5^0,c	;volatile
  1792   001146                     
  1793                           ;MCAL_Layer/Interrupt/Interrupt_managment.c: 97:     RB5_ISR(1);
  1794   001146  0E01               	movlw	1
  1795   001148  ECFE  F00C         	call	_RB5_ISR
  1796   00114C                     i2l5129:
  1797                           
  1798                           ;MCAL_Layer/Interrupt/Interrupt_managment.c: 99:     if((INTCONbits.RBIE==1 && INTCONbit
      +                          s.RBIF==1)&& (PORTBbits.RB5==0)&&(flage_5==0)){
  1799   00114C  A6F2               	btfss	242,3,c	;volatile
  1800   00114E  EFAB  F008         	goto	i2u462_41
  1801   001152  EFAD  F008         	goto	i2u462_40
  1802   001156                     i2u462_41:
  1803   001156  EFC8  F008         	goto	i2l5141
  1804   00115A                     i2u462_40:
  1805   00115A  A0F2               	btfss	242,0,c	;volatile
  1806   00115C  EFB2  F008         	goto	i2u463_41
  1807   001160  EFB4  F008         	goto	i2u463_40
  1808   001164                     i2u463_41:
  1809   001164  EFC8  F008         	goto	i2l5141
  1810   001168                     i2u463_40:
  1811   001168  BA81               	btfsc	129,5,c	;volatile
  1812   00116A  EFB9  F008         	goto	i2u464_41
  1813   00116E  EFBB  F008         	goto	i2u464_40
  1814   001172                     i2u464_41:
  1815   001172  EFC8  F008         	goto	i2l5141
  1816   001176                     i2u464_40:
  1817   001176  5056               	movf	_flage_5^0,w,c	;volatile
  1818   001178  A4D8               	btfss	status,2,c
  1819   00117A  EFC1  F008         	goto	i2u465_41
  1820   00117E  EFC3  F008         	goto	i2u465_40
  1821   001182                     i2u465_41:
  1822   001182  EFC8  F008         	goto	i2l5141
  1823   001186                     i2u465_40:
  1824   001186                     
  1825                           ;MCAL_Layer/Interrupt/Interrupt_managment.c: 100:         flage_5=1;
  1826   001186  0E01               	movlw	1
  1827   001188  6E56               	movwf	_flage_5^0,c	;volatile
  1828   00118A                     
  1829                           ;MCAL_Layer/Interrupt/Interrupt_managment.c: 101:     RB5_ISR(0);
  1830   00118A  0E00               	movlw	0
  1831   00118C  ECFE  F00C         	call	_RB5_ISR
  1832   001190                     i2l5141:
  1833                           
  1834                           ;MCAL_Layer/Interrupt/Interrupt_managment.c: 104: if((INTCONbits.RBIE==1 && INTCONbits.R
      +                          BIF==1)&& (PORTBbits.RB6==1)&&(flage_6==1)){
  1835   001190  A6F2               	btfss	242,3,c	;volatile
  1836   001192  EFCD  F008         	goto	i2u466_41
  1837   001196  EFCF  F008         	goto	i2u466_40
  1838   00119A                     i2u466_41:
  1839   00119A  EFEA  F008         	goto	i2l5153
  1840   00119E                     i2u466_40:
  1841   00119E  A0F2               	btfss	242,0,c	;volatile
  1842   0011A0  EFD4  F008         	goto	i2u467_41
  1843   0011A4  EFD6  F008         	goto	i2u467_40
  1844   0011A8                     i2u467_41:
  1845   0011A8  EFEA  F008         	goto	i2l5153
  1846   0011AC                     i2u467_40:
  1847   0011AC  AC81               	btfss	129,6,c	;volatile
  1848   0011AE  EFDB  F008         	goto	i2u468_41
  1849   0011B2  EFDD  F008         	goto	i2u468_40
  1850   0011B6                     i2u468_41:
  1851   0011B6  EFEA  F008         	goto	i2l5153
  1852   0011BA                     i2u468_40:
  1853   0011BA  0455               	decf	_flage_6^0,w,c	;volatile
  1854   0011BC  A4D8               	btfss	status,2,c
  1855   0011BE  EFE3  F008         	goto	i2u469_41
  1856   0011C2  EFE5  F008         	goto	i2u469_40
  1857   0011C6                     i2u469_41:
  1858   0011C6  EFEA  F008         	goto	i2l5153
  1859   0011CA                     i2u469_40:
  1860   0011CA                     
  1861                           ;MCAL_Layer/Interrupt/Interrupt_managment.c: 105:         flage_6=0;
  1862   0011CA  0E00               	movlw	0
  1863   0011CC  6E55               	movwf	_flage_6^0,c	;volatile
  1864   0011CE                     
  1865                           ;MCAL_Layer/Interrupt/Interrupt_managment.c: 106:     RB6_ISR(1);
  1866   0011CE  0E01               	movlw	1
  1867   0011D0  ECF1  F00C         	call	_RB6_ISR
  1868   0011D4                     i2l5153:
  1869                           
  1870                           ;MCAL_Layer/Interrupt/Interrupt_managment.c: 108:     if((INTCONbits.RBIE==1 && INTCONbi
      +                          ts.RBIF==1)&& (PORTBbits.RB6==0)&&(flage_6==0)){
  1871   0011D4  A6F2               	btfss	242,3,c	;volatile
  1872   0011D6  EFEF  F008         	goto	i2u470_41
  1873   0011DA  EFF1  F008         	goto	i2u470_40
  1874   0011DE                     i2u470_41:
  1875   0011DE  EF0C  F009         	goto	i2l5165
  1876   0011E2                     i2u470_40:
  1877   0011E2  A0F2               	btfss	242,0,c	;volatile
  1878   0011E4  EFF6  F008         	goto	i2u471_41
  1879   0011E8  EFF8  F008         	goto	i2u471_40
  1880   0011EC                     i2u471_41:
  1881   0011EC  EF0C  F009         	goto	i2l5165
  1882   0011F0                     i2u471_40:
  1883   0011F0  BC81               	btfsc	129,6,c	;volatile
  1884   0011F2  EFFD  F008         	goto	i2u472_41
  1885   0011F6  EFFF  F008         	goto	i2u472_40
  1886   0011FA                     i2u472_41:
  1887   0011FA  EF0C  F009         	goto	i2l5165
  1888   0011FE                     i2u472_40:
  1889   0011FE  5055               	movf	_flage_6^0,w,c	;volatile
  1890   001200  A4D8               	btfss	status,2,c
  1891   001202  EF05  F009         	goto	i2u473_41
  1892   001206  EF07  F009         	goto	i2u473_40
  1893   00120A                     i2u473_41:
  1894   00120A  EF0C  F009         	goto	i2l5165
  1895   00120E                     i2u473_40:
  1896   00120E                     
  1897                           ;MCAL_Layer/Interrupt/Interrupt_managment.c: 109:         flage_6=1;
  1898   00120E  0E01               	movlw	1
  1899   001210  6E55               	movwf	_flage_6^0,c	;volatile
  1900   001212                     
  1901                           ;MCAL_Layer/Interrupt/Interrupt_managment.c: 110:     RB6_ISR(0);
  1902   001212  0E00               	movlw	0
  1903   001214  ECF1  F00C         	call	_RB6_ISR
  1904   001218                     i2l5165:
  1905                           
  1906                           ;MCAL_Layer/Interrupt/Interrupt_managment.c: 113: if((INTCONbits.RBIE==1 && INTCONbits.R
      +                          BIF==1)&& (PORTBbits.RB7==1)&&(flage_7==1)){
  1907   001218  A6F2               	btfss	242,3,c	;volatile
  1908   00121A  EF11  F009         	goto	i2u474_41
  1909   00121E  EF13  F009         	goto	i2u474_40
  1910   001222                     i2u474_41:
  1911   001222  EF2E  F009         	goto	i2l5177
  1912   001226                     i2u474_40:
  1913   001226  A0F2               	btfss	242,0,c	;volatile
  1914   001228  EF18  F009         	goto	i2u475_41
  1915   00122C  EF1A  F009         	goto	i2u475_40
  1916   001230                     i2u475_41:
  1917   001230  EF2E  F009         	goto	i2l5177
  1918   001234                     i2u475_40:
  1919   001234  AE81               	btfss	129,7,c	;volatile
  1920   001236  EF1F  F009         	goto	i2u476_41
  1921   00123A  EF21  F009         	goto	i2u476_40
  1922   00123E                     i2u476_41:
  1923   00123E  EF2E  F009         	goto	i2l5177
  1924   001242                     i2u476_40:
  1925   001242  0454               	decf	_flage_7^0,w,c	;volatile
  1926   001244  A4D8               	btfss	status,2,c
  1927   001246  EF27  F009         	goto	i2u477_41
  1928   00124A  EF29  F009         	goto	i2u477_40
  1929   00124E                     i2u477_41:
  1930   00124E  EF2E  F009         	goto	i2l5177
  1931   001252                     i2u477_40:
  1932   001252                     
  1933                           ;MCAL_Layer/Interrupt/Interrupt_managment.c: 114:         flage_7=0;
  1934   001252  0E00               	movlw	0
  1935   001254  6E54               	movwf	_flage_7^0,c	;volatile
  1936   001256                     
  1937                           ;MCAL_Layer/Interrupt/Interrupt_managment.c: 115:     RB7_ISR(1);
  1938   001256  0E01               	movlw	1
  1939   001258  ECE4  F00C         	call	_RB7_ISR
  1940   00125C                     i2l5177:
  1941                           
  1942                           ;MCAL_Layer/Interrupt/Interrupt_managment.c: 117:     if((INTCONbits.RBIE==1 && INTCONbi
      +                          ts.RBIF==1)&& (PORTBbits.RB7==0)&&(flage_7==0)){
  1943   00125C  A6F2               	btfss	242,3,c	;volatile
  1944   00125E  EF33  F009         	goto	i2u478_41
  1945   001262  EF35  F009         	goto	i2u478_40
  1946   001266                     i2u478_41:
  1947   001266  EF50  F009         	goto	i2l5189
  1948   00126A                     i2u478_40:
  1949   00126A  A0F2               	btfss	242,0,c	;volatile
  1950   00126C  EF3A  F009         	goto	i2u479_41
  1951   001270  EF3C  F009         	goto	i2u479_40
  1952   001274                     i2u479_41:
  1953   001274  EF50  F009         	goto	i2l5189
  1954   001278                     i2u479_40:
  1955   001278  BE81               	btfsc	129,7,c	;volatile
  1956   00127A  EF41  F009         	goto	i2u480_41
  1957   00127E  EF43  F009         	goto	i2u480_40
  1958   001282                     i2u480_41:
  1959   001282  EF50  F009         	goto	i2l5189
  1960   001286                     i2u480_40:
  1961   001286  5054               	movf	_flage_7^0,w,c	;volatile
  1962   001288  A4D8               	btfss	status,2,c
  1963   00128A  EF49  F009         	goto	i2u481_41
  1964   00128E  EF4B  F009         	goto	i2u481_40
  1965   001292                     i2u481_41:
  1966   001292  EF50  F009         	goto	i2l5189
  1967   001296                     i2u481_40:
  1968   001296                     
  1969                           ;MCAL_Layer/Interrupt/Interrupt_managment.c: 118:         flage_7=1;
  1970   001296  0E01               	movlw	1
  1971   001298  6E54               	movwf	_flage_7^0,c	;volatile
  1972   00129A                     
  1973                           ;MCAL_Layer/Interrupt/Interrupt_managment.c: 119:     RB7_ISR(0);
  1974   00129A  0E00               	movlw	0
  1975   00129C  ECE4  F00C         	call	_RB7_ISR
  1976   0012A0                     i2l5189:
  1977                           
  1978                           ;MCAL_Layer/Interrupt/Interrupt_managment.c: 123:     if((PIE1bits.ADIE==1) && (PIR1bits
      +                          .ADIF==1)){
  1979   0012A0  AC9D               	btfss	157,6,c	;volatile
  1980   0012A2  EF55  F009         	goto	i2u482_41
  1981   0012A6  EF57  F009         	goto	i2u482_40
  1982   0012AA                     i2u482_41:
  1983   0012AA  EF60  F009         	goto	i2l5195
  1984   0012AE                     i2u482_40:
  1985   0012AE  AC9E               	btfss	158,6,c	;volatile
  1986   0012B0  EF5C  F009         	goto	i2u483_41
  1987   0012B4  EF5E  F009         	goto	i2u483_40
  1988   0012B8                     i2u483_41:
  1989   0012B8  EF60  F009         	goto	i2l5195
  1990   0012BC                     i2u483_40:
  1991   0012BC                     
  1992                           ;MCAL_Layer/Interrupt/Interrupt_managment.c: 124:         ADC_ISR();
  1993   0012BC  EC2D  F00D         	call	_ADC_ISR	;wreg free
  1994   0012C0                     i2l5195:
  1995                           
  1996                           ;MCAL_Layer/Interrupt/Interrupt_managment.c: 129:     if((INTCONbits.TMR0IE==1) && (INTC
      +                          ONbits.TMR0IF==1)){
  1997   0012C0  AAF2               	btfss	242,5,c	;volatile
  1998   0012C2  EF65  F009         	goto	i2u484_41
  1999   0012C6  EF67  F009         	goto	i2u484_40
  2000   0012CA                     i2u484_41:
  2001   0012CA  EF70  F009         	goto	i2l601
  2002   0012CE                     i2u484_40:
  2003   0012CE  A4F2               	btfss	242,2,c	;volatile
  2004   0012D0  EF6C  F009         	goto	i2u485_41
  2005   0012D4  EF6E  F009         	goto	i2u485_40
  2006   0012D8                     i2u485_41:
  2007   0012D8  EF70  F009         	goto	i2l601
  2008   0012DC                     i2u485_40:
  2009   0012DC                     
  2010                           ;MCAL_Layer/Interrupt/Interrupt_managment.c: 130:         TIMER0_ISR();
  2011   0012DC  ECB4  F00C         	call	_TIMER0_ISR	;wreg free
  2012   0012E0                     i2l601:
  2013   0012E0  C069  FFF4         	movff	??_InterruptManagmentHigh+5,prodh
  2014   0012E4  C068  FFF3         	movff	??_InterruptManagmentHigh+4,prodl
  2015   0012E8  C067  FFDA         	movff	??_InterruptManagmentHigh+3,fsr2h
  2016   0012EC  C066  FFD9         	movff	??_InterruptManagmentHigh+2,fsr2l
  2017   0012F0  C065  FFFB         	movff	??_InterruptManagmentHigh+1,pclatu
  2018   0012F4  C064  FFFA         	movff	??_InterruptManagmentHigh,pclath
  2019   0012F8  926E               	bcf	int$flags,1,c	;clear compiler interrupt flag (level 2)
  2020   0012FA  0011               	retfie		f
  2021   0012FC                     __end_of_InterruptManagmentHigh:
  2022                           	callstack 0
  2023                           
  2024 ;; *************** function _TIMER0_ISR *****************
  2025 ;; Defined at:
  2026 ;;		line 162 in file "MCAL_Layer/Timer/timer0.c"
  2027 ;; Parameters:    Size  Location     Type
  2028 ;;		None
  2029 ;; Auto vars:     Size  Location     Type
  2030 ;;		None
  2031 ;; Return value:  Size  Location     Type
  2032 ;;                  1    wreg      void 
  2033 ;; Registers used:
  2034 ;;		wreg, fsr2l, fsr2h, status,2, status,0, pcl, pclath, pclatu, tosl, prodl, prodh, cstack
  2035 ;; Tracked objects:
  2036 ;;		On entry : 0/0
  2037 ;;		On exit  : 0/0
  2038 ;;		Unchanged: 0/0
  2039 ;; Data sizes:     COMRAM   BANK0   BANK1   BANK2   BANK3   BANK4   BANK5   BANK6   BANK7   BANK8   BANK9  BANK10  BANK1
      +1  BANK12  BANK13  BANK14  BANK15
  2040 ;;      Params:         0       0       0       0       0       0       0       0       0       0       0       0       
      +0       0       0       0       0
  2041 ;;      Locals:         0       0       0       0       0       0       0       0       0       0       0       0       
      +0       0       0       0       0
  2042 ;;      Temps:          0       0       0       0       0       0       0       0       0       0       0       0       
      +0       0       0       0       0
  2043 ;;      Totals:         0       0       0       0       0       0       0       0       0       0       0       0       
      +0       0       0       0       0
  2044 ;;Total ram usage:        0 bytes
  2045 ;; Hardware stack levels used: 1
  2046 ;; Hardware stack levels required when called: 3
  2047 ;; This function calls:
  2048 ;;		NULL
  2049 ;;		_timer0
  2050 ;; This function is called by:
  2051 ;;		_InterruptManagmentHigh
  2052 ;; This function uses a non-reentrant model
  2053 ;;
  2054                           
  2055                           	psect	text9
  2056   001968                     __ptext9:
  2057                           	callstack 0
  2058   001968                     _TIMER0_ISR:
  2059                           	callstack 23
  2060   001968                     
  2061                           ;MCAL_Layer/Timer/timer0.c: 163:     (INTCONbits.TMR0IF=0);
  2062   001968  94F2               	bcf	242,2,c	;volatile
  2063   00196A                     
  2064                           ;MCAL_Layer/Timer/timer0.c: 164:     TMR0H=timer0_preload>>8;
  2065   00196A  500C               	movf	(_timer0_preload+1)^0,w,c
  2066   00196C  6ED7               	movwf	215,c	;volatile
  2067   00196E                     
  2068                           ;MCAL_Layer/Timer/timer0.c: 165:     TMR0L =(uint8)timer0_preload;
  2069   00196E  C00B  FFD6         	movff	_timer0_preload,4054	;volatile
  2070   001972                     
  2071                           ;MCAL_Layer/Timer/timer0.c: 166:     if(timer0_callback_ptr){
  2072   001972  500D               	movf	_timer0_callback_ptr^0,w,c
  2073   001974  100E               	iorwf	(_timer0_callback_ptr+1)^0,w,c
  2074   001976  B4D8               	btfsc	status,2,c
  2075   001978  EFC0  F00C         	goto	i2u398_41
  2076   00197C  EFC2  F00C         	goto	i2u398_40
  2077   001980                     i2u398_41:
  2078   001980  EFCE  F00C         	goto	i2l828
  2079   001984                     i2u398_40:
  2080   001984                     
  2081                           ;MCAL_Layer/Timer/timer0.c: 167:         timer0_callback_ptr();
  2082   001984  D802               	call	i2u399_48
  2083   001986  EFCE  F00C         	goto	i2u399_49
  2084   00198A                     i2u399_48:
  2085   00198A  0005               	push	
  2086   00198C  6EFA               	movwf	pclath,c
  2087   00198E  500D               	movf	_timer0_callback_ptr^0,w,c
  2088   001990  6EFD               	movwf	tosl,c
  2089   001992  500E               	movf	(_timer0_callback_ptr+1)^0,w,c
  2090   001994  6EFE               	movwf	tosh,c
  2091   001996  6AFF               	clrf	tosu,c
  2092   001998  50FA               	movf	pclath,w,c
  2093   00199A  0012               	return		;indir
  2094   00199C                     i2u399_49:
  2095   00199C                     i2l828:
  2096   00199C  0012               	return		;funcret
  2097   00199E                     __end_of_TIMER0_ISR:
  2098                           	callstack 0
  2099                           
  2100 ;; *************** function _timer0 *****************
  2101 ;; Defined at:
  2102 ;;		line 17 in file "Application.c"
  2103 ;; Parameters:    Size  Location     Type
  2104 ;;		None
  2105 ;; Auto vars:     Size  Location     Type
  2106 ;;		None
  2107 ;; Return value:  Size  Location     Type
  2108 ;;                  1    wreg      void 
  2109 ;; Registers used:
  2110 ;;		wreg, fsr2l, fsr2h, status,2, status,0, prodl, prodh, cstack
  2111 ;; Tracked objects:
  2112 ;;		On entry : 0/0
  2113 ;;		On exit  : 0/0
  2114 ;;		Unchanged: 0/0
  2115 ;; Data sizes:     COMRAM   BANK0   BANK1   BANK2   BANK3   BANK4   BANK5   BANK6   BANK7   BANK8   BANK9  BANK10  BANK1
      +1  BANK12  BANK13  BANK14  BANK15
  2116 ;;      Params:         0       0       0       0       0       0       0       0       0       0       0       0       
      +0       0       0       0       0
  2117 ;;      Locals:         0       0       0       0       0       0       0       0       0       0       0       0       
      +0       0       0       0       0
  2118 ;;      Temps:          0       0       0       0       0       0       0       0       0       0       0       0       
      +0       0       0       0       0
  2119 ;;      Totals:         0       0       0       0       0       0       0       0       0       0       0       0       
      +0       0       0       0       0
  2120 ;;Total ram usage:        0 bytes
  2121 ;; Hardware stack levels used: 1
  2122 ;; Hardware stack levels required when called: 2
  2123 ;; This function calls:
  2124 ;;		i2_led_toggel
  2125 ;; This function is called by:
  2126 ;;		_main
  2127 ;;		_TIMER0_ISR
  2128 ;; This function uses a non-reentrant model
  2129 ;;
  2130                           
  2131                           	psect	text10
  2132   001A40                     __ptext10:
  2133                           	callstack 0
  2134   001A40                     _timer0:
  2135                           	callstack 23
  2136   001A40                     
  2137                           ;Application.c: 18:     led_toggel(&led1);
  2138   001A40  0E58               	movlw	low _led1
  2139   001A42  6E60               	movwf	i2led_toggel@led_cfg^0,c
  2140   001A44  0E00               	movlw	high _led1
  2141   001A46  6E61               	movwf	(i2led_toggel@led_cfg+1)^0,c
  2142   001A48  ECD1  F00B         	call	i2_led_toggel	;wreg free
  2143   001A4C  0012               	return		;funcret
  2144   001A4E                     __end_of_timer0:
  2145                           	callstack 0
  2146                           
  2147 ;; *************** function i2_led_toggel *****************
  2148 ;; Defined at:
  2149 ;;		line 70 in file "ECU_Layer/LED/LED.c"
  2150 ;; Parameters:    Size  Location     Type
  2151 ;;  led_cfg         2    7[COMRAM] PTR struct .
  2152 ;;		 -> led1(1), 
  2153 ;; Auto vars:     Size  Location     Type
  2154 ;;  pin_cfg         1   10[COMRAM] struct .
  2155 ;;  returt_state    1    0        unsigned char 
  2156 ;; Return value:  Size  Location     Type
  2157 ;;                  1    wreg      unsigned char 
  2158 ;; Registers used:
  2159 ;;		wreg, fsr2l, fsr2h, status,2, status,0, prodl, prodh, cstack
  2160 ;; Tracked objects:
  2161 ;;		On entry : 0/0
  2162 ;;		On exit  : 0/0
  2163 ;;		Unchanged: 0/0
  2164 ;; Data sizes:     COMRAM   BANK0   BANK1   BANK2   BANK3   BANK4   BANK5   BANK6   BANK7   BANK8   BANK9  BANK10  BANK1
      +1  BANK12  BANK13  BANK14  BANK15
  2165 ;;      Params:         2       0       0       0       0       0       0       0       0       0       0       0       
      +0       0       0       0       0
  2166 ;;      Locals:         1       0       0       0       0       0       0       0       0       0       0       0       
      +0       0       0       0       0
  2167 ;;      Temps:          1       0       0       0       0       0       0       0       0       0       0       0       
      +0       0       0       0       0
  2168 ;;      Totals:         4       0       0       0       0       0       0       0       0       0       0       0       
      +0       0       0       0       0
  2169 ;;Total ram usage:        4 bytes
  2170 ;; Hardware stack levels used: 1
  2171 ;; Hardware stack levels required when called: 1
  2172 ;; This function calls:
  2173 ;;		i2_gpio_pin_toggle_level
  2174 ;; This function is called by:
  2175 ;;		_timer0
  2176 ;; This function uses a non-reentrant model
  2177 ;;
  2178                           
  2179                           	psect	text11
  2180   0017A2                     __ptext11:
  2181                           	callstack 0
  2182   0017A2                     i2_led_toggel:
  2183                           	callstack 23
  2184   0017A2                     
  2185                           ;ECU_Layer/LED/LED.c: 72:     pin_cfg_t pin_cfg={
  2186   0017A2  C02B  F063         	movff	led_toggel@F3069,i2led_toggel@pin_cfg
  2187   0017A6  9063               	bcf	i2led_toggel@pin_cfg^0,0,c
  2188   0017A8  C060  FFD9         	movff	i2led_toggel@led_cfg,fsr2l
  2189   0017AC  C061  FFDA         	movff	i2led_toggel@led_cfg+1,fsr2h
  2190   0017B0  AEDF               	btfss	indf2,7,c
  2191   0017B2  D002               	bra	i2u372_45
  2192   0017B4  8263               	bsf	i2led_toggel@pin_cfg^0,1,c
  2193   0017B6  D001               	bra	i2u372_47
  2194   0017B8                     i2u372_45:
  2195   0017B8  9263               	bcf	i2led_toggel@pin_cfg^0,1,c
  2196   0017BA                     i2u372_47:
  2197   0017BA  C060  FFD9         	movff	i2led_toggel@led_cfg,fsr2l
  2198   0017BE  C061  FFDA         	movff	i2led_toggel@led_cfg+1,fsr2h
  2199   0017C2  38DF               	swapf	223,w,c
  2200   0017C4  0B07               	andlw	7
  2201   0017C6  6E62               	movwf	??i2_led_toggel^0,c
  2202   0017C8  4662               	rlncf	??i2_led_toggel^0,f,c
  2203   0017CA  4662               	rlncf	??i2_led_toggel^0,f,c
  2204   0017CC  5063               	movf	i2led_toggel@pin_cfg^0,w,c
  2205   0017CE  1862               	xorwf	??i2_led_toggel^0,w,c
  2206   0017D0  0BE3               	andlw	-29
  2207   0017D2  1862               	xorwf	??i2_led_toggel^0,w,c
  2208   0017D4  6E63               	movwf	i2led_toggel@pin_cfg^0,c
  2209   0017D6  C060  FFD9         	movff	i2led_toggel@led_cfg,fsr2l
  2210   0017DA  C061  FFDA         	movff	i2led_toggel@led_cfg+1,fsr2h
  2211   0017DE  50DF               	movf	223,w,c
  2212   0017E0  0B0F               	andlw	15
  2213   0017E2  6E62               	movwf	??i2_led_toggel^0,c
  2214   0017E4  3A62               	swapf	??i2_led_toggel^0,f,c
  2215   0017E6  4662               	rlncf	??i2_led_toggel^0,f,c
  2216   0017E8  5063               	movf	i2led_toggel@pin_cfg^0,w,c
  2217   0017EA  1862               	xorwf	??i2_led_toggel^0,w,c
  2218   0017EC  0B1F               	andlw	-225
  2219   0017EE  1862               	xorwf	??i2_led_toggel^0,w,c
  2220   0017F0  6E63               	movwf	i2led_toggel@pin_cfg^0,c
  2221   0017F2                     
  2222                           ;ECU_Layer/LED/LED.c: 78:     if(((void*)0)!=led_cfg)
  2223   0017F2  5060               	movf	i2led_toggel@led_cfg^0,w,c
  2224   0017F4  1061               	iorwf	(i2led_toggel@led_cfg+1)^0,w,c
  2225   0017F6  B4D8               	btfsc	status,2,c
  2226   0017F8  EF00  F00C         	goto	i2u373_41
  2227   0017FC  EF02  F00C         	goto	i2u373_40
  2228   001800                     i2u373_41:
  2229   001800  EF08  F00C         	goto	i2l267
  2230   001804                     i2u373_40:
  2231   001804                     
  2232                           ;ECU_Layer/LED/LED.c: 79:     {;ECU_Layer/LED/LED.c: 80:         gpio_pin_toggle_level(&
      +                          pin_cfg);
  2233   001804  0E63               	movlw	low i2led_toggel@pin_cfg
  2234   001806  6E59               	movwf	i2gpio_pin_toggle_level@pin_cfg^0,c
  2235   001808  0E00               	movlw	high i2led_toggel@pin_cfg
  2236   00180A  6E5A               	movwf	(i2gpio_pin_toggle_level@pin_cfg+1)^0,c
  2237   00180C  EC09  F00C         	call	i2_gpio_pin_toggle_level	;wreg free
  2238   001810                     i2l267:
  2239   001810  0012               	return		;funcret
  2240   001812                     __end_ofi2_led_toggel:
  2241                           	callstack 0
  2242                           
  2243 ;; *************** function i2_gpio_pin_toggle_level *****************
  2244 ;; Defined at:
  2245 ;;		line 113 in file "MCAL_Layer/GPIO/GPIO.c"
  2246 ;; Parameters:    Size  Location     Type
  2247 ;;  pin_cfg         2    0[COMRAM] PTR const struct .
  2248 ;;		 -> i2led_toggel@pin_cfg(1), relay_toggel@relay_pin(1), led_toggel@pin_cfg(1), 
  2249 ;; Auto vars:     Size  Location     Type
  2250 ;;  return_statu    1    0        unsigned char 
  2251 ;; Return value:  Size  Location     Type
  2252 ;;                  1    wreg      unsigned char 
  2253 ;; Registers used:
  2254 ;;		wreg, fsr2l, fsr2h, status,2, status,0, prodl, prodh
  2255 ;; Tracked objects:
  2256 ;;		On entry : 0/0
  2257 ;;		On exit  : 0/0
  2258 ;;		Unchanged: 0/0
  2259 ;; Data sizes:     COMRAM   BANK0   BANK1   BANK2   BANK3   BANK4   BANK5   BANK6   BANK7   BANK8   BANK9  BANK10  BANK1
      +1  BANK12  BANK13  BANK14  BANK15
  2260 ;;      Params:         2       0       0       0       0       0       0       0       0       0       0       0       
      +0       0       0       0       0
  2261 ;;      Locals:         0       0       0       0       0       0       0       0       0       0       0       0       
      +0       0       0       0       0
  2262 ;;      Temps:          5       0       0       0       0       0       0       0       0       0       0       0       
      +0       0       0       0       0
  2263 ;;      Totals:         7       0       0       0       0       0       0       0       0       0       0       0       
      +0       0       0       0       0
  2264 ;;Total ram usage:        7 bytes
  2265 ;; Hardware stack levels used: 1
  2266 ;; This function calls:
  2267 ;;		Nothing
  2268 ;; This function is called by:
  2269 ;;		i2_led_toggel
  2270 ;; This function uses a non-reentrant model
  2271 ;;
  2272                           
  2273                           	psect	text12
  2274   001812                     __ptext12:
  2275                           	callstack 0
  2276   001812                     i2_gpio_pin_toggle_level:
  2277                           	callstack 23
  2278   001812                     
  2279                           ;MCAL_Layer/GPIO/GPIO.c: 116:     if(((void*)0)!=pin_cfg)
  2280   001812  5059               	movf	i2gpio_pin_toggle_level@pin_cfg^0,w,c
  2281   001814  105A               	iorwf	(i2gpio_pin_toggle_level@pin_cfg+1)^0,w,c
  2282   001816  B4D8               	btfsc	status,2,c
  2283   001818  EF10  F00C         	goto	i2u362_41
  2284   00181C  EF12  F00C         	goto	i2u362_40
  2285   001820                     i2u362_41:
  2286   001820  EF3E  F00C         	goto	i2l493
  2287   001824                     i2u362_40:
  2288   001824                     
  2289                           ;MCAL_Layer/GPIO/GPIO.c: 117:     {;MCAL_Layer/GPIO/GPIO.c: 118:         (*Lat_Regs[pin_
      +                          cfg->port]^=(1<<pin_cfg->pin));
  2290   001824  C059  FFD9         	movff	i2gpio_pin_toggle_level@pin_cfg,fsr2l
  2291   001828  C05A  FFDA         	movff	i2gpio_pin_toggle_level@pin_cfg+1,fsr2h
  2292   00182C  30DF               	rrcf	223,w,c
  2293   00182E  32E8               	rrcf	wreg,f,c
  2294   001830  0B07               	andlw	7
  2295   001832  6E5B               	movwf	??i2_gpio_pin_toggle_level^0,c
  2296   001834  0E01               	movlw	1
  2297   001836  6E5C               	movwf	(??i2_gpio_pin_toggle_level+1)^0,c
  2298   001838  2A5B               	incf	??i2_gpio_pin_toggle_level^0,f,c
  2299   00183A  EF21  F00C         	goto	i2u363_44
  2300   00183E                     i2u363_45:
  2301   00183E  90D8               	bcf	status,0,c
  2302   001840  365C               	rlcf	(??i2_gpio_pin_toggle_level+1)^0,f,c
  2303   001842                     i2u363_44:
  2304   001842  2E5B               	decfsz	??i2_gpio_pin_toggle_level^0,f,c
  2305   001844  EF1F  F00C         	goto	i2u363_45
  2306   001848  C059  FFD9         	movff	i2gpio_pin_toggle_level@pin_cfg,fsr2l
  2307   00184C  C05A  FFDA         	movff	i2gpio_pin_toggle_level@pin_cfg+1,fsr2h
  2308   001850  38DF               	swapf	223,w,c
  2309   001852  32E8               	rrcf	wreg,f,c
  2310   001854  0B07               	andlw	7
  2311   001856  6E5D               	movwf	(??i2_gpio_pin_toggle_level+2)^0,c
  2312   001858  505D               	movf	(??i2_gpio_pin_toggle_level+2)^0,w,c
  2313   00185A  0D02               	mullw	2
  2314   00185C  0E39               	movlw	low _Lat_Regs
  2315   00185E  24F3               	addwf	243,w,c
  2316   001860  6ED9               	movwf	fsr2l,c
  2317   001862  0E00               	movlw	high _Lat_Regs
  2318   001864  20F4               	addwfc	prodh,w,c
  2319   001866  6EDA               	movwf	fsr2h,c
  2320   001868  CFDE F05E          	movff	postinc2,??i2_gpio_pin_toggle_level+3
  2321   00186C  CFDD F05F          	movff	postdec2,??i2_gpio_pin_toggle_level+4
  2322   001870  C05E  FFD9         	movff	??i2_gpio_pin_toggle_level+3,fsr2l
  2323   001874  C05F  FFDA         	movff	??i2_gpio_pin_toggle_level+4,fsr2h
  2324   001878  505C               	movf	(??i2_gpio_pin_toggle_level+1)^0,w,c
  2325   00187A  1ADF               	xorwf	indf2,f,c
  2326   00187C                     i2l493:
  2327   00187C  0012               	return		;funcret
  2328   00187E                     __end_ofi2_gpio_pin_toggle_level:
  2329                           	callstack 0
  2330                           
  2331 ;; *************** function _RB7_ISR *****************
  2332 ;; Defined at:
  2333 ;;		line 434 in file "MCAL_Layer/Interrupt/Interrupt_external.c"
  2334 ;; Parameters:    Size  Location     Type
  2335 ;;  flage           1    wreg     unsigned char 
  2336 ;; Auto vars:     Size  Location     Type
  2337 ;;  flage           1    0[COMRAM] unsigned char 
  2338 ;; Return value:  Size  Location     Type
  2339 ;;                  1    wreg      void 
  2340 ;; Registers used:
  2341 ;;		wreg, status,2, status,0
  2342 ;; Tracked objects:
  2343 ;;		On entry : 0/0
  2344 ;;		On exit  : 0/0
  2345 ;;		Unchanged: 0/0
  2346 ;; Data sizes:     COMRAM   BANK0   BANK1   BANK2   BANK3   BANK4   BANK5   BANK6   BANK7   BANK8   BANK9  BANK10  BANK1
      +1  BANK12  BANK13  BANK14  BANK15
  2347 ;;      Params:         0       0       0       0       0       0       0       0       0       0       0       0       
      +0       0       0       0       0
  2348 ;;      Locals:         1       0       0       0       0       0       0       0       0       0       0       0       
      +0       0       0       0       0
  2349 ;;      Temps:          0       0       0       0       0       0       0       0       0       0       0       0       
      +0       0       0       0       0
  2350 ;;      Totals:         1       0       0       0       0       0       0       0       0       0       0       0       
      +0       0       0       0       0
  2351 ;;Total ram usage:        1 bytes
  2352 ;; Hardware stack levels used: 1
  2353 ;; This function calls:
  2354 ;;		Nothing
  2355 ;; This function is called by:
  2356 ;;		_InterruptManagmentHigh
  2357 ;; This function uses a non-reentrant model
  2358 ;;
  2359                           
  2360                           	psect	text13
  2361   0019C8                     __ptext13:
  2362                           	callstack 0
  2363   0019C8                     _RB7_ISR:
  2364                           	callstack 26
  2365                           
  2366                           ;incstack = 0
  2367                           ;RB7_ISR@flage stored from wreg
  2368   0019C8  6E59               	movwf	RB7_ISR@flage^0,c
  2369   0019CA                     
  2370                           ;MCAL_Layer/Interrupt/Interrupt_external.c: 435:    (INTCONbits.RBIF=0);
  2371   0019CA  90F2               	bcf	242,0,c	;volatile
  2372   0019CC                     
  2373                           ;MCAL_Layer/Interrupt/Interrupt_external.c: 436:     if(flage==1){
  2374   0019CC  0459               	decf	RB7_ISR@flage^0,w,c
  2375   0019CE  A4D8               	btfss	status,2,c
  2376   0019D0  EFEC  F00C         	goto	i2u47_41
  2377   0019D4  EFEE  F00C         	goto	i2u47_40
  2378   0019D8                     i2u47_41:
  2379   0019D8  EFF0  F00C         	goto	i2l1899
  2380   0019DC                     i2u47_40:
  2381   0019DC  EFF0  F00C         	goto	i2l780
  2382   0019E0                     i2l1899:
  2383   0019E0                     i2l780:
  2384   0019E0  0012               	return		;funcret
  2385   0019E2                     __end_of_RB7_ISR:
  2386                           	callstack 0
  2387                           
  2388 ;; *************** function _RB6_ISR *****************
  2389 ;; Defined at:
  2390 ;;		line 416 in file "MCAL_Layer/Interrupt/Interrupt_external.c"
  2391 ;; Parameters:    Size  Location     Type
  2392 ;;  flage           1    wreg     unsigned char 
  2393 ;; Auto vars:     Size  Location     Type
  2394 ;;  flage           1    0[COMRAM] unsigned char 
  2395 ;; Return value:  Size  Location     Type
  2396 ;;                  1    wreg      void 
  2397 ;; Registers used:
  2398 ;;		wreg, status,2, status,0
  2399 ;; Tracked objects:
  2400 ;;		On entry : 0/0
  2401 ;;		On exit  : 0/0
  2402 ;;		Unchanged: 0/0
  2403 ;; Data sizes:     COMRAM   BANK0   BANK1   BANK2   BANK3   BANK4   BANK5   BANK6   BANK7   BANK8   BANK9  BANK10  BANK1
      +1  BANK12  BANK13  BANK14  BANK15
  2404 ;;      Params:         0       0       0       0       0       0       0       0       0       0       0       0       
      +0       0       0       0       0
  2405 ;;      Locals:         1       0       0       0       0       0       0       0       0       0       0       0       
      +0       0       0       0       0
  2406 ;;      Temps:          0       0       0       0       0       0       0       0       0       0       0       0       
      +0       0       0       0       0
  2407 ;;      Totals:         1       0       0       0       0       0       0       0       0       0       0       0       
      +0       0       0       0       0
  2408 ;;Total ram usage:        1 bytes
  2409 ;; Hardware stack levels used: 1
  2410 ;; This function calls:
  2411 ;;		Nothing
  2412 ;; This function is called by:
  2413 ;;		_InterruptManagmentHigh
  2414 ;; This function uses a non-reentrant model
  2415 ;;
  2416                           
  2417                           	psect	text14
  2418   0019E2                     __ptext14:
  2419                           	callstack 0
  2420   0019E2                     _RB6_ISR:
  2421                           	callstack 26
  2422                           
  2423                           ;incstack = 0
  2424                           ;RB6_ISR@flage stored from wreg
  2425   0019E2  6E59               	movwf	RB6_ISR@flage^0,c
  2426   0019E4                     
  2427                           ;MCAL_Layer/Interrupt/Interrupt_external.c: 417:    (INTCONbits.RBIF=0);
  2428   0019E4  90F2               	bcf	242,0,c	;volatile
  2429   0019E6                     
  2430                           ;MCAL_Layer/Interrupt/Interrupt_external.c: 418:     if(flage==1){
  2431   0019E6  0459               	decf	RB6_ISR@flage^0,w,c
  2432   0019E8  A4D8               	btfss	status,2,c
  2433   0019EA  EFF9  F00C         	goto	i2u46_41
  2434   0019EE  EFFB  F00C         	goto	i2u46_40
  2435   0019F2                     i2u46_41:
  2436   0019F2  EFFD  F00C         	goto	i2l1889
  2437   0019F6                     i2u46_40:
  2438   0019F6  EFFD  F00C         	goto	i2l771
  2439   0019FA                     i2l1889:
  2440   0019FA                     i2l771:
  2441   0019FA  0012               	return		;funcret
  2442   0019FC                     __end_of_RB6_ISR:
  2443                           	callstack 0
  2444                           
  2445 ;; *************** function _RB5_ISR *****************
  2446 ;; Defined at:
  2447 ;;		line 398 in file "MCAL_Layer/Interrupt/Interrupt_external.c"
  2448 ;; Parameters:    Size  Location     Type
  2449 ;;  flage           1    wreg     unsigned char 
  2450 ;; Auto vars:     Size  Location     Type
  2451 ;;  flage           1    0[COMRAM] unsigned char 
  2452 ;; Return value:  Size  Location     Type
  2453 ;;                  1    wreg      void 
  2454 ;; Registers used:
  2455 ;;		wreg, status,2, status,0
  2456 ;; Tracked objects:
  2457 ;;		On entry : 0/0
  2458 ;;		On exit  : 0/0
  2459 ;;		Unchanged: 0/0
  2460 ;; Data sizes:     COMRAM   BANK0   BANK1   BANK2   BANK3   BANK4   BANK5   BANK6   BANK7   BANK8   BANK9  BANK10  BANK1
      +1  BANK12  BANK13  BANK14  BANK15
  2461 ;;      Params:         0       0       0       0       0       0       0       0       0       0       0       0       
      +0       0       0       0       0
  2462 ;;      Locals:         1       0       0       0       0       0       0       0       0       0       0       0       
      +0       0       0       0       0
  2463 ;;      Temps:          0       0       0       0       0       0       0       0       0       0       0       0       
      +0       0       0       0       0
  2464 ;;      Totals:         1       0       0       0       0       0       0       0       0       0       0       0       
      +0       0       0       0       0
  2465 ;;Total ram usage:        1 bytes
  2466 ;; Hardware stack levels used: 1
  2467 ;; This function calls:
  2468 ;;		Nothing
  2469 ;; This function is called by:
  2470 ;;		_InterruptManagmentHigh
  2471 ;; This function uses a non-reentrant model
  2472 ;;
  2473                           
  2474                           	psect	text15
  2475   0019FC                     __ptext15:
  2476                           	callstack 0
  2477   0019FC                     _RB5_ISR:
  2478                           	callstack 26
  2479                           
  2480                           ;incstack = 0
  2481                           ;RB5_ISR@flage stored from wreg
  2482   0019FC  6E59               	movwf	RB5_ISR@flage^0,c
  2483   0019FE                     
  2484                           ;MCAL_Layer/Interrupt/Interrupt_external.c: 399:    (INTCONbits.RBIF=0);
  2485   0019FE  90F2               	bcf	242,0,c	;volatile
  2486   001A00                     
  2487                           ;MCAL_Layer/Interrupt/Interrupt_external.c: 400:     if(flage==1){
  2488   001A00  0459               	decf	RB5_ISR@flage^0,w,c
  2489   001A02  A4D8               	btfss	status,2,c
  2490   001A04  EF06  F00D         	goto	i2u45_41
  2491   001A08  EF08  F00D         	goto	i2u45_40
  2492   001A0C                     i2u45_41:
  2493   001A0C  EF0A  F00D         	goto	i2l1879
  2494   001A10                     i2u45_40:
  2495   001A10  EF0A  F00D         	goto	i2l762
  2496   001A14                     i2l1879:
  2497   001A14                     i2l762:
  2498   001A14  0012               	return		;funcret
  2499   001A16                     __end_of_RB5_ISR:
  2500                           	callstack 0
  2501                           
  2502 ;; *************** function _RB4_ISR *****************
  2503 ;; Defined at:
  2504 ;;		line 380 in file "MCAL_Layer/Interrupt/Interrupt_external.c"
  2505 ;; Parameters:    Size  Location     Type
  2506 ;;  flage           1    wreg     unsigned char 
  2507 ;; Auto vars:     Size  Location     Type
  2508 ;;  flage           1    0[COMRAM] unsigned char 
  2509 ;; Return value:  Size  Location     Type
  2510 ;;                  1    wreg      void 
  2511 ;; Registers used:
  2512 ;;		wreg, status,2, status,0
  2513 ;; Tracked objects:
  2514 ;;		On entry : 0/0
  2515 ;;		On exit  : 0/0
  2516 ;;		Unchanged: 0/0
  2517 ;; Data sizes:     COMRAM   BANK0   BANK1   BANK2   BANK3   BANK4   BANK5   BANK6   BANK7   BANK8   BANK9  BANK10  BANK1
      +1  BANK12  BANK13  BANK14  BANK15
  2518 ;;      Params:         0       0       0       0       0       0       0       0       0       0       0       0       
      +0       0       0       0       0
  2519 ;;      Locals:         1       0       0       0       0       0       0       0       0       0       0       0       
      +0       0       0       0       0
  2520 ;;      Temps:          0       0       0       0       0       0       0       0       0       0       0       0       
      +0       0       0       0       0
  2521 ;;      Totals:         1       0       0       0       0       0       0       0       0       0       0       0       
      +0       0       0       0       0
  2522 ;;Total ram usage:        1 bytes
  2523 ;; Hardware stack levels used: 1
  2524 ;; This function calls:
  2525 ;;		Nothing
  2526 ;; This function is called by:
  2527 ;;		_InterruptManagmentHigh
  2528 ;; This function uses a non-reentrant model
  2529 ;;
  2530                           
  2531                           	psect	text16
  2532   001A16                     __ptext16:
  2533                           	callstack 0
  2534   001A16                     _RB4_ISR:
  2535                           	callstack 26
  2536                           
  2537                           ;incstack = 0
  2538                           ;RB4_ISR@flage stored from wreg
  2539   001A16  6E59               	movwf	RB4_ISR@flage^0,c
  2540   001A18                     
  2541                           ;MCAL_Layer/Interrupt/Interrupt_external.c: 381:     (INTCONbits.RBIF=0);
  2542   001A18  90F2               	bcf	242,0,c	;volatile
  2543   001A1A                     
  2544                           ;MCAL_Layer/Interrupt/Interrupt_external.c: 382:     if(flage==1){
  2545   001A1A  0459               	decf	RB4_ISR@flage^0,w,c
  2546   001A1C  A4D8               	btfss	status,2,c
  2547   001A1E  EF13  F00D         	goto	i2u44_41
  2548   001A22  EF15  F00D         	goto	i2u44_40
  2549   001A26                     i2u44_41:
  2550   001A26  EF17  F00D         	goto	i2l1869
  2551   001A2A                     i2u44_40:
  2552   001A2A  EF17  F00D         	goto	i2l753
  2553   001A2E                     i2l1869:
  2554   001A2E                     i2l753:
  2555   001A2E  0012               	return		;funcret
  2556   001A30                     __end_of_RB4_ISR:
  2557                           	callstack 0
  2558                           
  2559 ;; *************** function _INT2_ISR *****************
  2560 ;; Defined at:
  2561 ;;		line 371 in file "MCAL_Layer/Interrupt/Interrupt_external.c"
  2562 ;; Parameters:    Size  Location     Type
  2563 ;;		None
  2564 ;; Auto vars:     Size  Location     Type
  2565 ;;		None
  2566 ;; Return value:  Size  Location     Type
  2567 ;;                  1    wreg      void 
  2568 ;; Registers used:
  2569 ;;		None
  2570 ;; Tracked objects:
  2571 ;;		On entry : 0/0
  2572 ;;		On exit  : 0/0
  2573 ;;		Unchanged: 0/0
  2574 ;; Data sizes:     COMRAM   BANK0   BANK1   BANK2   BANK3   BANK4   BANK5   BANK6   BANK7   BANK8   BANK9  BANK10  BANK1
      +1  BANK12  BANK13  BANK14  BANK15
  2575 ;;      Params:         0       0       0       0       0       0       0       0       0       0       0       0       
      +0       0       0       0       0
  2576 ;;      Locals:         0       0       0       0       0       0       0       0       0       0       0       0       
      +0       0       0       0       0
  2577 ;;      Temps:          0       0       0       0       0       0       0       0       0       0       0       0       
      +0       0       0       0       0
  2578 ;;      Totals:         0       0       0       0       0       0       0       0       0       0       0       0       
      +0       0       0       0       0
  2579 ;;Total ram usage:        0 bytes
  2580 ;; Hardware stack levels used: 1
  2581 ;; This function calls:
  2582 ;;		Nothing
  2583 ;; This function is called by:
  2584 ;;		_InterruptManagmentHigh
  2585 ;; This function uses a non-reentrant model
  2586 ;;
  2587                           
  2588                           	psect	text17
  2589   001A4E                     __ptext17:
  2590                           	callstack 0
  2591   001A4E                     _INT2_ISR:
  2592                           	callstack 26
  2593   001A4E                     
  2594                           ;MCAL_Layer/Interrupt/Interrupt_external.c: 372:     (INTCON3bits.INT2IF=0);
  2595   001A4E  92F0               	bcf	240,1,c	;volatile
  2596   001A50  0012               	return		;funcret
  2597   001A52                     __end_of_INT2_ISR:
  2598                           	callstack 0
  2599                           
  2600 ;; *************** function _INT1_ISR *****************
  2601 ;; Defined at:
  2602 ;;		line 364 in file "MCAL_Layer/Interrupt/Interrupt_external.c"
  2603 ;; Parameters:    Size  Location     Type
  2604 ;;		None
  2605 ;; Auto vars:     Size  Location     Type
  2606 ;;		None
  2607 ;; Return value:  Size  Location     Type
  2608 ;;                  1    wreg      void 
  2609 ;; Registers used:
  2610 ;;		None
  2611 ;; Tracked objects:
  2612 ;;		On entry : 0/0
  2613 ;;		On exit  : 0/0
  2614 ;;		Unchanged: 0/0
  2615 ;; Data sizes:     COMRAM   BANK0   BANK1   BANK2   BANK3   BANK4   BANK5   BANK6   BANK7   BANK8   BANK9  BANK10  BANK1
      +1  BANK12  BANK13  BANK14  BANK15
  2616 ;;      Params:         0       0       0       0       0       0       0       0       0       0       0       0       
      +0       0       0       0       0
  2617 ;;      Locals:         0       0       0       0       0       0       0       0       0       0       0       0       
      +0       0       0       0       0
  2618 ;;      Temps:          0       0       0       0       0       0       0       0       0       0       0       0       
      +0       0       0       0       0
  2619 ;;      Totals:         0       0       0       0       0       0       0       0       0       0       0       0       
      +0       0       0       0       0
  2620 ;;Total ram usage:        0 bytes
  2621 ;; Hardware stack levels used: 1
  2622 ;; This function calls:
  2623 ;;		Nothing
  2624 ;; This function is called by:
  2625 ;;		_InterruptManagmentHigh
  2626 ;; This function uses a non-reentrant model
  2627 ;;
  2628                           
  2629                           	psect	text18
  2630   001A52                     __ptext18:
  2631                           	callstack 0
  2632   001A52                     _INT1_ISR:
  2633                           	callstack 26
  2634   001A52                     
  2635                           ;MCAL_Layer/Interrupt/Interrupt_external.c: 365:     (INTCON3bits.INT1IF=0);
  2636   001A52  90F0               	bcf	240,0,c	;volatile
  2637   001A54  0012               	return		;funcret
  2638   001A56                     __end_of_INT1_ISR:
  2639                           	callstack 0
  2640                           
  2641 ;; *************** function _INT0_ISR *****************
  2642 ;; Defined at:
  2643 ;;		line 357 in file "MCAL_Layer/Interrupt/Interrupt_external.c"
  2644 ;; Parameters:    Size  Location     Type
  2645 ;;		None
  2646 ;; Auto vars:     Size  Location     Type
  2647 ;;		None
  2648 ;; Return value:  Size  Location     Type
  2649 ;;                  1    wreg      void 
  2650 ;; Registers used:
  2651 ;;		None
  2652 ;; Tracked objects:
  2653 ;;		On entry : 0/0
  2654 ;;		On exit  : 0/0
  2655 ;;		Unchanged: 0/0
  2656 ;; Data sizes:     COMRAM   BANK0   BANK1   BANK2   BANK3   BANK4   BANK5   BANK6   BANK7   BANK8   BANK9  BANK10  BANK1
      +1  BANK12  BANK13  BANK14  BANK15
  2657 ;;      Params:         0       0       0       0       0       0       0       0       0       0       0       0       
      +0       0       0       0       0
  2658 ;;      Locals:         0       0       0       0       0       0       0       0       0       0       0       0       
      +0       0       0       0       0
  2659 ;;      Temps:          0       0       0       0       0       0       0       0       0       0       0       0       
      +0       0       0       0       0
  2660 ;;      Totals:         0       0       0       0       0       0       0       0       0       0       0       0       
      +0       0       0       0       0
  2661 ;;Total ram usage:        0 bytes
  2662 ;; Hardware stack levels used: 1
  2663 ;; This function calls:
  2664 ;;		Nothing
  2665 ;; This function is called by:
  2666 ;;		_InterruptManagmentHigh
  2667 ;; This function uses a non-reentrant model
  2668 ;;
  2669                           
  2670                           	psect	text19
  2671   001A56                     __ptext19:
  2672                           	callstack 0
  2673   001A56                     _INT0_ISR:
  2674                           	callstack 26
  2675   001A56                     
  2676                           ;MCAL_Layer/Interrupt/Interrupt_external.c: 358:     (INTCONbits.INT0IF=0);
  2677   001A56  92F2               	bcf	242,1,c	;volatile
  2678   001A58  0012               	return		;funcret
  2679   001A5A                     __end_of_INT0_ISR:
  2680                           	callstack 0
  2681                           
  2682 ;; *************** function _ADC_ISR *****************
  2683 ;; Defined at:
  2684 ;;		line 322 in file "MCAL_Layer/ADC/ADC.c"
  2685 ;; Parameters:    Size  Location     Type
  2686 ;;		None
  2687 ;; Auto vars:     Size  Location     Type
  2688 ;;		None
  2689 ;; Return value:  Size  Location     Type
  2690 ;;                  1    wreg      void 
  2691 ;; Registers used:
  2692 ;;		None
  2693 ;; Tracked objects:
  2694 ;;		On entry : 0/0
  2695 ;;		On exit  : 0/0
  2696 ;;		Unchanged: 0/0
  2697 ;; Data sizes:     COMRAM   BANK0   BANK1   BANK2   BANK3   BANK4   BANK5   BANK6   BANK7   BANK8   BANK9  BANK10  BANK1
      +1  BANK12  BANK13  BANK14  BANK15
  2698 ;;      Params:         0       0       0       0       0       0       0       0       0       0       0       0       
      +0       0       0       0       0
  2699 ;;      Locals:         0       0       0       0       0       0       0       0       0       0       0       0       
      +0       0       0       0       0
  2700 ;;      Temps:          0       0       0       0       0       0       0       0       0       0       0       0       
      +0       0       0       0       0
  2701 ;;      Totals:         0       0       0       0       0       0       0       0       0       0       0       0       
      +0       0       0       0       0
  2702 ;;Total ram usage:        0 bytes
  2703 ;; Hardware stack levels used: 1
  2704 ;; This function calls:
  2705 ;;		Nothing
  2706 ;; This function is called by:
  2707 ;;		_InterruptManagmentHigh
  2708 ;; This function uses a non-reentrant model
  2709 ;;
  2710                           
  2711                           	psect	text20
  2712   001A5A                     __ptext20:
  2713                           	callstack 0
  2714   001A5A                     _ADC_ISR:
  2715                           	callstack 26
  2716   001A5A                     
  2717                           ;MCAL_Layer/ADC/ADC.c: 323:     (PIR1bits.ADIF=0);
  2718   001A5A  9C9E               	bcf	158,6,c	;volatile
  2719   001A5C  0012               	return		;funcret
  2720   001A5E                     __end_of_ADC_ISR:
  2721                           	callstack 0
  2722                           
  2723                           	psect	text21
  2724   000000                     __ptext21:
  2725                           	callstack 0
  2726   000000                     
  2727                           	psect	rparam
  2728   000000                     
  2729                           	psect	temp
  2730   00006E                     btemp:
  2731                           	callstack 0
  2732   00006E                     	ds	1
  2733   000000                     int$flags	set	btemp
  2734   000000                     wtemp8	set	btemp+1
  2735   000000                     ttemp5	set	btemp+1
  2736   000000                     ttemp6	set	btemp+4
  2737   000000                     ttemp7	set	btemp+8
  2738                           
  2739                           	psect	idloc
  2740                           
  2741                           ;Config register IDLOC0 @ 0x200000
  2742                           ;	unspecified, using default values
  2743   200000                     	org	2097152
  2744   200000  FF                 	db	255
  2745                           
  2746                           ;Config register IDLOC1 @ 0x200001
  2747                           ;	unspecified, using default values
  2748   200001                     	org	2097153
  2749   200001  FF                 	db	255
  2750                           
  2751                           ;Config register IDLOC2 @ 0x200002
  2752                           ;	unspecified, using default values
  2753   200002                     	org	2097154
  2754   200002  FF                 	db	255
  2755                           
  2756                           ;Config register IDLOC3 @ 0x200003
  2757                           ;	unspecified, using default values
  2758   200003                     	org	2097155
  2759   200003  FF                 	db	255
  2760                           
  2761                           ;Config register IDLOC4 @ 0x200004
  2762                           ;	unspecified, using default values
  2763   200004                     	org	2097156
  2764   200004  FF                 	db	255
  2765                           
  2766                           ;Config register IDLOC5 @ 0x200005
  2767                           ;	unspecified, using default values
  2768   200005                     	org	2097157
  2769   200005  FF                 	db	255
  2770                           
  2771                           ;Config register IDLOC6 @ 0x200006
  2772                           ;	unspecified, using default values
  2773   200006                     	org	2097158
  2774   200006  FF                 	db	255
  2775                           
  2776                           ;Config register IDLOC7 @ 0x200007
  2777                           ;	unspecified, using default values
  2778   200007                     	org	2097159
  2779   200007  FF                 	db	255
  2780                           
  2781                           	psect	config
  2782                           
  2783                           ; Padding undefined space
  2784   300000                     	org	3145728
  2785   300000  FF                 	db	255
  2786                           
  2787                           ;Config register CONFIG1H @ 0x300001
  2788                           ;	Oscillator Selection bits
  2789                           ;	OSC = HS, HS oscillator
  2790                           ;	Fail-Safe Clock Monitor Enable bit
  2791                           ;	FCMEN = OFF, Fail-Safe Clock Monitor disabled
  2792                           ;	Internal/External Oscillator Switchover bit
  2793                           ;	IESO = OFF, Oscillator Switchover mode disabled
  2794   300001                     	org	3145729
  2795   300001  02                 	db	2
  2796                           
  2797                           ;Config register CONFIG2L @ 0x300002
  2798                           ;	Power-up Timer Enable bit
  2799                           ;	PWRT = OFF, PWRT disabled
  2800                           ;	Brown-out Reset Enable bits
  2801                           ;	BOREN = OFF, Brown-out Reset disabled in hardware and software
  2802                           ;	Brown Out Reset Voltage bits
  2803                           ;	BORV = 1, 
  2804   300002                     	org	3145730
  2805   300002  09                 	db	9
  2806                           
  2807                           ;Config register CONFIG2H @ 0x300003
  2808                           ;	Watchdog Timer Enable bit
  2809                           ;	WDT = OFF, WDT disabled (control is placed on the SWDTEN bit)
  2810                           ;	Watchdog Timer Postscale Select bits
  2811                           ;	WDTPS = 32768, 1:32768
  2812   300003                     	org	3145731
  2813   300003  1E                 	db	30
  2814                           
  2815                           ; Padding undefined space
  2816   300004                     	org	3145732
  2817   300004  FF                 	db	255
  2818                           
  2819                           ;Config register CONFIG3H @ 0x300005
  2820                           ;	CCP2 MUX bit
  2821                           ;	CCP2MX = PORTC, CCP2 input/output is multiplexed with RC1
  2822                           ;	PORTB A/D Enable bit
  2823                           ;	PBADEN = OFF, PORTB<4:0> pins are configured as digital I/O on Reset
  2824                           ;	Low-Power Timer1 Oscillator Enable bit
  2825                           ;	LPT1OSC = OFF, Timer1 configured for higher power operation
  2826                           ;	MCLR Pin Enable bit
  2827                           ;	MCLRE = ON, MCLR pin enabled; RE3 input pin disabled
  2828   300005                     	org	3145733
  2829   300005  81                 	db	129
  2830                           
  2831                           ;Config register CONFIG4L @ 0x300006
  2832                           ;	Stack Full/Underflow Reset Enable bit
  2833                           ;	STVREN = ON, Stack full/underflow will cause Reset
  2834                           ;	Single-Supply ICSP Enable bit
  2835                           ;	LVP = OFF, Single-Supply ICSP disabled
  2836                           ;	Extended Instruction Set Enable bit
  2837                           ;	XINST = OFF, Instruction set extension and Indexed Addressing mode disabled (Legacy mo
      +                          de)
  2838                           ;	Background Debugger Enable bit
  2839                           ;	DEBUG = 0x1, unprogrammed default
  2840   300006                     	org	3145734
  2841   300006  81                 	db	129
  2842                           
  2843                           ; Padding undefined space
  2844   300007                     	org	3145735
  2845   300007  FF                 	db	255
  2846                           
  2847                           ;Config register CONFIG5L @ 0x300008
  2848                           ;	Code Protection bit
  2849                           ;	CP0 = OFF, Block 0 (000800-003FFFh) not code-protected
  2850                           ;	Code Protection bit
  2851                           ;	CP1 = OFF, Block 1 (004000-007FFFh) not code-protected
  2852                           ;	Code Protection bit
  2853                           ;	CP2 = OFF, Block 2 (008000-00BFFFh) not code-protected
  2854                           ;	Code Protection bit
  2855                           ;	CP3 = OFF, Block 3 (00C000-00FFFFh) not code-protected
  2856   300008                     	org	3145736
  2857   300008  0F                 	db	15
  2858                           
  2859                           ;Config register CONFIG5H @ 0x300009
  2860                           ;	Boot Block Code Protection bit
  2861                           ;	CPB = OFF, Boot block (000000-0007FFh) not code-protected
  2862                           ;	Data EEPROM Code Protection bit
  2863                           ;	CPD = OFF, Data EEPROM not code-protected
  2864   300009                     	org	3145737
  2865   300009  C0                 	db	192
  2866                           
  2867                           ;Config register CONFIG6L @ 0x30000A
  2868                           ;	Write Protection bit
  2869                           ;	WRT0 = OFF, Block 0 (000800-003FFFh) not write-protected
  2870                           ;	Write Protection bit
  2871                           ;	WRT1 = OFF, Block 1 (004000-007FFFh) not write-protected
  2872                           ;	Write Protection bit
  2873                           ;	WRT2 = OFF, Block 2 (008000-00BFFFh) not write-protected
  2874                           ;	Write Protection bit
  2875                           ;	WRT3 = OFF, Block 3 (00C000-00FFFFh) not write-protected
  2876   30000A                     	org	3145738
  2877   30000A  0F                 	db	15
  2878                           
  2879                           ;Config register CONFIG6H @ 0x30000B
  2880                           ;	Configuration Register Write Protection bit
  2881                           ;	WRTC = OFF, Configuration registers (300000-3000FFh) not write-protected
  2882                           ;	Boot Block Write Protection bit
  2883                           ;	WRTB = OFF, Boot Block (000000-0007FFh) not write-protected
  2884                           ;	Data EEPROM Write Protection bit
  2885                           ;	WRTD = OFF, Data EEPROM not write-protected
  2886   30000B                     	org	3145739
  2887   30000B  E0                 	db	224
  2888                           
  2889                           ;Config register CONFIG7L @ 0x30000C
  2890                           ;	Table Read Protection bit
  2891                           ;	EBTR0 = OFF, Block 0 (000800-003FFFh) not protected from table reads executed in other
      +                           blocks
  2892                           ;	Table Read Protection bit
  2893                           ;	EBTR1 = OFF, Block 1 (004000-007FFFh) not protected from table reads executed in other
      +                           blocks
  2894                           ;	Table Read Protection bit
  2895                           ;	EBTR2 = OFF, Block 2 (008000-00BFFFh) not protected from table reads executed in other
      +                           blocks
  2896                           ;	Table Read Protection bit
  2897                           ;	EBTR3 = OFF, Block 3 (00C000-00FFFFh) not protected from table reads executed in other
      +                           blocks
  2898   30000C                     	org	3145740
  2899   30000C  0F                 	db	15
  2900                           
  2901                           ;Config register CONFIG7H @ 0x30000D
  2902                           ;	Boot Block Table Read Protection bit
  2903                           ;	EBTRB = OFF, Boot Block (000000-0007FFh) not protected from table reads executed in ot
      +                          her blocks
  2904   30000D                     	org	3145741
  2905   30000D  40                 	db	64
  2906                           tosu	equ	0xFFF
  2907                           tosh	equ	0xFFE
  2908                           tosl	equ	0xFFD
  2909                           stkptr	equ	0xFFC
  2910                           pclatu	equ	0xFFB
  2911                           pclath	equ	0xFFA
  2912                           pcl	equ	0xFF9
  2913                           tblptru	equ	0xFF8
  2914                           tblptrh	equ	0xFF7
  2915                           tblptrl	equ	0xFF6
  2916                           tablat	equ	0xFF5
  2917                           prodh	equ	0xFF4
  2918                           prodl	equ	0xFF3
  2919                           indf0	equ	0xFEF
  2920                           postinc0	equ	0xFEE
  2921                           postdec0	equ	0xFED
  2922                           preinc0	equ	0xFEC
  2923                           plusw0	equ	0xFEB
  2924                           fsr0h	equ	0xFEA
  2925                           fsr0l	equ	0xFE9
  2926                           wreg	equ	0xFE8
  2927                           indf1	equ	0xFE7
  2928                           postinc1	equ	0xFE6
  2929                           postdec1	equ	0xFE5
  2930                           preinc1	equ	0xFE4
  2931                           plusw1	equ	0xFE3
  2932                           fsr1h	equ	0xFE2
  2933                           fsr1l	equ	0xFE1
  2934                           bsr	equ	0xFE0
  2935                           indf2	equ	0xFDF
  2936                           postinc2	equ	0xFDE
  2937                           postdec2	equ	0xFDD
  2938                           preinc2	equ	0xFDC
  2939                           plusw2	equ	0xFDB
  2940                           fsr2h	equ	0xFDA
  2941                           fsr2l	equ	0xFD9
  2942                           status	equ	0xFD8

Data Sizes:
    Strings     3
    Constant    0
    Data        58
    BSS         57
    Persistent  0
    Stack       0

Auto Spaces:
    Space          Size  Autos    Used
    COMRAM          126     21     109
    BANK0           128     13      40
    BANK1           256      0       0
    BANK2           256      0       0
    BANK3           256      0       0
    BANK4           256      0       0
    BANK5           256      0       0
    BANK6           256      0       0
    BANK7           256      0       0
    BANK8           256      0       0
    BANK9           256      0       0
    BANK10          256      0       0
    BANK11          256      0       0
    BANK12          256      0       0
    BANK13          256      0       0
    BANK14          256      0       0
    BANK15          128      0       0

Pointer List with Targets:

    vfprintf$2	PTR PTR void  size(2) Largest target is 2
		 -> sprintf@ap(COMRAM[2]), 

    vfprintf$1	PTR const unsigned char  size(2) Largest target is 3
		 -> STR_3(CODE[3]), STR_2(CODE[3]), STR_1(CODE[3]), 

    vfprintf$0	PTR struct _IO_FILE size(2) Largest target is 12
		 -> sprintf@f(COMRAM[12]), 

    S2499$source	PTR const unsigned char  size(2) Largest target is 0

    f...source	PTR const unsigned char  size(2) Largest target is 0

    S2499$buffer	PTR unsigned char  size(2) Largest target is 0

    f...buffer	PTR unsigned char  size(2) Largest target is 0

    timer0_module.timer0_callback	PTR FTN()void  size(2) Largest target is 1
		 -> timer0(), 

    timer0_read@ptr.timer0_callback	PTR FTN()void  size(2) Largest target is 1
		 -> timer0(), 

    timer0_write@ptr.timer0_callback	PTR FTN()void  size(2) Largest target is 1
		 -> timer0(), 

    timer0_callback_ptr	PTR FTN()void  size(2) Largest target is 1
		 -> timer0(), NULL(), 

    S1866$timer0_callback	PTR FTN()void  size(2) Largest target is 1
		 -> timer0(), 

    timer0_int@ptr.timer0_callback	PTR FTN()void  size(2) Largest target is 1
		 -> timer0(), 

    timer0_int@ptr	PTR const struct . size(2) Largest target is 0

    Intx_set_interrupt_Handeler@intx.interrupt_callback	PTR FTN()void  size(2) Largest target is 0

    Int2_interrupt_Handeler	PTR FTN()void  size(2) Largest target is 1
		 -> NULL(), 

    Int1_interrupt_Handeler	PTR FTN()void  size(2) Largest target is 1
		 -> NULL(), 

    Int0_interrupt_Handeler	PTR FTN()void  size(2) Largest target is 1
		 -> NULL(), 

    interrupt_intx_pin@intx.interrupt_callback	PTR FTN()void  size(2) Largest target is 0

    interrupt_intx_edge@intx.interrupt_callback	PTR FTN()void  size(2) Largest target is 0

    interrupt_intx_disable@intx.interrupt_callback	PTR FTN()void  size(2) Largest target is 0

    S1569$interrupt_callback	PTR FTN()void  size(2) Largest target is 0

    interrupt_intx_enable@intx.interrupt_callback	PTR FTN()void  size(2) Largest target is 0

    RB7_HIGH_interrupt_Handeler	PTR FTN()void  size(2) Largest target is 1
		 -> NULL(), 

    RB7_LOW_interrupt_Handeler	PTR FTN()void  size(2) Largest target is 1
		 -> NULL(), 

    RB6_HIGH_interrupt_Handeler	PTR FTN()void  size(2) Largest target is 1
		 -> NULL(), 

    RB6_LOW_interrupt_Handeler	PTR FTN()void  size(2) Largest target is 1
		 -> NULL(), 

    RB5_HIGH_interrupt_Handeler	PTR FTN()void  size(2) Largest target is 1
		 -> NULL(), 

    RB5_LOW_interrupt_Handeler	PTR FTN()void  size(2) Largest target is 1
		 -> NULL(), 

    RB4_HIGH_interrupt_Handeler	PTR FTN()void  size(2) Largest target is 1
		 -> NULL(), 

    RB4_LOW_interrupt_Handeler	PTR FTN()void  size(2) Largest target is 1
		 -> NULL(), 

    S1633$interrupt_callback_HIGH	PTR FTN()void  size(2) Largest target is 0

    interrupt_rbx_int@rbx.interrupt_callback_HIGH	PTR FTN()void  size(2) Largest target is 0

    S1633$interrupt_callback_LOW	PTR FTN()void  size(2) Largest target is 0

    interrupt_rbx_int@rbx.interrupt_callback_LOW	PTR FTN()void  size(2) Largest target is 0

    gpio_pin_int@pin_cfg	PTR const struct . size(2) Largest target is 1
		 -> led_int@pin_cfg(BANK0[1]), 

    gpio_pin_toggle_level@pin_cfg	PTR const struct . size(2) Largest target is 1
		 -> relay_toggel@relay_pin(COMRAM[1]), led_toggel@pin_cfg(BANK0[1]), 

    gpio_pin_write_level@pin_cfg	PTR const struct . size(2) Largest target is 1
		 -> relay_off@relay_pin(COMRAM[1]), relay_on@relay_pin(COMRAM[1]), relay_int@relay_pin(COMRAM[1]), led_off@pin_cfg(COMRAM[1]), 
		 -> led_on@pin_cfg(COMRAM[1]), led_int@pin_cfg(BANK0[1]), 

    gpio_pin_direction_int@pin_cfg	PTR const struct . size(2) Largest target is 1
		 -> relay_int@relay_pin(COMRAM[1]), led_int@pin_cfg(BANK0[1]), 

    Tris_Regs	PTR volatile unsigned char [5] size(2) Largest target is 1
		 -> TRISD(ABS[1]), TRISC(ABS[1]), TRISB(ABS[1]), TRISE(ABS[1]), 
		 -> TRISA(BITBIGSFRlllll[1]), 

    Lat_Regs	PTR volatile unsigned char [5] size(2) Largest target is 1
		 -> LATE(BITBIGSFRllllh[1]), LATD(BITBIGSFRllllh[1]), LATC(BITBIGSFRllllh[1]), LATB(BITBIGSFRllllh[1]), 
		 -> LATA(BITBIGSFRlllll[1]), 

    Port_Regs	PTR volatile unsigned char [5] size(2) Largest target is 1
		 -> PORTE(BITBIGSFRlllll[1]), PORTD(BITBIGSFRlllll[1]), PORTC(BITBIGSFRlllll[1]), PORTB(BITBIGSFRlllll[1]), 
		 -> PORTA(BITBIGSFRlllll[1]), 

    adc_reading_mode_cfg@adc.ADC_callback	PTR FTN()void  size(2) Largest target is 0

    adc_Vref_cfg@adc.ADC_callback	PTR FTN()void  size(2) Largest target is 0

    adc_reading_value@adc.ADC_callback	PTR FTN()void  size(2) Largest target is 0

    ADC_Interrupt_handler	PTR FTN()void  size(2) Largest target is 1
		 -> NULL(), 

    S719$ADC_callback	PTR FTN()void  size(2) Largest target is 0

    adc_int@adc.ADC_callback	PTR FTN()void  size(2) Largest target is 0

    led_toggel@led_cfg	PTR struct . size(2) Largest target is 1
		 -> led1(COMRAM[1]), 

    led_int@led_cfg	PTR struct . size(2) Largest target is 1
		 -> led1(COMRAM[1]), 

    sp__memset	PTR void  size(2) Largest target is 0


Critical Paths under _main in COMRAM

    _main->_led_int
    _main->_led_toggel
    _main->_timer0_int
    _led_toggel->_gpio_pin_toggle_level
    _gpio_pin_int->_gpio_pin_write_level

Critical Paths under _InterruptManagmentHigh in COMRAM

    _timer0->i2_led_toggel
    i2_led_toggel->i2_gpio_pin_toggle_level

Critical Paths under _main in BANK0

    _main->_led_int
    _led_toggel->_gpio_pin_toggle_level
    _led_int->_gpio_pin_int
    _gpio_pin_int->_gpio_pin_direction_int
    _gpio_pin_int->_gpio_pin_write_level

Critical Paths under _InterruptManagmentHigh in BANK0

    None.

Critical Paths under _main in BANK1

    None.

Critical Paths under _InterruptManagmentHigh in BANK1

    None.

Critical Paths under _main in BANK2

    None.

Critical Paths under _InterruptManagmentHigh in BANK2

    None.

Critical Paths under _main in BANK3

    None.

Critical Paths under _InterruptManagmentHigh in BANK3

    None.

Critical Paths under _main in BANK4

    None.

Critical Paths under _InterruptManagmentHigh in BANK4

    None.

Critical Paths under _main in BANK5

    None.

Critical Paths under _InterruptManagmentHigh in BANK5

    None.

Critical Paths under _main in BANK6

    None.

Critical Paths under _InterruptManagmentHigh in BANK6

    None.

Critical Paths under _main in BANK7

    None.

Critical Paths under _InterruptManagmentHigh in BANK7

    None.

Critical Paths under _main in BANK8

    None.

Critical Paths under _InterruptManagmentHigh in BANK8

    None.

Critical Paths under _main in BANK9

    None.

Critical Paths under _InterruptManagmentHigh in BANK9

    None.

Critical Paths under _main in BANK10

    None.

Critical Paths under _InterruptManagmentHigh in BANK10

    None.

Critical Paths under _main in BANK11

    None.

Critical Paths under _InterruptManagmentHigh in BANK11

    None.

Critical Paths under _main in BANK12

    None.

Critical Paths under _InterruptManagmentHigh in BANK12

    None.

Critical Paths under _main in BANK13

    None.

Critical Paths under _InterruptManagmentHigh in BANK13

    None.

Critical Paths under _main in BANK14

    None.

Critical Paths under _InterruptManagmentHigh in BANK14

    None.

Critical Paths under _main in BANK15

    None.

Critical Paths under _InterruptManagmentHigh in BANK15

    None.

Call Graph Tables:

 ---------------------------------------------------------------------------------
 (Depth) Function   	        Calls       Base Space   Used Autos Params    Refs
 ---------------------------------------------------------------------------------
 (0) _main                                                 2     2      0   11145
                                             11 BANK0      2     2      0
                            _led_int
                         _led_toggel
                         _timer0_int
 ---------------------------------------------------------------------------------
 (1) _timer0_int                                           5     3      2     327
                                             17 COMRAM     4     2      2
 ---------------------------------------------------------------------------------
 (1) _led_toggel                                           5     3      2     623
                                             19 COMRAM     2     0      2
                                              5 BANK0      2     2      0
              _gpio_pin_toggle_level
 ---------------------------------------------------------------------------------
 (2) _gpio_pin_toggle_level                                8     6      2     286
                                             17 COMRAM     2     0      2
                                              0 BANK0      5     5      0
 ---------------------------------------------------------------------------------
 (1) _led_int                                              5     3      2   10195
                                             20 COMRAM     1     1      0
                                              8 BANK0      3     1      2
                       _gpio_pin_int
 ---------------------------------------------------------------------------------
 (2) _gpio_pin_int                                         3     1      2    9895
                                              6 BANK0      2     0      2
             _gpio_pin_direction_int
               _gpio_pin_write_level
 ---------------------------------------------------------------------------------
 (3) _gpio_pin_write_level                                10     7      3    7759
                                             17 COMRAM     3     0      3
                                              0 BANK0      6     6      0
 ---------------------------------------------------------------------------------
 (3) _gpio_pin_direction_int                               9     7      2    1282
                                             17 COMRAM     2     0      2
                                              0 BANK0      6     6      0
 ---------------------------------------------------------------------------------
 Estimated maximum stack depth 3
 ---------------------------------------------------------------------------------
 (Depth) Function   	        Calls       Base Space   Used Autos Params    Refs
 ---------------------------------------------------------------------------------
 (4) _InterruptManagmentHigh                               6     6      0     482
                                             11 COMRAM     6     6      0
                            _ADC_ISR
                           _INT0_ISR
                           _INT1_ISR
                           _INT2_ISR
                            _RB4_ISR
                            _RB5_ISR
                            _RB6_ISR
                            _RB7_ISR
                         _TIMER0_ISR
 ---------------------------------------------------------------------------------
 (5) _TIMER0_ISR                                           0     0      0     362
                                NULL *
                             _timer0 *
 ---------------------------------------------------------------------------------
 (6) _timer0                                               0     0      0     362
                       i2_led_toggel
 ---------------------------------------------------------------------------------
 (7) i2_led_toggel                                         5     3      2     362
                                              7 COMRAM     4     2      2
            i2_gpio_pin_toggle_level
 ---------------------------------------------------------------------------------
 (8) i2_gpio_pin_toggle_level                              8     6      2     141
                                              0 COMRAM     7     5      2
 ---------------------------------------------------------------------------------
 (6) NULL(Fake)                                            0     0      0       0
 ---------------------------------------------------------------------------------
 (5) _RB7_ISR                                              1     1      0      30
                                              0 COMRAM     1     1      0
 ---------------------------------------------------------------------------------
 (5) _RB6_ISR                                              1     1      0      30
                                              0 COMRAM     1     1      0
 ---------------------------------------------------------------------------------
 (5) _RB5_ISR                                              1     1      0      30
                                              0 COMRAM     1     1      0
 ---------------------------------------------------------------------------------
 (5) _RB4_ISR                                              1     1      0      30
                                              0 COMRAM     1     1      0
 ---------------------------------------------------------------------------------
 (5) _INT2_ISR                                             0     0      0       0
 ---------------------------------------------------------------------------------
 (5) _INT1_ISR                                             0     0      0       0
 ---------------------------------------------------------------------------------
 (5) _INT0_ISR                                             0     0      0       0
 ---------------------------------------------------------------------------------
 (5) _ADC_ISR                                              0     0      0       0
 ---------------------------------------------------------------------------------
 Estimated maximum stack depth 8
 ---------------------------------------------------------------------------------

 Call Graph Graphs:

 _main (ROOT)
   _led_int
     _gpio_pin_int
       _gpio_pin_direction_int
       _gpio_pin_write_level
   _led_toggel
     _gpio_pin_toggle_level
   _timer0_int

 _InterruptManagmentHigh (ROOT)
   _ADC_ISR
   _INT0_ISR
   _INT1_ISR
   _INT2_ISR
   _RB4_ISR
   _RB5_ISR
   _RB6_ISR
   _RB7_ISR
   _TIMER0_ISR
     NULL(Fake) *
     _timer0 *
       i2_led_toggel
         i2_gpio_pin_toggle_level

 Address spaces:
Name               Size   Autos  Total    Cost      Usage
BIGRAM             F7F      0       0      45        0.0%
EEDATA             400      0       0       0        0.0%
BITBANK14          100      0       0      32        0.0%
BANK14             100      0       0      33        0.0%
BITBANK13          100      0       0      30        0.0%
BANK13             100      0       0      31        0.0%
BITBANK12          100      0       0      28        0.0%
BANK12             100      0       0      29        0.0%
BITBANK11          100      0       0      26        0.0%
BANK11             100      0       0      27        0.0%
BITBANK10          100      0       0      24        0.0%
BANK10             100      0       0      25        0.0%
BITBANK9           100      0       0      22        0.0%
BANK9              100      0       0      23        0.0%
BITBANK8           100      0       0      20        0.0%
BANK8              100      0       0      21        0.0%
BITBANK7           100      0       0      18        0.0%
BANK7              100      0       0      19        0.0%
BITBANK6           100      0       0      16        0.0%
BANK6              100      0       0      17        0.0%
BITBANK5           100      0       0      14        0.0%
BANK5              100      0       0      15        0.0%
BITBANK4           100      0       0      12        0.0%
BANK4              100      0       0      13        0.0%
BITBANK3           100      0       0      10        0.0%
BANK3              100      0       0      11        0.0%
BITBANK2           100      0       0       8        0.0%
BANK2              100      0       0       9        0.0%
BITBANK1           100      0       0       6        0.0%
BANK1              100      0       0       7        0.0%
BITBANK15           80      0       0      34        0.0%
BANK15              80      0       0      35        0.0%
BITBANK0            80      0       0       4        0.0%
BANK0               80      D      28       5       31.2%
BITCOMRAM           7E      0       0       0        0.0%
COMRAM              7E     15      6D       1       86.5%
BITBIGSFRhlhlh      18      0       0      37        0.0%
BITBIGSFRllhh       15      0       0      39        0.0%
BITBIGSFRhlhll      10      0       0      38        0.0%
BITBIGSFRhh          D      0       0      36        0.0%
BITBIGSFRllhll       7      0       0      40        0.0%
BITBIGSFRlllhh       6      0       0      41        0.0%
BITBIGSFRllllh       4      0       0      42        0.0%
BITBIGSFRlllll       4      0       0      43        0.0%
BIGSFR               0      0       0     200        0.0%
BITSFR               0      0       0     200        0.0%
SFR                  0      0       0     200        0.0%
STACK                0      0       0       2        0.0%
NULL                 0      0       0       0        0.0%
ABS                  0      0      95      44        0.0%
DATA                 0      0      95       3        0.0%
CODE                 0      0       0       0        0.0%


Microchip Technology PIC18 Macro Assembler V2.41 build 20230208172133 
Symbol Table                                                                                   Thu Jul 06 19:05:16 2023

                            l249 1730                              l267 16BC                              l800 1402  
                            l473 1542                              l801 13FC                              l803 1404  
                            l485 1648                              l493 17A0                              l805 1424  
                            l497 1966                              l796 1354                              l797 1384  
                            l798 13BE          _Int2_interrupt_Handeler 001F                  __end_of_ADC_ISR 1A5E  
        ?_gpio_pin_direction_int 006A                              prod 0FF3                              tosl 0FFD  
                            wreg 0FE8                      led_on@F3059 002D                  __end_of_RB4_ISR 1A30  
                __end_of_RB5_ISR 1A16                  __end_of_RB6_ISR 19FC                  __end_of_RB7_ISR 19E2  
            gpio_pin_int@pin_cfg 0096                             l3501 141E                             l3503 1420  
                           l3505 1424                             l4413 1928                             l4351 1426  
                           l4415 1928                             l3471 130E                             l4361 14A0  
                           l4353 1426                             l4417 193C                             l3481 139E  
                           l3473 1322                             l5331 152C                             l4451 1732  
                           l3491 13F6                             l3483 13A0                             l3475 133E  
                           l3467 12FC                             l4357 143C                             l4381 155A  
                           l4453 1732                             l3493 1408                             l3485 13C0  
                           l3477 1340                             l3469 12FC                             l4359 149C  
                           l4367 14FE                             l4383 15B8                             l4375 1544  
                           l4455 1744                             l3495 1418                             l3487 13DA  
                           l3479 1356                             l5271 18E0                             l5329 1632  
                           l4385 1618                             l4377 1544                             l4561 16DA  
                           l4553 16BE                             l4457 17A0                             l3497 141A  
                           l3489 13DC                             l5273 18EE                             l4563 16F6  
                           l4555 16BE                             l4571 164A                             l3499 141C  
                           l5275 18FA                             l4389 161C                             l4565 1712  
                           l4557 16C2                             l4581 1682                             l4573 164A  
                           l5277 1906                             l4567 1724                             l4559 16C6  
                           l4583 169E                             l4575 164E                             l4585 16B0  
                           l4577 1652                             l4579 1666                             STR_1 1001  
                           _LATA 0F89                             _LATB 0F8A                             _LATC 0F8B  
                           _LATD 0F8C                             _LATE 0F8D                             u2500 139E  
                           u2501 139A                             u2510 13DA                             u2511 13D6  
                           u2520 13F6                             u2521 13F2                             u2480 130E  
                           u2481 130A                             u2490 133E                             u2491 133A  
                           u3640 1438                             u3704 1578                             u3800 1744  
                           u3641 1434                             u3705 1574                             u3801 1740  
                           u3714 15D6                             u3715 15D2                             u3740 193C  
                           u3741 1938                             u3670 1516                             u3654 145A  
                           u3814 1764                             u3671 1510                             u3655 1456  
                           u3815 1760                             u3680 1518                             u3664 14BE  
                           u3665 14BA                             u3690 1556                             u3691 1552  
                           u3950 1724                             u3951 1720                             u3945 16D6  
                           u3970 16B0                             u3947 16DA                             u3971 16AC  
                           u3965 1662                             u3967 1666                             u4897 1912  
                           _led1 0058                             _main 18E0                             fsr2h 0FDA  
                           indf2 0FDF                             fsr1l 0FE1                             fsr2l 0FD9  
                           btemp 006E                             prodh 0FF4                             prodl 0FF3  
                           start 000E                     ___param_bank 0000           ?_gpio_pin_toggle_level 006A  
           _gpio_pin_write_level 1544                      ?_TIMER0_ISR 0059                 __end_of_INT0_ISR 1A5A  
               __end_of_INT1_ISR 1A56                 __end_of_INT2_ISR 1A52                            ?_main 0059  
                          _EEADR 0FA9   __end_of_gpio_pin_direction_int 1544                     led_off@F3064 002C  
                          i2l601 12E0                            i2l267 1810                            i2l428 1A5C  
                          i2l740 1A54                            i2l493 187C                            i2l736 1A58  
                          i2l744 1A50                            i2l753 1A2E                            i2l841 1A4C  
                          i2l762 1A14                            i2l771 19FA                            i2l780 19E0  
                          i2l828 199C                            _TMR0H 0FD7                            _TMR0L 0FD6  
                          _PORTA 0F80                            _PORTB 0F81                            _PORTC 0F82  
                          _PORTD 0F83                            _PORTE 0F84                            _TRISA 0F92  
                          _TRISB 0F93                            _TRISC 0F94                            _TRISD 0F95  
                          _TRISE 0F96                     led_int@F3054 002E                  __end_of_led_int 1732  
                          pclath 0FFA                            pclatu 0FFB                            tablat 0FF5  
                          ttemp5 006F                            ttemp6 0072                            ttemp7 0076  
                          status 0FD8                            wtemp8 006F         ??_InterruptManagmentHigh 0064  
                   RB4_ISR@flage 0059                  __initialization 187E          i2_gpio_pin_toggle_level 1812  
                  ?_gpio_pin_int 0096                     __end_of_main 1928            ?_gpio_pin_write_level 006A  
                      ??_ADC_ISR 0059              i2led_toggel@led_cfg 0060                     RB5_ISR@flage 0059  
                         ??_main 009B              i2led_toggel@pin_cfg 0063                    __activetblptr 0003  
                      ??_RB4_ISR 0059                        ??_RB5_ISR 0059                        ??_RB6_ISR 0059  
                      ??_RB7_ISR 0059                     RB6_ISR@flage 0059                           _ADRESH 0FC4  
                         _EEADRH 0FAA                           _ADRESL 0FC3                           _EEDATA 0FA8  
                         _EECON2 0FA7                           i2l5101 10BA                           i2l5111 10EE  
                         i2l5103 10BE                           i2l4401 17A8                           i2l5121 1124  
                         i2l5113 10FE                           i2l5105 10C4                           i2l1851 1A56  
                         i2l4403 17BA                           i2l5131 115A                           i2l5123 1132  
                         i2l5115 1102                           i2l5107 10D2                           i2l4341 1812  
                         i2l4405 17D6                           i2l5133 1168                           i2l5141 1190  
                         i2l5125 1142                           i2l5109 10E0                           i2l5117 1108  
                         i2l1847 1A5A                           i2l1855 1A52                           i2l1863 1A18  
                         i2l4343 1812                           i2l4407 17F2                           i2l5151 11CE  
                         i2l5143 119E                           i2l5135 1176                           i2l5127 1146  
                         i2l5119 1116                           i2l1865 1A1A                           i2l1873 19FE  
                         i2l4345 1824                           i2l4409 1804                           i2l5161 120E  
                         i2l5145 11AC                           i2l5153 11D4                           i2l5137 1186  
                         i2l5129 114C                           i2l5081 1040                           i2l1859 1A4E  
                         i2l1875 1A00                           i2l1883 19E4                           i2l4347 187C  
                         i2l5171 1242                           i2l5163 1212                           i2l5155 11E2  
                         i2l5147 11BA                           i2l5139 118A                           i2l5091 107C  
                         i2l5083 104E                           i2l5075 1020                           i2l1869 1A2E  
                         i2l1885 19E6                           i2l1893 19CA                           i2l4461 1A40  
                         i2l5181 1278                           i2l5173 1252                           i2l5157 11F0  
                         i2l5165 1218                           i2l5149 11CA                           i2l5093 1080  
                         i2l5085 105C                           i2l5077 102E                           i2l1879 1A14  
                         i2l1895 19CC                           i2l5191 12AE                           i2l5183 1286  
                         i2l5175 1256                           i2l5167 1226                           i2l5159 11FE  
                         i2l5095 108E                           i2l5087 1060                           i2l5079 103C  
                         i2l1889 19FA                           i2l5193 12BC                           i2l5185 1296  
                         i2l5169 1234                           i2l5177 125C                           i2l5097 109C  
                         i2l5089 106E                           i2l1899 19E0                           i2l4395 17A2  
                         i2l5195 12C0                           i2l5187 129A                           i2l5179 126A  
                         i2l5099 10AA                           i2l4397 17A2                           i2l5197 12CE  
                         i2l5189 12A0                           i2l4399 17A6                           i2l4591 196A  
                         i2l5199 12DC                           i2l4593 196E                           i2l4595 1972  
                         i2l4597 1984                           i2l4589 1968                     RB7_ISR@flage 0059  
                   i2_led_toggel 17A2                   ??_gpio_pin_int 006D                           clear_0 18C4  
                         clear_1 18D0                           _timer0 1A40                           isa$std 0001  
                      ??_led_int 006D                     __pdataCOMRAM 002F                     __mediumconst 0000  
                         tblptrh 0FF7                           tblptrl 0FF6                           tblptru 0FF8  
    _RB5_HIGH_interrupt_Handeler 0017                       __accesstop 0080          __end_of__initialization 18D6  
                      ?_INT0_ISR 0059                        ?_INT1_ISR 0059                        ?_INT2_ISR 0059  
                  ___rparam_used 0001        ??i2_gpio_pin_toggle_level 005B           ??_gpio_pin_write_level 0090  
                 __pcstackCOMRAM 0059                     __pidataBANK0 1A30                       __pbssBANK0 009D  
     _RB5_LOW_interrupt_Handeler 0019                       ??_INT0_ISR 0059                       ??_INT1_ISR 0059  
                     ??_INT2_ISR 0059          ??_gpio_pin_toggle_level 0090                  led_toggel@F3069 002B  
                   ??_TIMER0_ISR 0064                          _ADC_ISR 1A5A                          ?_timer0 0059  
                        _RB4_ISR 1A16          _Int1_interrupt_Handeler 0021                          _RB5_ISR 19FC  
                        _RB6_ISR 19E2                          _RB7_ISR 19C8           _InterruptManagmentHigh 0008  
                        i2u44_40 1A2A                          i2u44_41 1A26                          i2u45_40 1A10  
                        i2u45_41 1A0C                          i2u46_40 19F6                          i2u46_41 19F2  
                        i2u47_40 19DC                          i2u47_41 19D8             __end_of_gpio_pin_int 1968  
                     _led_toggel 164A               __end_of_TIMER0_ISR 199E                          __Hparam 0000  
                        __Lparam 0000                     __psmallconst 1000   i2gpio_pin_toggle_level@pin_cfg 0059  
                        __pcinit 187E                          __ramtop 1000                          _flage_4 0057  
                        _flage_5 0056                          _flage_6 0055                          _flage_7 0054  
                        __ptext0 18E0                          __ptext1 12FC                    relay_on@F3058 0029  
                        __ptext2 164A                          __ptext3 1732                          __ptext4 16BE  
                        __ptext5 1928                          __ptext6 1544                          __ptext7 1426  
                        __ptext9 1968                        _T0CONbits 0FD5                          _led_int 16BE  
        convert_int_to_str@F3236 009D                   __pintcode_body 1006             end_of_initialization 18D6  
              led_toggel@led_cfg 006C                          int_func 1006                led_toggel@pin_cfg 0096  
                 led_int@led_cfg 0098                       _timer0_int 12FC                          postdec1 0FE5  
                        postdec2 0FDD                          postinc0 0FEE                          postinc2 0FDE  
                 led_int@pin_cfg 009A                        _PORTBbits 0F81        convert_short_to_str@F3230 0001  
                    ?_led_toggel 006C                relay_toggel@F3068 0027                     _KEYPAD_SHAPE 0080  
       ??_gpio_pin_direction_int 0090                    __pidataCOMRAM 199E                   _timer0_preload 000B  
                 __end_of_timer0 1A4E              start_initialization 187E      _RB6_HIGH_interrupt_Handeler 0013  
  __end_of_gpio_pin_toggle_level 17A2                      ?_timer0_int 006A                     _gpio_pin_int 1928  
                      _Port_Regs 0043                      __pdataBANK0 0080                         ?_ADC_ISR 0059  
                       ??_timer0 0064          ?_InterruptManagmentHigh 0059                        _Tris_Regs 002F  
                       ?_RB4_ISR 0059                         ?_RB5_ISR 0059                         ?_RB6_ISR 0059  
                       ?_RB7_ISR 0059                      __pbssCOMRAM 0001                    __pcstackBANK0 0090  
       ?i2_gpio_pin_toggle_level 0059       _RB4_LOW_interrupt_Handeler 001D       _RB7_LOW_interrupt_Handeler 0011  
      gpio_pin_write_level@level 006C                        __pintcode 0008   __end_of_InterruptManagmentHigh 12FC  
                       ?_led_int 0098                      __smallconst 1000          _Int0_interrupt_Handeler 0023  
   gpio_pin_toggle_level@pin_cfg 006A                    ?i2_led_toggel 0060                         _INT0_ISR 1A56  
                       _INT1_ISR 1A52                         _INT2_ISR 1A4E                         _PIE1bits 0F9D  
                       _PIR1bits 0F9E                         i2u362_40 1824                         i2u450_40 108E  
                       i2u362_41 1820                         i2u450_41 108A                         i2u451_40 109C  
                       i2u451_41 1098                         i2u363_44 1842                         i2u363_45 183E  
                       i2u460_40 1132                         i2u452_40 10AA                         i2u444_40 102E  
                       i2u460_41 112E                         i2u452_41 10A6                         i2u444_41 102A  
                       i2u372_45 17B8                         i2u372_47 17BA                         i2u373_40 1804  
                       i2u461_40 1142                         i2u453_40 10BA                         i2u445_40 103C  
                       i2u373_41 1800                         i2u461_41 113E                         i2u453_41 10B6  
                       i2u445_41 1038                         i2u470_40 11E2                         i2u462_40 115A  
                       i2u454_40 10D2                         i2u446_40 104E                         i2u470_41 11DE  
                       i2u462_41 1156                         i2u454_41 10CE                         i2u446_41 104A  
                       i2u471_40 11F0                         i2u463_40 1168                         i2u455_40 10E0  
                       i2u447_40 105C                         i2u471_41 11EC                         i2u463_41 1164  
                       i2u455_41 10DC                         i2u447_41 1058                         i2u480_40 1286  
                       i2u472_40 11FE                         i2u464_40 1176                         i2u456_40 10EE  
                       i2u448_40 106E                         i2u480_41 1282                         i2u472_41 11FA  
                       i2u464_41 1172                         i2u456_41 10EA                         i2u448_41 106A  
                       i2u481_40 1296                         i2u473_40 120E                         i2u465_40 1186  
                       i2u457_40 10FE                         i2u449_40 107C                         i2u481_41 1292  
                       i2u473_41 120A                         i2u465_41 1182                         i2u457_41 10FA  
                       i2u449_41 1078                         i2u482_40 12AE                         i2u474_40 1226  
                       i2u466_40 119E                         i2u458_40 1116                         i2u482_41 12AA  
                       i2u474_41 1222                         i2u466_41 119A                         i2u458_41 1112  
                       i2u483_40 12BC                         i2u475_40 1234                         i2u467_40 11AC  
                       i2u459_40 1124                         i2u483_41 12B8                         i2u475_41 1230  
                       i2u467_41 11A8                         i2u459_41 1120                         i2u484_40 12CE  
                       i2u476_40 1242                         i2u468_40 11BA                         i2u484_41 12CA  
                       i2u476_41 123E                         i2u468_41 11B6                         i2u485_40 12DC  
                       i2u477_40 1252                         i2u469_40 11CA                         i2u485_41 12D8  
                       i2u477_41 124E                         i2u469_41 11C6                         i2u398_40 1984  
                       i2u478_40 126A                         i2u398_41 1980                         i2u478_41 1266  
                       i2u479_40 1278                         i2u479_41 1274                         i2u399_48 198A  
                       i2u399_49 199C                       _ADCON0bits 0FC2                       _ADCON1bits 0FC1  
                     _ADCON2bits 0FC0                        fp__timer0 0000  __end_ofi2_gpio_pin_toggle_level 187E  
         _gpio_pin_direction_int 1426                    _timer0_module 004D                      _INTCON2bits 0FF1  
                    _INTCON3bits 0FF0                        copy_data0 1892                        copy_data1 18B2  
                       _Lat_Regs 0039                   ??i2_led_toggel 0062                     ??_led_toggel 0095  
                     _EECON1bits 0FA6                         __Hrparam 0000                         __Lrparam 0000  
                  timer0_int@ptr 006A               __end_of_led_toggel 16BE      gpio_pin_write_level@pin_cfg 006A  
                       __ptext10 1A40                         __ptext11 17A2                         __ptext20 1A5A  
                       __ptext12 1812                         __ptext21 0000                         __ptext13 19C8  
                       __ptext14 19E2                         __ptext15 19FC                         __ptext16 1A16  
                       __ptext17 1A4E                         __ptext18 1A52                         __ptext19 1A56  
          _ADC_Interrupt_handler 0025                   relay_off@F3063 0028                   relay_int@F3053 002A  
                       isa$xinst 0000                     ??_timer0_int 006C                         int$flags 006E  
                     _INTCONbits 0FF2     __end_of_gpio_pin_write_level 164A      _RB4_HIGH_interrupt_Handeler 001B  
                       intlevel2 0000               __end_of_timer0_int 1426      _RB7_HIGH_interrupt_Handeler 000F  
            _timer0_callback_ptr 000D            _gpio_pin_toggle_level 1732    gpio_pin_direction_int@pin_cfg 006A  
                     _TIMER0_ISR 1968             __end_ofi2_led_toggel 1812         convert_byte_to_str@F3224 0007  
     _RB6_LOW_interrupt_Handeler 0015  
