

Microchip MPLAB XC8 Assembler V2.41 build 20230208172133 
                                                                                               Wed Jul 19 22:53:14 2023

Microchip MPLAB XC8 C Compiler v2.41 (Free license) build 20230208172133 Og1 
     1                           	processor	18F4620
     2                           	fnconf	rparam,??,?,0
     3                           	pagewidth 120
     4                           	opt	flic
     5                           	psect	idataCOMRAM,global,class=CODE,delta=1,noexec
     6                           	psect	idataBANK0,global,class=CODE,delta=1,noexec
     7                           	psect	smallconst,global,reloc=2,class=SMALLCONST,delta=1,noexec
     8                           	psect	cinit,global,reloc=2,class=CODE,delta=1
     9                           	psect	bssCOMRAM,global,class=COMRAM,space=1,delta=1,lowdata,noexec
    10                           	psect	dataCOMRAM,global,class=COMRAM,space=1,delta=1,lowdata,noexec
    11                           	psect	dataBANK0,global,class=BANK0,space=1,delta=1,lowdata,noexec
    12                           	psect	cstackCOMRAM,global,class=COMRAM,space=1,delta=1,lowdata,noexec
    13                           	psect	text0,global,reloc=2,class=CODE,delta=1
    14                           	psect	text1,global,reloc=2,class=CODE,delta=1
    15                           	psect	text2,global,reloc=2,class=CODE,delta=1
    16                           	psect	intcode,global,reloc=2,class=CODE,delta=1
    17                           	psect	intcode_body,global,reloc=2,class=CODE,delta=1
    18                           	psect	text4,global,reloc=2,class=CODE,delta=1
    19                           	psect	text5,global,reloc=2,class=CODE,delta=1
    20                           	psect	text6,global,reloc=2,class=CODE,delta=1
    21                           	psect	text7,global,reloc=2,class=CODE,delta=1
    22                           	psect	text8,global,reloc=2,class=CODE,delta=1
    23                           	psect	text9,global,reloc=2,class=CODE,delta=1
    24                           	psect	text10,global,reloc=2,class=CODE,delta=1
    25                           	psect	text11,global,reloc=2,class=CODE,delta=1
    26                           	psect	text12,global,reloc=2,class=CODE,delta=1
    27                           	psect	text13,global,reloc=2,class=CODE,delta=1
    28                           	psect	text14,global,reloc=2,class=CODE,delta=1
    29                           	psect	text15,global,reloc=2,class=CODE,delta=1
    30                           	psect	text16,global,reloc=2,class=CODE,delta=1
    31                           	psect	intsave_regs,global,class=BIGRAM,space=1,delta=1,noexec
    32                           	psect	text17,global,reloc=2,class=CODE,delta=1
    33                           	psect	rparam,global,class=COMRAM,space=1,delta=1,noexec
    34                           	psect	temp,global,ovrld,common,class=COMRAM,space=1,delta=1
    35                           	psect	idloc,global,abs,ovrld,class=IDLOC,space=5,delta=1,noexec
    36                           	psect	config,global,abs,ovrld,class=CONFIG,space=4,delta=1,noexec
    37   000000                     
    38                           ; Version 2.40
    39                           ; Generated 17/11/2021 GMT
    40                           ; 
    41                           ; Copyright © 2021, Microchip Technology Inc. and its subsidiaries ("Microchip")
    42                           ; All rights reserved.
    43                           ; 
    44                           ; This software is developed by Microchip Technology Inc. and its subsidiaries ("Microch
      +                          ip").
    45                           ; 
    46                           ; Redistribution and use in source and binary forms, with or without modification, are
    47                           ; permitted provided that the following conditions are met:
    48                           ; 
    49                           ;     1. Redistributions of source code must retain the above copyright notice, this lis
      +                          t of
    50                           ;        conditions and the following disclaimer.
    51                           ; 
    52                           ;     2. Redistributions in binary form must reproduce the above copyright notice, this 
      +                          list
    53                           ;        of conditions and the following disclaimer in the documentation and/or other
    54                           ;        materials provided with the distribution. Publication is not required when
    55                           ;        this file is used in an embedded application.
    56                           ; 
    57                           ;     3. Microchip's name may not be used to endorse or promote products derived from th
      +                          is
    58                           ;        software without specific prior written permission.
    59                           ; 
    60                           ; THIS SOFTWARE IS PROVIDED BY MICROCHIP "AS IS" AND ANY EXPRESS OR IMPLIED WARRANTIES,
    61                           ; INCLUDING, BUT NOT LIMITED TO, THE IMPLIED WARRANTIES OF MERCHANTABILITY AND FITNESS F
      +                          OR
    62                           ; PURPOSE ARE DISCLAIMED.  IN NO EVENT SHALL MICROCHIP BE LIABLE FOR ANY DIRECT, INDIREC
      +                          T,
    63                           ; INCIDENTAL, SPECIAL, EXEMPLARY, OR CONSEQUENTIAL DAMAGES (INCLUDING BUT NOT LIMITED TO
    64                           ; PROCUREMENT OF SUBSTITUTE GOODS OR SERVICES; LOSS OF USE, DATA OR PROFITS; OR BUSINESS
    65                           ; INTERRUPTION) HOWSOEVER CAUSED AND ON ANY THEORY OF LIABILITY, WHETHER IN CONTRACT, ST
      +                          RICT
    66                           ; LIABILITY, OR TORT (INCLUDING NEGLIGENCE OR OTHERWISE) ARISING IN ANY WAY OUT OF THE U
      +                          SE OF
    67                           ; THIS SOFTWARE, EVEN IF ADVISED OF THE POSSIBILITY OF SUCH DAMAGE.
    68                           ; 
    69                           ; 
    70                           ; Code-generator required, PIC18F4620 Definitions
    71                           ; 
    72                           ; SFR Addresses
    73   000000                     
    74                           	psect	idataCOMRAM
    75   0014FC                     __pidataCOMRAM:
    76                           	callstack 0
    77                           
    78                           ;initializer for _Tris_Regs
    79   0014FC  92                 	db	146
    80   0014FD  0F                 	db	15
    81   0014FE  93                 	db	147
    82   0014FF  0F                 	db	15
    83   001500  94                 	db	148
    84   001501  0F                 	db	15
    85   001502  95                 	db	149
    86   001503  0F                 	db	15
    87   001504  96                 	db	150
    88   001505  0F                 	db	15
    89                           
    90                           ;initializer for _Lat_Regs
    91   001506  89                 	db	137
    92   001507  0F                 	db	15
    93   001508  8A                 	db	138
    94   001509  0F                 	db	15
    95   00150A  8B                 	db	139
    96   00150B  0F                 	db	15
    97   00150C  8C                 	db	140
    98   00150D  0F                 	db	15
    99   00150E  8D                 	db	141
   100   00150F  0F                 	db	15
   101                           
   102                           ;initializer for _Port_Regs
   103   001510  80                 	db	128
   104   001511  0F                 	db	15
   105   001512  81                 	db	129
   106   001513  0F                 	db	15
   107   001514  82                 	db	130
   108   001515  0F                 	db	15
   109   001516  83                 	db	131
   110   001517  0F                 	db	15
   111   001518  84                 	db	132
   112   001519  0F                 	db	15
   113                           
   114                           ;initializer for _led1
   115   00151A  02                 	db	2
   116                           
   117                           ;initializer for _flage_7
   118   00151B  01                 	db	1
   119                           
   120                           ;initializer for _flage_6
   121   00151C  01                 	db	1
   122                           
   123                           ;initializer for _flage_5
   124   00151D  01                 	db	1
   125                           
   126                           ;initializer for _flage_4
   127   00151E  01                 	db	1
   128                           
   129                           ;initializer for _timer2
   130   00151F  C6                 	db	low _timer3_ISR
   131   001520  15                 	db	high _timer3_ISR
   132   001521  00                 	db	0
   133   001522  00                 	db	0
   134   001523  00                 	db	0
   135   001524  03                 	db	3
   136                           
   137                           	psect	idataBANK0
   138   0015B6                     __pidataBANK0:
   139                           	callstack 0
   140                           
   141                           ;initializer for _KEYPAD_SHAPE
   142   0015B6  37                 	db	55
   143   0015B7  38                 	db	56
   144   0015B8  39                 	db	57
   145   0015B9  2F                 	db	47
   146   0015BA  34                 	db	52
   147   0015BB  35                 	db	53
   148   0015BC  36                 	db	54
   149   0015BD  2A                 	db	42
   150   0015BE  31                 	db	49
   151   0015BF  32                 	db	50
   152   0015C0  33                 	db	51
   153   0015C1  2D                 	db	45
   154   0015C2  23                 	db	35
   155   0015C3  30                 	db	48
   156   0015C4  3D                 	db	61
   157   0015C5  2B                 	db	43
   158   000000                     _TMR1L	set	4046
   159   000000                     _TMR1H	set	4047
   160   000000                     _INTCON2bits	set	4081
   161   000000                     _EECON2	set	4007
   162   000000                     _ADCON1bits	set	4033
   163   000000                     _ADRESL	set	4035
   164   000000                     _ADRESH	set	4036
   165   000000                     _INTCONbits	set	4082
   166   000000                     _TRISD	set	3989
   167   000000                     _TRISC	set	3988
   168   000000                     _TRISB	set	3987
   169   000000                     _TRISE	set	3990
   170   000000                     _PORTBbits	set	3969
   171   000000                     _PIE1bits	set	3997
   172   000000                     _ADCON2bits	set	4032
   173   000000                     _ADCON0bits	set	4034
   174   000000                     _LATA	set	3977
   175   000000                     _PORTE	set	3972
   176   000000                     _PORTD	set	3971
   177   000000                     _PORTC	set	3970
   178   000000                     _PORTB	set	3969
   179   000000                     _PORTA	set	3968
   180   000000                     _TRISA	set	3986
   181   000000                     _PIE2bits	set	4000
   182   000000                     _EECON1bits	set	4006
   183   000000                     _EEDATA	set	4008
   184   000000                     _EEADR	set	4009
   185   000000                     _EEADRH	set	4010
   186   000000                     _PIR1bits	set	3998
   187   000000                     _T2CONbits	set	4042
   188   000000                     _T1CONbits	set	4045
   189   000000                     _T0CONbits	set	4053
   190   000000                     _INTCON3bits	set	4080
   191   000000                     _LATE	set	3981
   192   000000                     _LATD	set	3980
   193   000000                     _LATC	set	3979
   194   000000                     _LATB	set	3978
   195   000000                     _T3CONbits	set	4017
   196   000000                     _PIR2bits	set	4001
   197   000000                     _TMR0H	set	4055
   198   000000                     _TMR0L	set	4054
   199   000000                     _TMR2	set	4044
   200   000000                     _TMR3	set	4018
   201                           
   202                           	psect	smallconst
   203   001000                     __psmallconst:
   204                           	callstack 0
   205   001000  00                 	db	0
   206   001001                     STR_1:
   207   001001  25                 	db	37
   208   001002  75                 	db	117	;'u'
   209   001003  00                 	db	0
   210   001004  00                 	db	0	; dummy byte at the end
   211   000000                     
   212                           ; #config settings
   213                           
   214                           	psect	cinit
   215   00143A                     __pcinit:
   216                           	callstack 0
   217   00143A                     start_initialization:
   218                           	callstack 0
   219   00143A                     __initialization:
   220                           	callstack 0
   221                           
   222                           ; Initialize objects allocated to BANK0 (16 bytes)
   223                           ; load TBLPTR registers with __pidataBANK0
   224   00143A  0EB6               	movlw	low __pidataBANK0
   225   00143C  6EF6               	movwf	tblptrl,c
   226   00143E  0E15               	movlw	high __pidataBANK0
   227   001440  6EF7               	movwf	tblptrh,c
   228   001442  0E00               	movlw	low (__pidataBANK0 shr (0+16))
   229   001444  6EF8               	movwf	tblptru,c
   230   001446  EE00  F080         	lfsr	0,__pdataBANK0
   231   00144A  EE10 F010          	lfsr	1,16
   232   00144E                     copy_data0:
   233   00144E  0009               	tblrd		*+
   234   001450  CFF5 FFEE          	movff	tablat,postinc0
   235   001454  50E5               	movf	postdec1,w,c
   236   001456  50E1               	movf	fsr1l,w,c
   237   001458  E1FA               	bnz	copy_data0
   238                           
   239                           ; Initialize objects allocated to COMRAM (41 bytes)
   240                           ; load TBLPTR registers with __pidataCOMRAM
   241   00145A  0EFC               	movlw	low __pidataCOMRAM
   242   00145C  6EF6               	movwf	tblptrl,c
   243   00145E  0E14               	movlw	high __pidataCOMRAM
   244   001460  6EF7               	movwf	tblptrh,c
   245   001462  0E00               	movlw	low (__pidataCOMRAM shr (0+16))
   246   001464  6EF8               	movwf	tblptru,c
   247   001466  EE00  F04B         	lfsr	0,__pdataCOMRAM
   248   00146A  EE10 F029          	lfsr	1,41
   249   00146E                     copy_data1:
   250   00146E  0009               	tblrd		*+
   251   001470  CFF5 FFEE          	movff	tablat,postinc0
   252   001474  50E5               	movf	postdec1,w,c
   253   001476  50E1               	movf	fsr1l,w,c
   254   001478  E1FA               	bnz	copy_data1
   255                           
   256                           ; Clear objects allocated to COMRAM (74 bytes)
   257   00147A  EE00  F001         	lfsr	0,__pbssCOMRAM
   258   00147E  0E4A               	movlw	74
   259   001480                     clear_0:
   260   001480  6AEE               	clrf	postinc0,c
   261   001482  06E8               	decf	wreg,f,c
   262   001484  E1FD               	bnz	clear_0
   263   001486                     end_of_initialization:
   264                           	callstack 0
   265   001486                     __end_of__initialization:
   266                           	callstack 0
   267   001486  907B               	bcf	int$flags,0,c	;clear compiler interrupt flag (level 1)
   268   001488  927B               	bcf	int$flags,1,c	;clear compiler interrupt flag (level 2)
   269   00148A  0100               	movlb	0
   270   00148C  EF93  F00A         	goto	_main	;jump to C main() function
   271                           
   272                           	psect	bssCOMRAM
   273   000001                     __pbssCOMRAM:
   274                           	callstack 0
   275   000001                     	ds	11
   276   00000C                     	ds	6
   277   000012                     _cc:
   278                           	callstack 0
   279   000012                     	ds	4
   280   000016                     	ds	4
   281   00001A                     _timer3_preload:
   282                           	callstack 0
   283   00001A                     	ds	2
   284   00001C                     _timer3_callback_ptr:
   285                           	callstack 0
   286   00001C                     	ds	2
   287   00001E                     _timer2_callback_ptr:
   288                           	callstack 0
   289   00001E                     	ds	2
   290   000020                     _timer1_preload:
   291                           	callstack 0
   292   000020                     	ds	2
   293   000022                     _timer1_callback_ptr:
   294                           	callstack 0
   295   000022                     	ds	2
   296   000024                     _timer0_preload:
   297                           	callstack 0
   298   000024                     	ds	2
   299   000026                     _timer0_callback_ptr:
   300                           	callstack 0
   301   000026                     	ds	2
   302   000028                     _RB7_HIGH_interrupt_Handeler:
   303                           	callstack 0
   304   000028                     	ds	2
   305   00002A                     _RB7_LOW_interrupt_Handeler:
   306                           	callstack 0
   307   00002A                     	ds	2
   308   00002C                     _RB6_HIGH_interrupt_Handeler:
   309                           	callstack 0
   310   00002C                     	ds	2
   311   00002E                     _RB6_LOW_interrupt_Handeler:
   312                           	callstack 0
   313   00002E                     	ds	2
   314   000030                     _RB5_HIGH_interrupt_Handeler:
   315                           	callstack 0
   316   000030                     	ds	2
   317   000032                     _RB5_LOW_interrupt_Handeler:
   318                           	callstack 0
   319   000032                     	ds	2
   320   000034                     _RB4_HIGH_interrupt_Handeler:
   321                           	callstack 0
   322   000034                     	ds	2
   323   000036                     _RB4_LOW_interrupt_Handeler:
   324                           	callstack 0
   325   000036                     	ds	2
   326   000038                     _Int2_interrupt_Handeler:
   327                           	callstack 0
   328   000038                     	ds	2
   329   00003A                     _Int1_interrupt_Handeler:
   330                           	callstack 0
   331   00003A                     	ds	2
   332   00003C                     _Int0_interrupt_Handeler:
   333                           	callstack 0
   334   00003C                     	ds	2
   335   00003E                     _ADC_Interrupt_handler:
   336                           	callstack 0
   337   00003E                     	ds	2
   338   000040                     _timer2_preload:
   339                           	callstack 0
   340   000040                     	ds	1
   341   000041                     relay_toggel@F3068:
   342                           	callstack 0
   343   000041                     	ds	1
   344   000042                     relay_off@F3063:
   345                           	callstack 0
   346   000042                     	ds	1
   347   000043                     relay_on@F3058:
   348                           	callstack 0
   349   000043                     	ds	1
   350   000044                     relay_int@F3053:
   351                           	callstack 0
   352   000044                     	ds	1
   353   000045                     led_toggel@F3069:
   354                           	callstack 0
   355   000045                     	ds	1
   356   000046                     led_off@F3064:
   357                           	callstack 0
   358   000046                     	ds	1
   359   000047                     led_on@F3059:
   360                           	callstack 0
   361   000047                     	ds	1
   362   000048                     led_int@F3054:
   363                           	callstack 0
   364   000048                     	ds	1
   365   000049                     _timer3_counter:
   366                           	callstack 0
   367   000049                     	ds	2
   368                           
   369                           	psect	dataCOMRAM
   370   00004B                     __pdataCOMRAM:
   371                           	callstack 0
   372   00004B                     _Tris_Regs:
   373                           	callstack 0
   374   00004B                     	ds	10
   375   000055                     _Lat_Regs:
   376                           	callstack 0
   377   000055                     	ds	10
   378   00005F                     _Port_Regs:
   379                           	callstack 0
   380   00005F                     	ds	10
   381   000069                     _led1:
   382                           	callstack 0
   383   000069                     	ds	1
   384   00006A                     _flage_7:
   385                           	callstack 0
   386   00006A                     	ds	1
   387   00006B                     _flage_6:
   388                           	callstack 0
   389   00006B                     	ds	1
   390   00006C                     _flage_5:
   391                           	callstack 0
   392   00006C                     	ds	1
   393   00006D                     _flage_4:
   394                           	callstack 0
   395   00006D                     	ds	1
   396   00006E                     _timer2:
   397                           	callstack 0
   398   00006E                     	ds	6
   399                           
   400                           	psect	dataBANK0
   401   000080                     __pdataBANK0:
   402                           	callstack 0
   403   000080                     _KEYPAD_SHAPE:
   404                           	callstack 0
   405   000080                     	ds	16
   406                           
   407                           	psect	cstackCOMRAM
   408   000074                     __pcstackCOMRAM:
   409                           	callstack 0
   410   000074                     RB4_ISR@flage:
   411                           	callstack 0
   412   000074                     RB5_ISR@flage:
   413                           	callstack 0
   414   000074                     RB6_ISR@flage:
   415                           	callstack 0
   416   000074                     RB7_ISR@flage:
   417                           	callstack 0
   418                           
   419                           ; 1 bytes @ 0x0
   420   000074                     	ds	1
   421   000075                     ??_InterruptManagmentHigh:
   422                           
   423                           ; 1 bytes @ 0x1
   424   000075                     	ds	2
   425   000077                     timer3_int@ptr:
   426                           	callstack 0
   427   000077                     timer3_read@ptr:
   428                           	callstack 0
   429                           
   430                           ; 2 bytes @ 0x3
   431   000077                     	ds	2
   432   000079                     ??_timer3_int:
   433   000079                     timer3_read@data:
   434                           	callstack 0
   435                           
   436                           ; 2 bytes @ 0x5
   437   000079                     	ds	2
   438   00007B                     
   439                           ; 1 bytes @ 0x7
   440 ;;
   441 ;;Main: autosize = 0, tempsize = 0, incstack = 0, save=0
   442 ;;
   443 ;; *************** function _main *****************
   444 ;; Defined at:
   445 ;;		line 40 in file "Application.c"
   446 ;; Parameters:    Size  Location     Type
   447 ;;		None
   448 ;; Auto vars:     Size  Location     Type
   449 ;;		None
   450 ;; Return value:  Size  Location     Type
   451 ;;                  2  951[None  ] int 
   452 ;; Registers used:
   453 ;;		wreg, fsr2l, fsr2h, status,2, status,0, cstack
   454 ;; Tracked objects:
   455 ;;		On entry : 0/0
   456 ;;		On exit  : 0/0
   457 ;;		Unchanged: 0/0
   458 ;; Data sizes:     COMRAM   BANK0   BANK1   BANK2   BANK3   BANK4   BANK5   BANK6   BANK7   BANK8   BANK9  BANK10  BANK1
      +1  BANK12  BANK13  BANK14  BANK15
   459 ;;      Params:         0       0       0       0       0       0       0       0       0       0       0       0       
      +0       0       0       0       0
   460 ;;      Locals:         0       0       0       0       0       0       0       0       0       0       0       0       
      +0       0       0       0       0
   461 ;;      Temps:          0       0       0       0       0       0       0       0       0       0       0       0       
      +0       0       0       0       0
   462 ;;      Totals:         0       0       0       0       0       0       0       0       0       0       0       0       
      +0       0       0       0       0
   463 ;;Total ram usage:        0 bytes
   464 ;; Hardware stack levels required when called: 4
   465 ;; This function calls:
   466 ;;		_timer3_int
   467 ;;		_timer3_read
   468 ;; This function is called by:
   469 ;;		Startup code after reset
   470 ;; This function uses a non-reentrant model
   471 ;;
   472                           
   473                           	psect	text0
   474   001526                     __ptext0:
   475                           	callstack 0
   476   001526                     _main:
   477                           	callstack 27
   478   001526                     
   479                           ;Application.c: 43: timer3_int(&timer2);
   480   001526  0E6E               	movlw	low _timer2
   481   001528  6E77               	movwf	timer3_int@ptr^0,c
   482   00152A  0E00               	movlw	high _timer2
   483   00152C  6E78               	movwf	(timer3_int@ptr+1)^0,c
   484   00152E  EC9E  F009         	call	_timer3_int	;wreg free
   485   001532                     l952:
   486                           
   487                           ;Application.c: 48:        timer3_read(&timer2,&timer3_counter);
   488   001532  0E6E               	movlw	low _timer2
   489   001534  6E77               	movwf	timer3_read@ptr^0,c
   490   001536  0E00               	movlw	high _timer2
   491   001538  6E78               	movwf	(timer3_read@ptr+1)^0,c
   492   00153A  0E49               	movlw	low _timer3_counter
   493   00153C  6E79               	movwf	timer3_read@data^0,c
   494   00153E  0E00               	movlw	high _timer3_counter
   495   001540  6E7A               	movwf	(timer3_read@data+1)^0,c
   496   001542  EC48  F00A         	call	_timer3_read	;wreg free
   497   001546  EF99  F00A         	goto	l952
   498   00154A  EF07  F000         	goto	start
   499   00154E                     __end_of_main:
   500                           	callstack 0
   501                           
   502 ;; *************** function _timer3_read *****************
   503 ;; Defined at:
   504 ;;		line 101 in file "MCAL_Layer/Timer3/timer3.c"
   505 ;; Parameters:    Size  Location     Type
   506 ;;  ptr             2    3[COMRAM] PTR const struct .
   507 ;;		 -> timer2(6), 
   508 ;;  data            2    5[COMRAM] PTR unsigned short 
   509 ;;		 -> timer3_counter(2), 
   510 ;; Auto vars:     Size  Location     Type
   511 ;;  returt_statu    1    0        unsigned char 
   512 ;; Return value:  Size  Location     Type
   513 ;;                  1    wreg      unsigned char 
   514 ;; Registers used:
   515 ;;		wreg, fsr2l, fsr2h, status,2, status,0
   516 ;; Tracked objects:
   517 ;;		On entry : 0/0
   518 ;;		On exit  : 0/0
   519 ;;		Unchanged: 0/0
   520 ;; Data sizes:     COMRAM   BANK0   BANK1   BANK2   BANK3   BANK4   BANK5   BANK6   BANK7   BANK8   BANK9  BANK10  BANK1
      +1  BANK12  BANK13  BANK14  BANK15
   521 ;;      Params:         4       0       0       0       0       0       0       0       0       0       0       0       
      +0       0       0       0       0
   522 ;;      Locals:         0       0       0       0       0       0       0       0       0       0       0       0       
      +0       0       0       0       0
   523 ;;      Temps:          0       0       0       0       0       0       0       0       0       0       0       0       
      +0       0       0       0       0
   524 ;;      Totals:         4       0       0       0       0       0       0       0       0       0       0       0       
      +0       0       0       0       0
   525 ;;Total ram usage:        4 bytes
   526 ;; Hardware stack levels used: 1
   527 ;; Hardware stack levels required when called: 3
   528 ;; This function calls:
   529 ;;		Nothing
   530 ;; This function is called by:
   531 ;;		_main
   532 ;; This function uses a non-reentrant model
   533 ;;
   534                           
   535                           	psect	text1
   536   001490                     __ptext1:
   537                           	callstack 0
   538   001490                     _timer3_read:
   539                           	callstack 27
   540   001490                     
   541                           ;MCAL_Layer/Timer3/timer3.c: 103:     if(((void*)0)!=ptr && ((void*)0)!=data){
   542   001490  5077               	movf	timer3_read@ptr^0,w,c
   543   001492  1078               	iorwf	(timer3_read@ptr+1)^0,w,c
   544   001494  B4D8               	btfsc	status,2,c
   545   001496  EF4F  F00A         	goto	u2561
   546   00149A  EF51  F00A         	goto	u2560
   547   00149E                     u2561:
   548   00149E  EF62  F00A         	goto	l998
   549   0014A2                     u2560:
   550   0014A2  5079               	movf	timer3_read@data^0,w,c
   551   0014A4  107A               	iorwf	(timer3_read@data+1)^0,w,c
   552   0014A6  B4D8               	btfsc	status,2,c
   553   0014A8  EF58  F00A         	goto	u2571
   554   0014AC  EF5A  F00A         	goto	u2570
   555   0014B0                     u2571:
   556   0014B0  EF62  F00A         	goto	l998
   557   0014B4                     u2570:
   558   0014B4                     
   559                           ;MCAL_Layer/Timer3/timer3.c: 105:            *data=TMR3;
   560   0014B4  C079  FFD9         	movff	timer3_read@data,fsr2l
   561   0014B8  C07A  FFDA         	movff	timer3_read@data+1,fsr2h
   562   0014BC  CFB2 FFDE          	movff	4018,postinc2	;volatile
   563   0014C0  CFB3 FFDD          	movff	4019,postdec2	;volatile
   564   0014C4                     l998:
   565   0014C4  0012               	return		;funcret
   566   0014C6                     __end_of_timer3_read:
   567                           	callstack 0
   568                           
   569 ;; *************** function _timer3_int *****************
   570 ;; Defined at:
   571 ;;		line 9 in file "MCAL_Layer/Timer3/timer3.c"
   572 ;; Parameters:    Size  Location     Type
   573 ;;  ptr             2    3[COMRAM] PTR const struct .
   574 ;;		 -> timer2(6), 
   575 ;; Auto vars:     Size  Location     Type
   576 ;;  returt_statu    1    0        unsigned char 
   577 ;; Return value:  Size  Location     Type
   578 ;;                  1    wreg      unsigned char 
   579 ;; Registers used:
   580 ;;		wreg, fsr2l, fsr2h, status,2, status,0
   581 ;; Tracked objects:
   582 ;;		On entry : 0/0
   583 ;;		On exit  : 0/0
   584 ;;		Unchanged: 0/0
   585 ;; Data sizes:     COMRAM   BANK0   BANK1   BANK2   BANK3   BANK4   BANK5   BANK6   BANK7   BANK8   BANK9  BANK10  BANK1
      +1  BANK12  BANK13  BANK14  BANK15
   586 ;;      Params:         2       0       0       0       0       0       0       0       0       0       0       0       
      +0       0       0       0       0
   587 ;;      Locals:         0       0       0       0       0       0       0       0       0       0       0       0       
      +0       0       0       0       0
   588 ;;      Temps:          2       0       0       0       0       0       0       0       0       0       0       0       
      +0       0       0       0       0
   589 ;;      Totals:         4       0       0       0       0       0       0       0       0       0       0       0       
      +0       0       0       0       0
   590 ;;Total ram usage:        4 bytes
   591 ;; Hardware stack levels used: 1
   592 ;; Hardware stack levels required when called: 3
   593 ;; This function calls:
   594 ;;		Nothing
   595 ;; This function is called by:
   596 ;;		_main
   597 ;; This function uses a non-reentrant model
   598 ;;
   599                           
   600                           	psect	text2
   601   00133C                     __ptext2:
   602                           	callstack 0
   603   00133C                     _timer3_int:
   604                           	callstack 27
   605   00133C                     
   606                           ;MCAL_Layer/Timer3/timer3.c: 11:     if(((void*)0)!=ptr){
   607   00133C  5077               	movf	timer3_int@ptr^0,w,c
   608   00133E  1078               	iorwf	(timer3_int@ptr+1)^0,w,c
   609   001340  B4D8               	btfsc	status,2,c
   610   001342  EFA5  F009         	goto	u2531
   611   001346  EFA7  F009         	goto	u2530
   612   00134A                     u2531:
   613   00134A  EF1C  F00A         	goto	l986
   614   00134E                     u2530:
   615   00134E                     
   616                           ;MCAL_Layer/Timer3/timer3.c: 13:         (T3CONbits.TMR3ON=0) ;
   617   00134E  90B1               	bcf	177,0,c	;volatile
   618                           
   619                           ;MCAL_Layer/Timer3/timer3.c: 14:         (T3CONbits.RD16=1) ;
   620   001350  8EB1               	bsf	177,7,c	;volatile
   621   001352                     
   622                           ;MCAL_Layer/Timer3/timer3.c: 15:         TMR3=ptr->timer3_preload_value;
   623   001352  EE20 F002          	lfsr	2,2
   624   001356  5077               	movf	timer3_int@ptr^0,w,c
   625   001358  26D9               	addwf	fsr2l,f,c
   626   00135A  5078               	movf	(timer3_int@ptr+1)^0,w,c
   627   00135C  22DA               	addwfc	fsr2h,f,c
   628   00135E  50DF               	movf	indf2,w,c
   629   001360  6E79               	movwf	??_timer3_int^0,c
   630   001362  5079               	movf	??_timer3_int^0,w,c
   631   001364  6EB2               	movwf	178,c	;volatile
   632   001366  6AB3               	clrf	179,c	;volatile
   633                           
   634                           ;MCAL_Layer/Timer3/timer3.c: 16:                 timer3_preload=ptr->timer3_preload_valu
      +                          e;
   635   001368  EE20 F002          	lfsr	2,2
   636   00136C  5077               	movf	timer3_int@ptr^0,w,c
   637   00136E  26D9               	addwf	fsr2l,f,c
   638   001370  5078               	movf	(timer3_int@ptr+1)^0,w,c
   639   001372  22DA               	addwfc	fsr2h,f,c
   640   001374  50DF               	movf	indf2,w,c
   641   001376  6E79               	movwf	??_timer3_int^0,c
   642   001378  5079               	movf	??_timer3_int^0,w,c
   643   00137A  6E1A               	movwf	_timer3_preload^0,c
   644   00137C  6A1B               	clrf	(_timer3_preload+1)^0,c
   645                           
   646                           ;MCAL_Layer/Timer3/timer3.c: 17:         (T3CONbits.T3CKPS=ptr->timer3_Prescaler_value);
   647   00137E  EE20 F003          	lfsr	2,3
   648   001382  5077               	movf	timer3_int@ptr^0,w,c
   649   001384  26D9               	addwf	fsr2l,f,c
   650   001386  5078               	movf	(timer3_int@ptr+1)^0,w,c
   651   001388  22DA               	addwfc	fsr2h,f,c
   652   00138A  50DF               	movf	indf2,w,c
   653   00138C  6E79               	movwf	??_timer3_int^0,c
   654   00138E  3A79               	swapf	??_timer3_int^0,f,c
   655   001390  50B1               	movf	177,w,c	;volatile
   656   001392  1879               	xorwf	??_timer3_int^0,w,c
   657   001394  0BCF               	andlw	-49
   658   001396  1879               	xorwf	??_timer3_int^0,w,c
   659   001398  6EB1               	movwf	177,c	;volatile
   660                           
   661                           ;MCAL_Layer/Timer3/timer3.c: 19:         if((0)==ptr->timer3_mode){
   662   00139A  EE20 F005          	lfsr	2,5
   663   00139E  5077               	movf	timer3_int@ptr^0,w,c
   664   0013A0  26D9               	addwf	fsr2l,f,c
   665   0013A2  5078               	movf	(timer3_int@ptr+1)^0,w,c
   666   0013A4  22DA               	addwfc	fsr2h,f,c
   667   0013A6  B2DF               	btfsc	indf2,1,c
   668   0013A8  EFD8  F009         	goto	u2541
   669   0013AC  EFDA  F009         	goto	u2540
   670   0013B0                     u2541:
   671   0013B0  EFDD  F009         	goto	l976
   672   0013B4                     u2540:
   673   0013B4                     
   674                           ;MCAL_Layer/Timer3/timer3.c: 20:             (T3CONbits.TMR3CS=0);
   675   0013B4  92B1               	bcf	177,1,c	;volatile
   676                           
   677                           ;MCAL_Layer/Timer3/timer3.c: 21:         }
   678   0013B6  EFEF  F009         	goto	l3765
   679   0013BA                     l976:
   680                           
   681                           ;MCAL_Layer/Timer3/timer3.c: 23:             (T3CONbits.TMR3CS=1);
   682   0013BA  82B1               	bsf	177,1,c	;volatile
   683   0013BC                     
   684                           ;MCAL_Layer/Timer3/timer3.c: 24:             if((0) == ptr->timer3_syn_mode){
   685   0013BC  EE20 F005          	lfsr	2,5
   686   0013C0  5077               	movf	timer3_int@ptr^0,w,c
   687   0013C2  26D9               	addwf	fsr2l,f,c
   688   0013C4  5078               	movf	(timer3_int@ptr+1)^0,w,c
   689   0013C6  22DA               	addwfc	fsr2h,f,c
   690   0013C8  B0DF               	btfsc	indf2,0,c
   691   0013CA  EFE9  F009         	goto	u2551
   692   0013CE  EFEB  F009         	goto	u2550
   693   0013D2                     u2551:
   694   0013D2  EFEE  F009         	goto	l978
   695   0013D6                     u2550:
   696   0013D6                     
   697                           ;MCAL_Layer/Timer3/timer3.c: 26:             (T3CONbits.T3SYNC=0);
   698   0013D6  94B1               	bcf	177,2,c	;volatile
   699                           
   700                           ;MCAL_Layer/Timer3/timer3.c: 27:         }
   701   0013D8  EFEF  F009         	goto	l3765
   702   0013DC                     l978:
   703                           
   704                           ;MCAL_Layer/Timer3/timer3.c: 29:             (T3CONbits.T3SYNC=1);
   705   0013DC  84B1               	bsf	177,2,c	;volatile
   706   0013DE                     l3765:
   707   0013DE  EE20 F004          	lfsr	2,4
   708   0013E2  5077               	movf	timer3_int@ptr^0,w,c
   709   0013E4  26D9               	addwf	fsr2l,f,c
   710   0013E6  5078               	movf	(timer3_int@ptr+1)^0,w,c
   711   0013E8  22DA               	addwfc	fsr2h,f,c
   712   0013EA  50DF               	movf	indf2,w,c
   713   0013EC  6E79               	movwf	??_timer3_int^0,c
   714   0013EE  6A7A               	clrf	(??_timer3_int+1)^0,c
   715                           
   716                           ; Switch on 2 bytes has been partitioned into a top level switch of size 1, and 1 sub-sw
      +                          itches
   717                           ; Switch size 1, requested type "simple"
   718                           ; Number of cases is 1, Range of values is 0 to 0
   719                           ; switch strategies available:
   720                           ; Name         Instructions Cycles
   721                           ; simple_byte            4     3 (average)
   722                           ;	Chosen strategy is simple_byte
   723   0013F0  507A               	movf	(??_timer3_int+1)^0,w,c
   724   0013F2  0A00               	xorlw	0	; case 0
   725   0013F4  B4D8               	btfsc	status,2,c
   726   0013F6  EFFF  F009         	goto	l4325
   727   0013FA  EF0E  F00A         	goto	l982
   728   0013FE                     l4325:
   729                           
   730                           ; Switch size 1, requested type "simple"
   731                           ; Number of cases is 3, Range of values is 0 to 2
   732                           ; switch strategies available:
   733                           ; Name         Instructions Cycles
   734                           ; simple_byte           10     6 (average)
   735                           ;	Chosen strategy is simple_byte
   736   0013FE  5079               	movf	??_timer3_int^0,w,c
   737   001400  0A00               	xorlw	0	; case 0
   738   001402  B4D8               	btfsc	status,2,c
   739   001404  EF0E  F00A         	goto	l982
   740   001408  0A01               	xorlw	1	; case 1
   741   00140A  B4D8               	btfsc	status,2,c
   742   00140C  EF0E  F00A         	goto	l982
   743   001410  0A03               	xorlw	3	; case 2
   744   001412  B4D8               	btfsc	status,2,c
   745   001414  EF0E  F00A         	goto	l982
   746   001418  EF0E  F00A         	goto	l982
   747   00141C                     l982:
   748                           
   749                           ;MCAL_Layer/Timer3/timer3.c: 47:         (PIE2bits.TMR3IE=0);
   750   00141C  92A0               	bcf	160,1,c	;volatile
   751                           
   752                           ;MCAL_Layer/Timer3/timer3.c: 48:         (PIR2bits.TMR3IF=0);
   753   00141E  92A1               	bcf	161,1,c	;volatile
   754   001420                     
   755                           ;MCAL_Layer/Timer3/timer3.c: 49:         timer3_callback_ptr=ptr->timer3_callback;
   756   001420  C077  FFD9         	movff	timer3_int@ptr,fsr2l
   757   001424  C078  FFDA         	movff	timer3_int@ptr+1,fsr2h
   758   001428  CFDE F01C          	movff	postinc2,_timer3_callback_ptr
   759   00142C  CFDD F01D          	movff	postdec2,_timer3_callback_ptr+1
   760   001430                     
   761                           ;MCAL_Layer/Timer3/timer3.c: 62:         (INTCONbits.GIE=1);
   762   001430  8EF2               	bsf	242,7,c	;volatile
   763   001432                     
   764                           ;MCAL_Layer/Timer3/timer3.c: 63:         (INTCONbits.PEIE=1);
   765   001432  8CF2               	bsf	242,6,c	;volatile
   766   001434                     
   767                           ;MCAL_Layer/Timer3/timer3.c: 65:         (PIE2bits.TMR3IE=1);
   768   001434  82A0               	bsf	160,1,c	;volatile
   769   001436                     
   770                           ;MCAL_Layer/Timer3/timer3.c: 68:         (T3CONbits.TMR3ON=1);
   771   001436  80B1               	bsf	177,0,c	;volatile
   772   001438                     l986:
   773   001438  0012               	return		;funcret
   774   00143A                     __end_of_timer3_int:
   775                           	callstack 0
   776                           
   777 ;; *************** function _InterruptManagmentHigh *****************
   778 ;; Defined at:
   779 ;;		line 69 in file "MCAL_Layer/Interrupt/Interrupt_managment.c"
   780 ;; Parameters:    Size  Location     Type
   781 ;;		None
   782 ;; Auto vars:     Size  Location     Type
   783 ;;		None
   784 ;; Return value:  Size  Location     Type
   785 ;;                  1    wreg      void 
   786 ;; Registers used:
   787 ;;		wreg, status,2, status,0, pcl, pclath, pclatu, tosl, cstack
   788 ;; Tracked objects:
   789 ;;		On entry : 0/0
   790 ;;		On exit  : 0/0
   791 ;;		Unchanged: 0/0
   792 ;; Data sizes:     COMRAM   BANK0   BANK1   BANK2   BANK3   BANK4   BANK5   BANK6   BANK7   BANK8   BANK9  BANK10  BANK1
      +1  BANK12  BANK13  BANK14  BANK15
   793 ;;      Params:         0       0       0       0       0       0       0       0       0       0       0       0       
      +0       0       0       0       0
   794 ;;      Locals:         0       0       0       0       0       0       0       0       0       0       0       0       
      +0       0       0       0       0
   795 ;;      Temps:          2       0       0       0       0       0       0       0       0       0       0       0       
      +0       0       0       0       0
   796 ;;      Totals:         2       0       0       0       0       0       0       0       0       0       0       0       
      +0       0       0       0       0
   797 ;;Total ram usage:        2 bytes
   798 ;; Hardware stack levels used: 1
   799 ;; Hardware stack levels required when called: 2
   800 ;; This function calls:
   801 ;;		_ADC_ISR
   802 ;;		_INT0_ISR
   803 ;;		_INT1_ISR
   804 ;;		_INT2_ISR
   805 ;;		_RB4_ISR
   806 ;;		_RB5_ISR
   807 ;;		_RB6_ISR
   808 ;;		_RB7_ISR
   809 ;;		_TIMER0_ISR
   810 ;;		_TIMER1_ISR
   811 ;;		_TIMER2_ISR
   812 ;;		_TIMER3_ISR
   813 ;; This function is called by:
   814 ;;		Interrupt level 2
   815 ;; This function uses a non-reentrant model
   816 ;;
   817                           
   818                           	psect	intcode
   819   000008                     __pintcode:
   820                           	callstack 0
   821   000008                     _InterruptManagmentHigh:
   822                           	callstack 27
   823                           
   824                           ;incstack = 0
   825   000008  827B               	bsf	int$flags,1,c	;set compiler interrupt flag (level 2)
   826   00000A  ED03  F008         	call	int_func,f	;refresh shadow registers
   827                           
   828                           	psect	intcode_body
   829   001006                     __pintcode_body:
   830                           	callstack 27
   831   001006                     int_func:
   832                           	callstack 27
   833   001006  0006               	pop		; remove dummy address from shadow register refresh
   834   001008  CFFA F075          	movff	pclath,??_InterruptManagmentHigh
   835   00100C  CFFB F076          	movff	pclatu,??_InterruptManagmentHigh+1
   836   001010                     
   837                           ;MCAL_Layer/Interrupt/Interrupt_managment.c: 76: if(INTCONbits.INT0IE==1 && INTCONbits.I
      +                          NT0IF==1){
   838   001010  A8F2               	btfss	242,4,c	;volatile
   839   001012  EF0D  F008         	goto	i2u146_41
   840   001016  EF0F  F008         	goto	i2u146_40
   841   00101A                     i2u146_41:
   842   00101A  EF18  F008         	goto	i2l2995
   843   00101E                     i2u146_40:
   844   00101E  A2F2               	btfss	242,1,c	;volatile
   845   001020  EF14  F008         	goto	i2u147_41
   846   001024  EF16  F008         	goto	i2u147_40
   847   001028                     i2u147_41:
   848   001028  EF18  F008         	goto	i2l2995
   849   00102C                     i2u147_40:
   850   00102C                     
   851                           ;MCAL_Layer/Interrupt/Interrupt_managment.c: 77:         INT0_ISR();
   852   00102C  ECFE  F00A         	call	_INT0_ISR	;wreg free
   853   001030                     i2l2995:
   854                           
   855                           ;MCAL_Layer/Interrupt/Interrupt_managment.c: 79:      if(INTCON3bits.INT1IE==1 && INTCON
      +                          3bits.INT1IF==1){
   856   001030  A6F0               	btfss	240,3,c	;volatile
   857   001032  EF1D  F008         	goto	i2u148_41
   858   001036  EF1F  F008         	goto	i2u148_40
   859   00103A                     i2u148_41:
   860   00103A  EF28  F008         	goto	i2l3001
   861   00103E                     i2u148_40:
   862   00103E  A0F0               	btfss	240,0,c	;volatile
   863   001040  EF24  F008         	goto	i2u149_41
   864   001044  EF26  F008         	goto	i2u149_40
   865   001048                     i2u149_41:
   866   001048  EF28  F008         	goto	i2l3001
   867   00104C                     i2u149_40:
   868   00104C                     
   869                           ;MCAL_Layer/Interrupt/Interrupt_managment.c: 80:         INT1_ISR();
   870   00104C  ECFC  F00A         	call	_INT1_ISR	;wreg free
   871   001050                     i2l3001:
   872                           
   873                           ;MCAL_Layer/Interrupt/Interrupt_managment.c: 82:      if(INTCON3bits.INT2IE==1 && INTCON
      +                          3bits.INT2IF==1){
   874   001050  A8F0               	btfss	240,4,c	;volatile
   875   001052  EF2D  F008         	goto	i2u150_41
   876   001056  EF2F  F008         	goto	i2u150_40
   877   00105A                     i2u150_41:
   878   00105A  EF38  F008         	goto	i2l3007
   879   00105E                     i2u150_40:
   880   00105E  A2F0               	btfss	240,1,c	;volatile
   881   001060  EF34  F008         	goto	i2u151_41
   882   001064  EF36  F008         	goto	i2u151_40
   883   001068                     i2u151_41:
   884   001068  EF38  F008         	goto	i2l3007
   885   00106C                     i2u151_40:
   886   00106C                     
   887                           ;MCAL_Layer/Interrupt/Interrupt_managment.c: 83:     INT2_ISR();
   888   00106C  ECFA  F00A         	call	_INT2_ISR	;wreg free
   889   001070                     i2l3007:
   890                           
   891                           ;MCAL_Layer/Interrupt/Interrupt_managment.c: 86:     if((INTCONbits.RBIE==1 && INTCONbit
      +                          s.RBIF==1)&& (PORTBbits.RB4==1)&&(flage_4==1)){
   892   001070  A6F2               	btfss	242,3,c	;volatile
   893   001072  EF3D  F008         	goto	i2u152_41
   894   001076  EF3F  F008         	goto	i2u152_40
   895   00107A                     i2u152_41:
   896   00107A  EF5A  F008         	goto	i2l3019
   897   00107E                     i2u152_40:
   898   00107E  A0F2               	btfss	242,0,c	;volatile
   899   001080  EF44  F008         	goto	i2u153_41
   900   001084  EF46  F008         	goto	i2u153_40
   901   001088                     i2u153_41:
   902   001088  EF5A  F008         	goto	i2l3019
   903   00108C                     i2u153_40:
   904   00108C  A881               	btfss	129,4,c	;volatile
   905   00108E  EF4B  F008         	goto	i2u154_41
   906   001092  EF4D  F008         	goto	i2u154_40
   907   001096                     i2u154_41:
   908   001096  EF5A  F008         	goto	i2l3019
   909   00109A                     i2u154_40:
   910   00109A  046D               	decf	_flage_4^0,w,c	;volatile
   911   00109C  A4D8               	btfss	status,2,c
   912   00109E  EF53  F008         	goto	i2u155_41
   913   0010A2  EF55  F008         	goto	i2u155_40
   914   0010A6                     i2u155_41:
   915   0010A6  EF5A  F008         	goto	i2l3019
   916   0010AA                     i2u155_40:
   917   0010AA                     
   918                           ;MCAL_Layer/Interrupt/Interrupt_managment.c: 87:         flage_4=0;
   919   0010AA  0E00               	movlw	0
   920   0010AC  6E6D               	movwf	_flage_4^0,c	;volatile
   921   0010AE                     
   922                           ;MCAL_Layer/Interrupt/Interrupt_managment.c: 88:     RB4_ISR(1);
   923   0010AE  0E01               	movlw	1
   924   0010B0  ECCE  F00A         	call	_RB4_ISR
   925   0010B4                     i2l3019:
   926                           
   927                           ;MCAL_Layer/Interrupt/Interrupt_managment.c: 90:     if((INTCONbits.RBIE==1 && INTCONbit
      +                          s.RBIF==1)&& (PORTBbits.RB4==0)&&(flage_4==0)){
   928   0010B4  A6F2               	btfss	242,3,c	;volatile
   929   0010B6  EF5F  F008         	goto	i2u156_41
   930   0010BA  EF61  F008         	goto	i2u156_40
   931   0010BE                     i2u156_41:
   932   0010BE  EF7C  F008         	goto	i2l3031
   933   0010C2                     i2u156_40:
   934   0010C2  A0F2               	btfss	242,0,c	;volatile
   935   0010C4  EF66  F008         	goto	i2u157_41
   936   0010C8  EF68  F008         	goto	i2u157_40
   937   0010CC                     i2u157_41:
   938   0010CC  EF7C  F008         	goto	i2l3031
   939   0010D0                     i2u157_40:
   940   0010D0  B881               	btfsc	129,4,c	;volatile
   941   0010D2  EF6D  F008         	goto	i2u158_41
   942   0010D6  EF6F  F008         	goto	i2u158_40
   943   0010DA                     i2u158_41:
   944   0010DA  EF7C  F008         	goto	i2l3031
   945   0010DE                     i2u158_40:
   946   0010DE  506D               	movf	_flage_4^0,w,c	;volatile
   947   0010E0  A4D8               	btfss	status,2,c
   948   0010E2  EF75  F008         	goto	i2u159_41
   949   0010E6  EF77  F008         	goto	i2u159_40
   950   0010EA                     i2u159_41:
   951   0010EA  EF7C  F008         	goto	i2l3031
   952   0010EE                     i2u159_40:
   953   0010EE                     
   954                           ;MCAL_Layer/Interrupt/Interrupt_managment.c: 91:         flage_4=1;
   955   0010EE  0E01               	movlw	1
   956   0010F0  6E6D               	movwf	_flage_4^0,c	;volatile
   957   0010F2                     
   958                           ;MCAL_Layer/Interrupt/Interrupt_managment.c: 92:     RB4_ISR(0);
   959   0010F2  0E00               	movlw	0
   960   0010F4  ECCE  F00A         	call	_RB4_ISR
   961   0010F8                     i2l3031:
   962                           
   963                           ;MCAL_Layer/Interrupt/Interrupt_managment.c: 95:     if((INTCONbits.RBIE==1 && INTCONbit
      +                          s.RBIF==1)&& (PORTBbits.RB5==1)&&(flage_5==1)){
   964   0010F8  A6F2               	btfss	242,3,c	;volatile
   965   0010FA  EF81  F008         	goto	i2u160_41
   966   0010FE  EF83  F008         	goto	i2u160_40
   967   001102                     i2u160_41:
   968   001102  EF9E  F008         	goto	i2l3043
   969   001106                     i2u160_40:
   970   001106  A0F2               	btfss	242,0,c	;volatile
   971   001108  EF88  F008         	goto	i2u161_41
   972   00110C  EF8A  F008         	goto	i2u161_40
   973   001110                     i2u161_41:
   974   001110  EF9E  F008         	goto	i2l3043
   975   001114                     i2u161_40:
   976   001114  AA81               	btfss	129,5,c	;volatile
   977   001116  EF8F  F008         	goto	i2u162_41
   978   00111A  EF91  F008         	goto	i2u162_40
   979   00111E                     i2u162_41:
   980   00111E  EF9E  F008         	goto	i2l3043
   981   001122                     i2u162_40:
   982   001122  046C               	decf	_flage_5^0,w,c	;volatile
   983   001124  A4D8               	btfss	status,2,c
   984   001126  EF97  F008         	goto	i2u163_41
   985   00112A  EF99  F008         	goto	i2u163_40
   986   00112E                     i2u163_41:
   987   00112E  EF9E  F008         	goto	i2l3043
   988   001132                     i2u163_40:
   989   001132                     
   990                           ;MCAL_Layer/Interrupt/Interrupt_managment.c: 96:         flage_5=0;
   991   001132  0E00               	movlw	0
   992   001134  6E6C               	movwf	_flage_5^0,c	;volatile
   993   001136                     
   994                           ;MCAL_Layer/Interrupt/Interrupt_managment.c: 97:     RB5_ISR(1);
   995   001136  0E01               	movlw	1
   996   001138  ECC1  F00A         	call	_RB5_ISR
   997   00113C                     i2l3043:
   998                           
   999                           ;MCAL_Layer/Interrupt/Interrupt_managment.c: 99:     if((INTCONbits.RBIE==1 && INTCONbit
      +                          s.RBIF==1)&& (PORTBbits.RB5==0)&&(flage_5==0)){
  1000   00113C  A6F2               	btfss	242,3,c	;volatile
  1001   00113E  EFA3  F008         	goto	i2u164_41
  1002   001142  EFA5  F008         	goto	i2u164_40
  1003   001146                     i2u164_41:
  1004   001146  EFC0  F008         	goto	i2l3055
  1005   00114A                     i2u164_40:
  1006   00114A  A0F2               	btfss	242,0,c	;volatile
  1007   00114C  EFAA  F008         	goto	i2u165_41
  1008   001150  EFAC  F008         	goto	i2u165_40
  1009   001154                     i2u165_41:
  1010   001154  EFC0  F008         	goto	i2l3055
  1011   001158                     i2u165_40:
  1012   001158  BA81               	btfsc	129,5,c	;volatile
  1013   00115A  EFB1  F008         	goto	i2u166_41
  1014   00115E  EFB3  F008         	goto	i2u166_40
  1015   001162                     i2u166_41:
  1016   001162  EFC0  F008         	goto	i2l3055
  1017   001166                     i2u166_40:
  1018   001166  506C               	movf	_flage_5^0,w,c	;volatile
  1019   001168  A4D8               	btfss	status,2,c
  1020   00116A  EFB9  F008         	goto	i2u167_41
  1021   00116E  EFBB  F008         	goto	i2u167_40
  1022   001172                     i2u167_41:
  1023   001172  EFC0  F008         	goto	i2l3055
  1024   001176                     i2u167_40:
  1025   001176                     
  1026                           ;MCAL_Layer/Interrupt/Interrupt_managment.c: 100:         flage_5=1;
  1027   001176  0E01               	movlw	1
  1028   001178  6E6C               	movwf	_flage_5^0,c	;volatile
  1029   00117A                     
  1030                           ;MCAL_Layer/Interrupt/Interrupt_managment.c: 101:     RB5_ISR(0);
  1031   00117A  0E00               	movlw	0
  1032   00117C  ECC1  F00A         	call	_RB5_ISR
  1033   001180                     i2l3055:
  1034                           
  1035                           ;MCAL_Layer/Interrupt/Interrupt_managment.c: 104: if((INTCONbits.RBIE==1 && INTCONbits.R
      +                          BIF==1)&& (PORTBbits.RB6==1)&&(flage_6==1)){
  1036   001180  A6F2               	btfss	242,3,c	;volatile
  1037   001182  EFC5  F008         	goto	i2u168_41
  1038   001186  EFC7  F008         	goto	i2u168_40
  1039   00118A                     i2u168_41:
  1040   00118A  EFE2  F008         	goto	i2l3067
  1041   00118E                     i2u168_40:
  1042   00118E  A0F2               	btfss	242,0,c	;volatile
  1043   001190  EFCC  F008         	goto	i2u169_41
  1044   001194  EFCE  F008         	goto	i2u169_40
  1045   001198                     i2u169_41:
  1046   001198  EFE2  F008         	goto	i2l3067
  1047   00119C                     i2u169_40:
  1048   00119C  AC81               	btfss	129,6,c	;volatile
  1049   00119E  EFD3  F008         	goto	i2u170_41
  1050   0011A2  EFD5  F008         	goto	i2u170_40
  1051   0011A6                     i2u170_41:
  1052   0011A6  EFE2  F008         	goto	i2l3067
  1053   0011AA                     i2u170_40:
  1054   0011AA  046B               	decf	_flage_6^0,w,c	;volatile
  1055   0011AC  A4D8               	btfss	status,2,c
  1056   0011AE  EFDB  F008         	goto	i2u171_41
  1057   0011B2  EFDD  F008         	goto	i2u171_40
  1058   0011B6                     i2u171_41:
  1059   0011B6  EFE2  F008         	goto	i2l3067
  1060   0011BA                     i2u171_40:
  1061   0011BA                     
  1062                           ;MCAL_Layer/Interrupt/Interrupt_managment.c: 105:         flage_6=0;
  1063   0011BA  0E00               	movlw	0
  1064   0011BC  6E6B               	movwf	_flage_6^0,c	;volatile
  1065   0011BE                     
  1066                           ;MCAL_Layer/Interrupt/Interrupt_managment.c: 106:     RB6_ISR(1);
  1067   0011BE  0E01               	movlw	1
  1068   0011C0  ECB4  F00A         	call	_RB6_ISR
  1069   0011C4                     i2l3067:
  1070                           
  1071                           ;MCAL_Layer/Interrupt/Interrupt_managment.c: 108:     if((INTCONbits.RBIE==1 && INTCONbi
      +                          ts.RBIF==1)&& (PORTBbits.RB6==0)&&(flage_6==0)){
  1072   0011C4  A6F2               	btfss	242,3,c	;volatile
  1073   0011C6  EFE7  F008         	goto	i2u172_41
  1074   0011CA  EFE9  F008         	goto	i2u172_40
  1075   0011CE                     i2u172_41:
  1076   0011CE  EF04  F009         	goto	i2l3079
  1077   0011D2                     i2u172_40:
  1078   0011D2  A0F2               	btfss	242,0,c	;volatile
  1079   0011D4  EFEE  F008         	goto	i2u173_41
  1080   0011D8  EFF0  F008         	goto	i2u173_40
  1081   0011DC                     i2u173_41:
  1082   0011DC  EF04  F009         	goto	i2l3079
  1083   0011E0                     i2u173_40:
  1084   0011E0  BC81               	btfsc	129,6,c	;volatile
  1085   0011E2  EFF5  F008         	goto	i2u174_41
  1086   0011E6  EFF7  F008         	goto	i2u174_40
  1087   0011EA                     i2u174_41:
  1088   0011EA  EF04  F009         	goto	i2l3079
  1089   0011EE                     i2u174_40:
  1090   0011EE  506B               	movf	_flage_6^0,w,c	;volatile
  1091   0011F0  A4D8               	btfss	status,2,c
  1092   0011F2  EFFD  F008         	goto	i2u175_41
  1093   0011F6  EFFF  F008         	goto	i2u175_40
  1094   0011FA                     i2u175_41:
  1095   0011FA  EF04  F009         	goto	i2l3079
  1096   0011FE                     i2u175_40:
  1097   0011FE                     
  1098                           ;MCAL_Layer/Interrupt/Interrupt_managment.c: 109:         flage_6=1;
  1099   0011FE  0E01               	movlw	1
  1100   001200  6E6B               	movwf	_flage_6^0,c	;volatile
  1101   001202                     
  1102                           ;MCAL_Layer/Interrupt/Interrupt_managment.c: 110:     RB6_ISR(0);
  1103   001202  0E00               	movlw	0
  1104   001204  ECB4  F00A         	call	_RB6_ISR
  1105   001208                     i2l3079:
  1106                           
  1107                           ;MCAL_Layer/Interrupt/Interrupt_managment.c: 113: if((INTCONbits.RBIE==1 && INTCONbits.R
      +                          BIF==1)&& (PORTBbits.RB7==1)&&(flage_7==1)){
  1108   001208  A6F2               	btfss	242,3,c	;volatile
  1109   00120A  EF09  F009         	goto	i2u176_41
  1110   00120E  EF0B  F009         	goto	i2u176_40
  1111   001212                     i2u176_41:
  1112   001212  EF26  F009         	goto	i2l3091
  1113   001216                     i2u176_40:
  1114   001216  A0F2               	btfss	242,0,c	;volatile
  1115   001218  EF10  F009         	goto	i2u177_41
  1116   00121C  EF12  F009         	goto	i2u177_40
  1117   001220                     i2u177_41:
  1118   001220  EF26  F009         	goto	i2l3091
  1119   001224                     i2u177_40:
  1120   001224  AE81               	btfss	129,7,c	;volatile
  1121   001226  EF17  F009         	goto	i2u178_41
  1122   00122A  EF19  F009         	goto	i2u178_40
  1123   00122E                     i2u178_41:
  1124   00122E  EF26  F009         	goto	i2l3091
  1125   001232                     i2u178_40:
  1126   001232  046A               	decf	_flage_7^0,w,c	;volatile
  1127   001234  A4D8               	btfss	status,2,c
  1128   001236  EF1F  F009         	goto	i2u179_41
  1129   00123A  EF21  F009         	goto	i2u179_40
  1130   00123E                     i2u179_41:
  1131   00123E  EF26  F009         	goto	i2l3091
  1132   001242                     i2u179_40:
  1133   001242                     
  1134                           ;MCAL_Layer/Interrupt/Interrupt_managment.c: 114:         flage_7=0;
  1135   001242  0E00               	movlw	0
  1136   001244  6E6A               	movwf	_flage_7^0,c	;volatile
  1137   001246                     
  1138                           ;MCAL_Layer/Interrupt/Interrupt_managment.c: 115:     RB7_ISR(1);
  1139   001246  0E01               	movlw	1
  1140   001248  ECA7  F00A         	call	_RB7_ISR
  1141   00124C                     i2l3091:
  1142                           
  1143                           ;MCAL_Layer/Interrupt/Interrupt_managment.c: 117:     if((INTCONbits.RBIE==1 && INTCONbi
      +                          ts.RBIF==1)&& (PORTBbits.RB7==0)&&(flage_7==0)){
  1144   00124C  A6F2               	btfss	242,3,c	;volatile
  1145   00124E  EF2B  F009         	goto	i2u180_41
  1146   001252  EF2D  F009         	goto	i2u180_40
  1147   001256                     i2u180_41:
  1148   001256  EF48  F009         	goto	i2l3103
  1149   00125A                     i2u180_40:
  1150   00125A  A0F2               	btfss	242,0,c	;volatile
  1151   00125C  EF32  F009         	goto	i2u181_41
  1152   001260  EF34  F009         	goto	i2u181_40
  1153   001264                     i2u181_41:
  1154   001264  EF48  F009         	goto	i2l3103
  1155   001268                     i2u181_40:
  1156   001268  BE81               	btfsc	129,7,c	;volatile
  1157   00126A  EF39  F009         	goto	i2u182_41
  1158   00126E  EF3B  F009         	goto	i2u182_40
  1159   001272                     i2u182_41:
  1160   001272  EF48  F009         	goto	i2l3103
  1161   001276                     i2u182_40:
  1162   001276  506A               	movf	_flage_7^0,w,c	;volatile
  1163   001278  A4D8               	btfss	status,2,c
  1164   00127A  EF41  F009         	goto	i2u183_41
  1165   00127E  EF43  F009         	goto	i2u183_40
  1166   001282                     i2u183_41:
  1167   001282  EF48  F009         	goto	i2l3103
  1168   001286                     i2u183_40:
  1169   001286                     
  1170                           ;MCAL_Layer/Interrupt/Interrupt_managment.c: 118:         flage_7=1;
  1171   001286  0E01               	movlw	1
  1172   001288  6E6A               	movwf	_flage_7^0,c	;volatile
  1173   00128A                     
  1174                           ;MCAL_Layer/Interrupt/Interrupt_managment.c: 119:     RB7_ISR(0);
  1175   00128A  0E00               	movlw	0
  1176   00128C  ECA7  F00A         	call	_RB7_ISR
  1177   001290                     i2l3103:
  1178                           
  1179                           ;MCAL_Layer/Interrupt/Interrupt_managment.c: 123:     if((PIE1bits.ADIE==1) && (PIR1bits
      +                          .ADIF==1)){
  1180   001290  AC9D               	btfss	157,6,c	;volatile
  1181   001292  EF4D  F009         	goto	i2u184_41
  1182   001296  EF4F  F009         	goto	i2u184_40
  1183   00129A                     i2u184_41:
  1184   00129A  EF58  F009         	goto	i2l3109
  1185   00129E                     i2u184_40:
  1186   00129E  AC9E               	btfss	158,6,c	;volatile
  1187   0012A0  EF54  F009         	goto	i2u185_41
  1188   0012A4  EF56  F009         	goto	i2u185_40
  1189   0012A8                     i2u185_41:
  1190   0012A8  EF58  F009         	goto	i2l3109
  1191   0012AC                     i2u185_40:
  1192   0012AC                     
  1193                           ;MCAL_Layer/Interrupt/Interrupt_managment.c: 124:         ADC_ISR();
  1194   0012AC  EC00  F00B         	call	_ADC_ISR	;wreg free
  1195   0012B0                     i2l3109:
  1196                           
  1197                           ;MCAL_Layer/Interrupt/Interrupt_managment.c: 129:     if((INTCONbits.TMR0IE==1) && (INTC
      +                          ONbits.TMR0IF==1)){
  1198   0012B0  AAF2               	btfss	242,5,c	;volatile
  1199   0012B2  EF5D  F009         	goto	i2u186_41
  1200   0012B6  EF5F  F009         	goto	i2u186_40
  1201   0012BA                     i2u186_41:
  1202   0012BA  EF68  F009         	goto	i2l3115
  1203   0012BE                     i2u186_40:
  1204   0012BE  A4F2               	btfss	242,2,c	;volatile
  1205   0012C0  EF64  F009         	goto	i2u187_41
  1206   0012C4  EF66  F009         	goto	i2u187_40
  1207   0012C8                     i2u187_41:
  1208   0012C8  EF68  F009         	goto	i2l3115
  1209   0012CC                     i2u187_40:
  1210   0012CC                     
  1211                           ;MCAL_Layer/Interrupt/Interrupt_managment.c: 130:         TIMER0_ISR();
  1212   0012CC  ECF0  F00A         	call	_TIMER0_ISR	;wreg free
  1213   0012D0                     i2l3115:
  1214                           
  1215                           ;MCAL_Layer/Interrupt/Interrupt_managment.c: 135:     if((PIE1bits.TMR1IE==1) && (PIR1bi
      +                          ts.TMR1IF==1)){
  1216   0012D0  A09D               	btfss	157,0,c	;volatile
  1217   0012D2  EF6D  F009         	goto	i2u188_41
  1218   0012D6  EF6F  F009         	goto	i2u188_40
  1219   0012DA                     i2u188_41:
  1220   0012DA  EF78  F009         	goto	i2l3121
  1221   0012DE                     i2u188_40:
  1222   0012DE  A09E               	btfss	158,0,c	;volatile
  1223   0012E0  EF74  F009         	goto	i2u189_41
  1224   0012E4  EF76  F009         	goto	i2u189_40
  1225   0012E8                     i2u189_41:
  1226   0012E8  EF78  F009         	goto	i2l3121
  1227   0012EC                     i2u189_40:
  1228   0012EC                     
  1229                           ;MCAL_Layer/Interrupt/Interrupt_managment.c: 136:         TIMER1_ISR();
  1230   0012EC  ECEA  F00A         	call	_TIMER1_ISR	;wreg free
  1231   0012F0                     i2l3121:
  1232                           
  1233                           ;MCAL_Layer/Interrupt/Interrupt_managment.c: 141:     if((PIE1bits.TMR2IE==1) && (PIR1bi
      +                          ts.TMR2IF==1)){
  1234   0012F0  A29D               	btfss	157,1,c	;volatile
  1235   0012F2  EF7D  F009         	goto	i2u190_41
  1236   0012F6  EF7F  F009         	goto	i2u190_40
  1237   0012FA                     i2u190_41:
  1238   0012FA  EF88  F009         	goto	i2l3127
  1239   0012FE                     i2u190_40:
  1240   0012FE  A29E               	btfss	158,1,c	;volatile
  1241   001300  EF84  F009         	goto	i2u191_41
  1242   001304  EF86  F009         	goto	i2u191_40
  1243   001308                     i2u191_41:
  1244   001308  EF88  F009         	goto	i2l3127
  1245   00130C                     i2u191_40:
  1246   00130C                     
  1247                           ;MCAL_Layer/Interrupt/Interrupt_managment.c: 142:         TIMER2_ISR();
  1248   00130C  ECF6  F00A         	call	_TIMER2_ISR	;wreg free
  1249   001310                     i2l3127:
  1250                           
  1251                           ;MCAL_Layer/Interrupt/Interrupt_managment.c: 147:     if((PIE2bits.TMR3IE==1) && (PIR2bi
      +                          ts.TMR3IF==1)){
  1252   001310  A2A0               	btfss	160,1,c	;volatile
  1253   001312  EF8D  F009         	goto	i2u192_41
  1254   001316  EF8F  F009         	goto	i2u192_40
  1255   00131A                     i2u192_41:
  1256   00131A  EF98  F009         	goto	i2l614
  1257   00131E                     i2u192_40:
  1258   00131E  A2A1               	btfss	161,1,c	;volatile
  1259   001320  EF94  F009         	goto	i2u193_41
  1260   001324  EF96  F009         	goto	i2u193_40
  1261   001328                     i2u193_41:
  1262   001328  EF98  F009         	goto	i2l614
  1263   00132C                     i2u193_40:
  1264   00132C                     
  1265                           ;MCAL_Layer/Interrupt/Interrupt_managment.c: 148:         TIMER3_ISR();
  1266   00132C  EC63  F00A         	call	_TIMER3_ISR	;wreg free
  1267   001330                     i2l614:
  1268   001330  C076  FFFB         	movff	??_InterruptManagmentHigh+1,pclatu
  1269   001334  C075  FFFA         	movff	??_InterruptManagmentHigh,pclath
  1270   001338  927B               	bcf	int$flags,1,c	;clear compiler interrupt flag (level 2)
  1271   00133A  0011               	retfie		f
  1272   00133C                     __end_of_InterruptManagmentHigh:
  1273                           	callstack 0
  1274                           
  1275 ;; *************** function _TIMER3_ISR *****************
  1276 ;; Defined at:
  1277 ;;		line 114 in file "MCAL_Layer/Timer3/timer3.c"
  1278 ;; Parameters:    Size  Location     Type
  1279 ;;		None
  1280 ;; Auto vars:     Size  Location     Type
  1281 ;;		None
  1282 ;; Return value:  Size  Location     Type
  1283 ;;                  1    wreg      void 
  1284 ;; Registers used:
  1285 ;;		wreg, status,2, status,0, pcl, pclath, pclatu, tosl, cstack
  1286 ;; Tracked objects:
  1287 ;;		On entry : 0/0
  1288 ;;		On exit  : 0/0
  1289 ;;		Unchanged: 0/0
  1290 ;; Data sizes:     COMRAM   BANK0   BANK1   BANK2   BANK3   BANK4   BANK5   BANK6   BANK7   BANK8   BANK9  BANK10  BANK1
      +1  BANK12  BANK13  BANK14  BANK15
  1291 ;;      Params:         0       0       0       0       0       0       0       0       0       0       0       0       
      +0       0       0       0       0
  1292 ;;      Locals:         0       0       0       0       0       0       0       0       0       0       0       0       
      +0       0       0       0       0
  1293 ;;      Temps:          0       0       0       0       0       0       0       0       0       0       0       0       
      +0       0       0       0       0
  1294 ;;      Totals:         0       0       0       0       0       0       0       0       0       0       0       0       
      +0       0       0       0       0
  1295 ;;Total ram usage:        0 bytes
  1296 ;; Hardware stack levels used: 1
  1297 ;; Hardware stack levels required when called: 1
  1298 ;; This function calls:
  1299 ;;		NULL
  1300 ;;		_timer3_ISR
  1301 ;; This function is called by:
  1302 ;;		_InterruptManagmentHigh
  1303 ;; This function uses a non-reentrant model
  1304 ;;
  1305                           
  1306                           	psect	text4
  1307   0014C6                     __ptext4:
  1308                           	callstack 0
  1309   0014C6                     _TIMER3_ISR:
  1310                           	callstack 27
  1311   0014C6                     
  1312                           ;MCAL_Layer/Timer3/timer3.c: 115:     (PIR2bits.TMR3IF=0);
  1313   0014C6  92A1               	bcf	161,1,c	;volatile
  1314                           
  1315                           ;MCAL_Layer/Timer3/timer3.c: 116:     TMR3=timer3_preload;
  1316   0014C8  C01A  FFB2         	movff	_timer3_preload,4018	;volatile
  1317   0014CC  C01B  FFB3         	movff	_timer3_preload+1,4019	;volatile
  1318   0014D0                     
  1319                           ;MCAL_Layer/Timer3/timer3.c: 117:     if(timer3_callback_ptr){
  1320   0014D0  501C               	movf	_timer3_callback_ptr^0,w,c
  1321   0014D2  101D               	iorwf	(_timer3_callback_ptr+1)^0,w,c
  1322   0014D4  B4D8               	btfsc	status,2,c
  1323   0014D6  EF6F  F00A         	goto	i2u37_41
  1324   0014DA  EF71  F00A         	goto	i2u37_40
  1325   0014DE                     i2u37_41:
  1326   0014DE  EF7D  F00A         	goto	i2l1002
  1327   0014E2                     i2u37_40:
  1328   0014E2                     
  1329                           ;MCAL_Layer/Timer3/timer3.c: 118:         timer3_callback_ptr();
  1330   0014E2  D802               	call	i2u38_48
  1331   0014E4  EF7D  F00A         	goto	i2u38_49
  1332   0014E8                     i2u38_48:
  1333   0014E8  0005               	push	
  1334   0014EA  6EFA               	movwf	pclath,c
  1335   0014EC  501C               	movf	_timer3_callback_ptr^0,w,c
  1336   0014EE  6EFD               	movwf	tosl,c
  1337   0014F0  501D               	movf	(_timer3_callback_ptr+1)^0,w,c
  1338   0014F2  6EFE               	movwf	tosh,c
  1339   0014F4  6AFF               	clrf	tosu,c
  1340   0014F6  50FA               	movf	pclath,w,c
  1341   0014F8  0012               	return		;indir
  1342   0014FA                     i2u38_49:
  1343   0014FA                     i2l1002:
  1344   0014FA  0012               	return		;funcret
  1345   0014FC                     __end_of_TIMER3_ISR:
  1346                           	callstack 0
  1347                           
  1348 ;; *************** function _timer3_ISR *****************
  1349 ;; Defined at:
  1350 ;;		line 20 in file "Application.c"
  1351 ;; Parameters:    Size  Location     Type
  1352 ;;		None
  1353 ;; Auto vars:     Size  Location     Type
  1354 ;;		None
  1355 ;; Return value:  Size  Location     Type
  1356 ;;                  1    wreg      void 
  1357 ;; Registers used:
  1358 ;;		wreg, status,2, status,0
  1359 ;; Tracked objects:
  1360 ;;		On entry : 0/0
  1361 ;;		On exit  : 0/0
  1362 ;;		Unchanged: 0/0
  1363 ;; Data sizes:     COMRAM   BANK0   BANK1   BANK2   BANK3   BANK4   BANK5   BANK6   BANK7   BANK8   BANK9  BANK10  BANK1
      +1  BANK12  BANK13  BANK14  BANK15
  1364 ;;      Params:         0       0       0       0       0       0       0       0       0       0       0       0       
      +0       0       0       0       0
  1365 ;;      Locals:         0       0       0       0       0       0       0       0       0       0       0       0       
      +0       0       0       0       0
  1366 ;;      Temps:          0       0       0       0       0       0       0       0       0       0       0       0       
      +0       0       0       0       0
  1367 ;;      Totals:         0       0       0       0       0       0       0       0       0       0       0       0       
      +0       0       0       0       0
  1368 ;;Total ram usage:        0 bytes
  1369 ;; Hardware stack levels used: 1
  1370 ;; This function calls:
  1371 ;;		Nothing
  1372 ;; This function is called by:
  1373 ;;		_TIMER3_ISR
  1374 ;; This function uses a non-reentrant model
  1375 ;;
  1376                           
  1377                           	psect	text5
  1378   0015C6                     __ptext5:
  1379                           	callstack 0
  1380   0015C6                     _timer3_ISR:
  1381                           	callstack 27
  1382   0015C6                     
  1383                           ;Application.c: 22:     cc++;
  1384   0015C6  0E01               	movlw	1
  1385   0015C8  2612               	addwf	_cc^0,f,c
  1386   0015CA  0E00               	movlw	0
  1387   0015CC  2213               	addwfc	(_cc+1)^0,f,c
  1388   0015CE  2214               	addwfc	(_cc+2)^0,f,c
  1389   0015D0  2215               	addwfc	(_cc+3)^0,f,c
  1390   0015D2  0012               	return		;funcret
  1391   0015D4                     __end_of_timer3_ISR:
  1392                           	callstack 0
  1393                           
  1394 ;; *************** function _TIMER2_ISR *****************
  1395 ;; Defined at:
  1396 ;;		line 98 in file "MCAL_Layer/Timer2/timer2.c"
  1397 ;; Parameters:    Size  Location     Type
  1398 ;;		None
  1399 ;; Auto vars:     Size  Location     Type
  1400 ;;		None
  1401 ;; Return value:  Size  Location     Type
  1402 ;;                  1    wreg      void 
  1403 ;; Registers used:
  1404 ;;		None
  1405 ;; Tracked objects:
  1406 ;;		On entry : 0/0
  1407 ;;		On exit  : 0/0
  1408 ;;		Unchanged: 0/0
  1409 ;; Data sizes:     COMRAM   BANK0   BANK1   BANK2   BANK3   BANK4   BANK5   BANK6   BANK7   BANK8   BANK9  BANK10  BANK1
      +1  BANK12  BANK13  BANK14  BANK15
  1410 ;;      Params:         0       0       0       0       0       0       0       0       0       0       0       0       
      +0       0       0       0       0
  1411 ;;      Locals:         0       0       0       0       0       0       0       0       0       0       0       0       
      +0       0       0       0       0
  1412 ;;      Temps:          0       0       0       0       0       0       0       0       0       0       0       0       
      +0       0       0       0       0
  1413 ;;      Totals:         0       0       0       0       0       0       0       0       0       0       0       0       
      +0       0       0       0       0
  1414 ;;Total ram usage:        0 bytes
  1415 ;; Hardware stack levels used: 1
  1416 ;; This function calls:
  1417 ;;		Nothing
  1418 ;; This function is called by:
  1419 ;;		_InterruptManagmentHigh
  1420 ;; This function uses a non-reentrant model
  1421 ;;
  1422                           
  1423                           	psect	text6
  1424   0015EC                     __ptext6:
  1425                           	callstack 0
  1426   0015EC                     _TIMER2_ISR:
  1427                           	callstack 28
  1428   0015EC                     
  1429                           ;MCAL_Layer/Timer2/timer2.c: 99:     (PIR1bits.TMR2IF=0);
  1430   0015EC  929E               	bcf	158,1,c	;volatile
  1431                           
  1432                           ;MCAL_Layer/Timer2/timer2.c: 100:     TMR2=timer2_preload;
  1433   0015EE  C040  FFCC         	movff	_timer2_preload,4044	;volatile
  1434   0015F2  0012               	return		;funcret
  1435   0015F4                     __end_of_TIMER2_ISR:
  1436                           	callstack 0
  1437                           
  1438 ;; *************** function _TIMER1_ISR *****************
  1439 ;; Defined at:
  1440 ;;		line 161 in file "MCAL_Layer/Timer1/timer1.c"
  1441 ;; Parameters:    Size  Location     Type
  1442 ;;		None
  1443 ;; Auto vars:     Size  Location     Type
  1444 ;;		None
  1445 ;; Return value:  Size  Location     Type
  1446 ;;                  1    wreg      void 
  1447 ;; Registers used:
  1448 ;;		wreg, status,2
  1449 ;; Tracked objects:
  1450 ;;		On entry : 0/0
  1451 ;;		On exit  : 0/0
  1452 ;;		Unchanged: 0/0
  1453 ;; Data sizes:     COMRAM   BANK0   BANK1   BANK2   BANK3   BANK4   BANK5   BANK6   BANK7   BANK8   BANK9  BANK10  BANK1
      +1  BANK12  BANK13  BANK14  BANK15
  1454 ;;      Params:         0       0       0       0       0       0       0       0       0       0       0       0       
      +0       0       0       0       0
  1455 ;;      Locals:         0       0       0       0       0       0       0       0       0       0       0       0       
      +0       0       0       0       0
  1456 ;;      Temps:          0       0       0       0       0       0       0       0       0       0       0       0       
      +0       0       0       0       0
  1457 ;;      Totals:         0       0       0       0       0       0       0       0       0       0       0       0       
      +0       0       0       0       0
  1458 ;;Total ram usage:        0 bytes
  1459 ;; Hardware stack levels used: 1
  1460 ;; This function calls:
  1461 ;;		Nothing
  1462 ;; This function is called by:
  1463 ;;		_InterruptManagmentHigh
  1464 ;; This function uses a non-reentrant model
  1465 ;;
  1466                           
  1467                           	psect	text7
  1468   0015D4                     __ptext7:
  1469                           	callstack 0
  1470   0015D4                     _TIMER1_ISR:
  1471                           	callstack 28
  1472   0015D4                     
  1473                           ;MCAL_Layer/Timer1/timer1.c: 162:     (PIR1bits.TMR1IF=0);
  1474   0015D4  909E               	bcf	158,0,c	;volatile
  1475   0015D6                     
  1476                           ;MCAL_Layer/Timer1/timer1.c: 163:     TMR1H=timer1_preload>>8;
  1477   0015D6  5021               	movf	(_timer1_preload+1)^0,w,c
  1478   0015D8  6ECF               	movwf	207,c	;volatile
  1479   0015DA                     
  1480                           ;MCAL_Layer/Timer1/timer1.c: 164:     TMR1L =(uint8)timer1_preload;
  1481   0015DA  C020  FFCE         	movff	_timer1_preload,4046	;volatile
  1482   0015DE  0012               	return		;funcret
  1483   0015E0                     __end_of_TIMER1_ISR:
  1484                           	callstack 0
  1485                           
  1486 ;; *************** function _TIMER0_ISR *****************
  1487 ;; Defined at:
  1488 ;;		line 162 in file "MCAL_Layer/Timer/timer0.c"
  1489 ;; Parameters:    Size  Location     Type
  1490 ;;		None
  1491 ;; Auto vars:     Size  Location     Type
  1492 ;;		None
  1493 ;; Return value:  Size  Location     Type
  1494 ;;                  1    wreg      void 
  1495 ;; Registers used:
  1496 ;;		wreg, status,2
  1497 ;; Tracked objects:
  1498 ;;		On entry : 0/0
  1499 ;;		On exit  : 0/0
  1500 ;;		Unchanged: 0/0
  1501 ;; Data sizes:     COMRAM   BANK0   BANK1   BANK2   BANK3   BANK4   BANK5   BANK6   BANK7   BANK8   BANK9  BANK10  BANK1
      +1  BANK12  BANK13  BANK14  BANK15
  1502 ;;      Params:         0       0       0       0       0       0       0       0       0       0       0       0       
      +0       0       0       0       0
  1503 ;;      Locals:         0       0       0       0       0       0       0       0       0       0       0       0       
      +0       0       0       0       0
  1504 ;;      Temps:          0       0       0       0       0       0       0       0       0       0       0       0       
      +0       0       0       0       0
  1505 ;;      Totals:         0       0       0       0       0       0       0       0       0       0       0       0       
      +0       0       0       0       0
  1506 ;;Total ram usage:        0 bytes
  1507 ;; Hardware stack levels used: 1
  1508 ;; This function calls:
  1509 ;;		Nothing
  1510 ;; This function is called by:
  1511 ;;		_InterruptManagmentHigh
  1512 ;; This function uses a non-reentrant model
  1513 ;;
  1514                           
  1515                           	psect	text8
  1516   0015E0                     __ptext8:
  1517                           	callstack 0
  1518   0015E0                     _TIMER0_ISR:
  1519                           	callstack 28
  1520   0015E0                     
  1521                           ;MCAL_Layer/Timer/timer0.c: 163:     (INTCONbits.TMR0IF=0);
  1522   0015E0  94F2               	bcf	242,2,c	;volatile
  1523   0015E2                     
  1524                           ;MCAL_Layer/Timer/timer0.c: 164:     TMR0H=timer0_preload>>8;
  1525   0015E2  5025               	movf	(_timer0_preload+1)^0,w,c
  1526   0015E4  6ED7               	movwf	215,c	;volatile
  1527   0015E6                     
  1528                           ;MCAL_Layer/Timer/timer0.c: 165:     TMR0L =(uint8)timer0_preload;
  1529   0015E6  C024  FFD6         	movff	_timer0_preload,4054	;volatile
  1530   0015EA  0012               	return		;funcret
  1531   0015EC                     __end_of_TIMER0_ISR:
  1532                           	callstack 0
  1533                           
  1534 ;; *************** function _RB7_ISR *****************
  1535 ;; Defined at:
  1536 ;;		line 434 in file "MCAL_Layer/Interrupt/Interrupt_external.c"
  1537 ;; Parameters:    Size  Location     Type
  1538 ;;  flage           1    wreg     unsigned char 
  1539 ;; Auto vars:     Size  Location     Type
  1540 ;;  flage           1    0[COMRAM] unsigned char 
  1541 ;; Return value:  Size  Location     Type
  1542 ;;                  1    wreg      void 
  1543 ;; Registers used:
  1544 ;;		wreg, status,2, status,0
  1545 ;; Tracked objects:
  1546 ;;		On entry : 0/0
  1547 ;;		On exit  : 0/0
  1548 ;;		Unchanged: 0/0
  1549 ;; Data sizes:     COMRAM   BANK0   BANK1   BANK2   BANK3   BANK4   BANK5   BANK6   BANK7   BANK8   BANK9  BANK10  BANK1
      +1  BANK12  BANK13  BANK14  BANK15
  1550 ;;      Params:         0       0       0       0       0       0       0       0       0       0       0       0       
      +0       0       0       0       0
  1551 ;;      Locals:         1       0       0       0       0       0       0       0       0       0       0       0       
      +0       0       0       0       0
  1552 ;;      Temps:          0       0       0       0       0       0       0       0       0       0       0       0       
      +0       0       0       0       0
  1553 ;;      Totals:         1       0       0       0       0       0       0       0       0       0       0       0       
      +0       0       0       0       0
  1554 ;;Total ram usage:        1 bytes
  1555 ;; Hardware stack levels used: 1
  1556 ;; This function calls:
  1557 ;;		Nothing
  1558 ;; This function is called by:
  1559 ;;		_InterruptManagmentHigh
  1560 ;; This function uses a non-reentrant model
  1561 ;;
  1562                           
  1563                           	psect	text9
  1564   00154E                     __ptext9:
  1565                           	callstack 0
  1566   00154E                     _RB7_ISR:
  1567                           	callstack 28
  1568                           
  1569                           ;incstack = 0
  1570                           ;RB7_ISR@flage stored from wreg
  1571   00154E  6E74               	movwf	RB7_ISR@flage^0,c
  1572   001550                     
  1573                           ;MCAL_Layer/Interrupt/Interrupt_external.c: 435:    (INTCONbits.RBIF=0);
  1574   001550  90F2               	bcf	242,0,c	;volatile
  1575   001552                     
  1576                           ;MCAL_Layer/Interrupt/Interrupt_external.c: 436:     if(flage==1){
  1577   001552  0474               	decf	RB7_ISR@flage^0,w,c
  1578   001554  A4D8               	btfss	status,2,c
  1579   001556  EFAF  F00A         	goto	i2u36_41
  1580   00155A  EFB1  F00A         	goto	i2u36_40
  1581   00155E                     i2u36_41:
  1582   00155E  EFB3  F00A         	goto	i2l1973
  1583   001562                     i2u36_40:
  1584   001562  EFB3  F00A         	goto	i2l793
  1585   001566                     i2l1973:
  1586   001566                     i2l793:
  1587   001566  0012               	return		;funcret
  1588   001568                     __end_of_RB7_ISR:
  1589                           	callstack 0
  1590                           
  1591 ;; *************** function _RB6_ISR *****************
  1592 ;; Defined at:
  1593 ;;		line 416 in file "MCAL_Layer/Interrupt/Interrupt_external.c"
  1594 ;; Parameters:    Size  Location     Type
  1595 ;;  flage           1    wreg     unsigned char 
  1596 ;; Auto vars:     Size  Location     Type
  1597 ;;  flage           1    0[COMRAM] unsigned char 
  1598 ;; Return value:  Size  Location     Type
  1599 ;;                  1    wreg      void 
  1600 ;; Registers used:
  1601 ;;		wreg, status,2, status,0
  1602 ;; Tracked objects:
  1603 ;;		On entry : 0/0
  1604 ;;		On exit  : 0/0
  1605 ;;		Unchanged: 0/0
  1606 ;; Data sizes:     COMRAM   BANK0   BANK1   BANK2   BANK3   BANK4   BANK5   BANK6   BANK7   BANK8   BANK9  BANK10  BANK1
      +1  BANK12  BANK13  BANK14  BANK15
  1607 ;;      Params:         0       0       0       0       0       0       0       0       0       0       0       0       
      +0       0       0       0       0
  1608 ;;      Locals:         1       0       0       0       0       0       0       0       0       0       0       0       
      +0       0       0       0       0
  1609 ;;      Temps:          0       0       0       0       0       0       0       0       0       0       0       0       
      +0       0       0       0       0
  1610 ;;      Totals:         1       0       0       0       0       0       0       0       0       0       0       0       
      +0       0       0       0       0
  1611 ;;Total ram usage:        1 bytes
  1612 ;; Hardware stack levels used: 1
  1613 ;; This function calls:
  1614 ;;		Nothing
  1615 ;; This function is called by:
  1616 ;;		_InterruptManagmentHigh
  1617 ;; This function uses a non-reentrant model
  1618 ;;
  1619                           
  1620                           	psect	text10
  1621   001568                     __ptext10:
  1622                           	callstack 0
  1623   001568                     _RB6_ISR:
  1624                           	callstack 28
  1625                           
  1626                           ;incstack = 0
  1627                           ;RB6_ISR@flage stored from wreg
  1628   001568  6E74               	movwf	RB6_ISR@flage^0,c
  1629   00156A                     
  1630                           ;MCAL_Layer/Interrupt/Interrupt_external.c: 417:    (INTCONbits.RBIF=0);
  1631   00156A  90F2               	bcf	242,0,c	;volatile
  1632   00156C                     
  1633                           ;MCAL_Layer/Interrupt/Interrupt_external.c: 418:     if(flage==1){
  1634   00156C  0474               	decf	RB6_ISR@flage^0,w,c
  1635   00156E  A4D8               	btfss	status,2,c
  1636   001570  EFBC  F00A         	goto	i2u35_41
  1637   001574  EFBE  F00A         	goto	i2u35_40
  1638   001578                     i2u35_41:
  1639   001578  EFC0  F00A         	goto	i2l1963
  1640   00157C                     i2u35_40:
  1641   00157C  EFC0  F00A         	goto	i2l784
  1642   001580                     i2l1963:
  1643   001580                     i2l784:
  1644   001580  0012               	return		;funcret
  1645   001582                     __end_of_RB6_ISR:
  1646                           	callstack 0
  1647                           
  1648 ;; *************** function _RB5_ISR *****************
  1649 ;; Defined at:
  1650 ;;		line 398 in file "MCAL_Layer/Interrupt/Interrupt_external.c"
  1651 ;; Parameters:    Size  Location     Type
  1652 ;;  flage           1    wreg     unsigned char 
  1653 ;; Auto vars:     Size  Location     Type
  1654 ;;  flage           1    0[COMRAM] unsigned char 
  1655 ;; Return value:  Size  Location     Type
  1656 ;;                  1    wreg      void 
  1657 ;; Registers used:
  1658 ;;		wreg, status,2, status,0
  1659 ;; Tracked objects:
  1660 ;;		On entry : 0/0
  1661 ;;		On exit  : 0/0
  1662 ;;		Unchanged: 0/0
  1663 ;; Data sizes:     COMRAM   BANK0   BANK1   BANK2   BANK3   BANK4   BANK5   BANK6   BANK7   BANK8   BANK9  BANK10  BANK1
      +1  BANK12  BANK13  BANK14  BANK15
  1664 ;;      Params:         0       0       0       0       0       0       0       0       0       0       0       0       
      +0       0       0       0       0
  1665 ;;      Locals:         1       0       0       0       0       0       0       0       0       0       0       0       
      +0       0       0       0       0
  1666 ;;      Temps:          0       0       0       0       0       0       0       0       0       0       0       0       
      +0       0       0       0       0
  1667 ;;      Totals:         1       0       0       0       0       0       0       0       0       0       0       0       
      +0       0       0       0       0
  1668 ;;Total ram usage:        1 bytes
  1669 ;; Hardware stack levels used: 1
  1670 ;; This function calls:
  1671 ;;		Nothing
  1672 ;; This function is called by:
  1673 ;;		_InterruptManagmentHigh
  1674 ;; This function uses a non-reentrant model
  1675 ;;
  1676                           
  1677                           	psect	text11
  1678   001582                     __ptext11:
  1679                           	callstack 0
  1680   001582                     _RB5_ISR:
  1681                           	callstack 28
  1682                           
  1683                           ;incstack = 0
  1684                           ;RB5_ISR@flage stored from wreg
  1685   001582  6E74               	movwf	RB5_ISR@flage^0,c
  1686   001584                     
  1687                           ;MCAL_Layer/Interrupt/Interrupt_external.c: 399:    (INTCONbits.RBIF=0);
  1688   001584  90F2               	bcf	242,0,c	;volatile
  1689   001586                     
  1690                           ;MCAL_Layer/Interrupt/Interrupt_external.c: 400:     if(flage==1){
  1691   001586  0474               	decf	RB5_ISR@flage^0,w,c
  1692   001588  A4D8               	btfss	status,2,c
  1693   00158A  EFC9  F00A         	goto	i2u34_41
  1694   00158E  EFCB  F00A         	goto	i2u34_40
  1695   001592                     i2u34_41:
  1696   001592  EFCD  F00A         	goto	i2l1953
  1697   001596                     i2u34_40:
  1698   001596  EFCD  F00A         	goto	i2l775
  1699   00159A                     i2l1953:
  1700   00159A                     i2l775:
  1701   00159A  0012               	return		;funcret
  1702   00159C                     __end_of_RB5_ISR:
  1703                           	callstack 0
  1704                           
  1705 ;; *************** function _RB4_ISR *****************
  1706 ;; Defined at:
  1707 ;;		line 380 in file "MCAL_Layer/Interrupt/Interrupt_external.c"
  1708 ;; Parameters:    Size  Location     Type
  1709 ;;  flage           1    wreg     unsigned char 
  1710 ;; Auto vars:     Size  Location     Type
  1711 ;;  flage           1    0[COMRAM] unsigned char 
  1712 ;; Return value:  Size  Location     Type
  1713 ;;                  1    wreg      void 
  1714 ;; Registers used:
  1715 ;;		wreg, status,2, status,0
  1716 ;; Tracked objects:
  1717 ;;		On entry : 0/0
  1718 ;;		On exit  : 0/0
  1719 ;;		Unchanged: 0/0
  1720 ;; Data sizes:     COMRAM   BANK0   BANK1   BANK2   BANK3   BANK4   BANK5   BANK6   BANK7   BANK8   BANK9  BANK10  BANK1
      +1  BANK12  BANK13  BANK14  BANK15
  1721 ;;      Params:         0       0       0       0       0       0       0       0       0       0       0       0       
      +0       0       0       0       0
  1722 ;;      Locals:         1       0       0       0       0       0       0       0       0       0       0       0       
      +0       0       0       0       0
  1723 ;;      Temps:          0       0       0       0       0       0       0       0       0       0       0       0       
      +0       0       0       0       0
  1724 ;;      Totals:         1       0       0       0       0       0       0       0       0       0       0       0       
      +0       0       0       0       0
  1725 ;;Total ram usage:        1 bytes
  1726 ;; Hardware stack levels used: 1
  1727 ;; This function calls:
  1728 ;;		Nothing
  1729 ;; This function is called by:
  1730 ;;		_InterruptManagmentHigh
  1731 ;; This function uses a non-reentrant model
  1732 ;;
  1733                           
  1734                           	psect	text12
  1735   00159C                     __ptext12:
  1736                           	callstack 0
  1737   00159C                     _RB4_ISR:
  1738                           	callstack 28
  1739                           
  1740                           ;incstack = 0
  1741                           ;RB4_ISR@flage stored from wreg
  1742   00159C  6E74               	movwf	RB4_ISR@flage^0,c
  1743   00159E                     
  1744                           ;MCAL_Layer/Interrupt/Interrupt_external.c: 381:     (INTCONbits.RBIF=0);
  1745   00159E  90F2               	bcf	242,0,c	;volatile
  1746   0015A0                     
  1747                           ;MCAL_Layer/Interrupt/Interrupt_external.c: 382:     if(flage==1){
  1748   0015A0  0474               	decf	RB4_ISR@flage^0,w,c
  1749   0015A2  A4D8               	btfss	status,2,c
  1750   0015A4  EFD6  F00A         	goto	i2u33_41
  1751   0015A8  EFD8  F00A         	goto	i2u33_40
  1752   0015AC                     i2u33_41:
  1753   0015AC  EFDA  F00A         	goto	i2l1943
  1754   0015B0                     i2u33_40:
  1755   0015B0  EFDA  F00A         	goto	i2l766
  1756   0015B4                     i2l1943:
  1757   0015B4                     i2l766:
  1758   0015B4  0012               	return		;funcret
  1759   0015B6                     __end_of_RB4_ISR:
  1760                           	callstack 0
  1761                           
  1762 ;; *************** function _INT2_ISR *****************
  1763 ;; Defined at:
  1764 ;;		line 371 in file "MCAL_Layer/Interrupt/Interrupt_external.c"
  1765 ;; Parameters:    Size  Location     Type
  1766 ;;		None
  1767 ;; Auto vars:     Size  Location     Type
  1768 ;;		None
  1769 ;; Return value:  Size  Location     Type
  1770 ;;                  1    wreg      void 
  1771 ;; Registers used:
  1772 ;;		None
  1773 ;; Tracked objects:
  1774 ;;		On entry : 0/0
  1775 ;;		On exit  : 0/0
  1776 ;;		Unchanged: 0/0
  1777 ;; Data sizes:     COMRAM   BANK0   BANK1   BANK2   BANK3   BANK4   BANK5   BANK6   BANK7   BANK8   BANK9  BANK10  BANK1
      +1  BANK12  BANK13  BANK14  BANK15
  1778 ;;      Params:         0       0       0       0       0       0       0       0       0       0       0       0       
      +0       0       0       0       0
  1779 ;;      Locals:         0       0       0       0       0       0       0       0       0       0       0       0       
      +0       0       0       0       0
  1780 ;;      Temps:          0       0       0       0       0       0       0       0       0       0       0       0       
      +0       0       0       0       0
  1781 ;;      Totals:         0       0       0       0       0       0       0       0       0       0       0       0       
      +0       0       0       0       0
  1782 ;;Total ram usage:        0 bytes
  1783 ;; Hardware stack levels used: 1
  1784 ;; This function calls:
  1785 ;;		Nothing
  1786 ;; This function is called by:
  1787 ;;		_InterruptManagmentHigh
  1788 ;; This function uses a non-reentrant model
  1789 ;;
  1790                           
  1791                           	psect	text13
  1792   0015F4                     __ptext13:
  1793                           	callstack 0
  1794   0015F4                     _INT2_ISR:
  1795                           	callstack 28
  1796   0015F4                     
  1797                           ;MCAL_Layer/Interrupt/Interrupt_external.c: 372:     (INTCON3bits.INT2IF=0);
  1798   0015F4  92F0               	bcf	240,1,c	;volatile
  1799   0015F6  0012               	return		;funcret
  1800   0015F8                     __end_of_INT2_ISR:
  1801                           	callstack 0
  1802                           
  1803 ;; *************** function _INT1_ISR *****************
  1804 ;; Defined at:
  1805 ;;		line 364 in file "MCAL_Layer/Interrupt/Interrupt_external.c"
  1806 ;; Parameters:    Size  Location     Type
  1807 ;;		None
  1808 ;; Auto vars:     Size  Location     Type
  1809 ;;		None
  1810 ;; Return value:  Size  Location     Type
  1811 ;;                  1    wreg      void 
  1812 ;; Registers used:
  1813 ;;		None
  1814 ;; Tracked objects:
  1815 ;;		On entry : 0/0
  1816 ;;		On exit  : 0/0
  1817 ;;		Unchanged: 0/0
  1818 ;; Data sizes:     COMRAM   BANK0   BANK1   BANK2   BANK3   BANK4   BANK5   BANK6   BANK7   BANK8   BANK9  BANK10  BANK1
      +1  BANK12  BANK13  BANK14  BANK15
  1819 ;;      Params:         0       0       0       0       0       0       0       0       0       0       0       0       
      +0       0       0       0       0
  1820 ;;      Locals:         0       0       0       0       0       0       0       0       0       0       0       0       
      +0       0       0       0       0
  1821 ;;      Temps:          0       0       0       0       0       0       0       0       0       0       0       0       
      +0       0       0       0       0
  1822 ;;      Totals:         0       0       0       0       0       0       0       0       0       0       0       0       
      +0       0       0       0       0
  1823 ;;Total ram usage:        0 bytes
  1824 ;; Hardware stack levels used: 1
  1825 ;; This function calls:
  1826 ;;		Nothing
  1827 ;; This function is called by:
  1828 ;;		_InterruptManagmentHigh
  1829 ;; This function uses a non-reentrant model
  1830 ;;
  1831                           
  1832                           	psect	text14
  1833   0015F8                     __ptext14:
  1834                           	callstack 0
  1835   0015F8                     _INT1_ISR:
  1836                           	callstack 28
  1837   0015F8                     
  1838                           ;MCAL_Layer/Interrupt/Interrupt_external.c: 365:     (INTCON3bits.INT1IF=0);
  1839   0015F8  90F0               	bcf	240,0,c	;volatile
  1840   0015FA  0012               	return		;funcret
  1841   0015FC                     __end_of_INT1_ISR:
  1842                           	callstack 0
  1843                           
  1844 ;; *************** function _INT0_ISR *****************
  1845 ;; Defined at:
  1846 ;;		line 357 in file "MCAL_Layer/Interrupt/Interrupt_external.c"
  1847 ;; Parameters:    Size  Location     Type
  1848 ;;		None
  1849 ;; Auto vars:     Size  Location     Type
  1850 ;;		None
  1851 ;; Return value:  Size  Location     Type
  1852 ;;                  1    wreg      void 
  1853 ;; Registers used:
  1854 ;;		None
  1855 ;; Tracked objects:
  1856 ;;		On entry : 0/0
  1857 ;;		On exit  : 0/0
  1858 ;;		Unchanged: 0/0
  1859 ;; Data sizes:     COMRAM   BANK0   BANK1   BANK2   BANK3   BANK4   BANK5   BANK6   BANK7   BANK8   BANK9  BANK10  BANK1
      +1  BANK12  BANK13  BANK14  BANK15
  1860 ;;      Params:         0       0       0       0       0       0       0       0       0       0       0       0       
      +0       0       0       0       0
  1861 ;;      Locals:         0       0       0       0       0       0       0       0       0       0       0       0       
      +0       0       0       0       0
  1862 ;;      Temps:          0       0       0       0       0       0       0       0       0       0       0       0       
      +0       0       0       0       0
  1863 ;;      Totals:         0       0       0       0       0       0       0       0       0       0       0       0       
      +0       0       0       0       0
  1864 ;;Total ram usage:        0 bytes
  1865 ;; Hardware stack levels used: 1
  1866 ;; This function calls:
  1867 ;;		Nothing
  1868 ;; This function is called by:
  1869 ;;		_InterruptManagmentHigh
  1870 ;; This function uses a non-reentrant model
  1871 ;;
  1872                           
  1873                           	psect	text15
  1874   0015FC                     __ptext15:
  1875                           	callstack 0
  1876   0015FC                     _INT0_ISR:
  1877                           	callstack 28
  1878   0015FC                     
  1879                           ;MCAL_Layer/Interrupt/Interrupt_external.c: 358:     (INTCONbits.INT0IF=0);
  1880   0015FC  92F2               	bcf	242,1,c	;volatile
  1881   0015FE  0012               	return		;funcret
  1882   001600                     __end_of_INT0_ISR:
  1883                           	callstack 0
  1884                           
  1885 ;; *************** function _ADC_ISR *****************
  1886 ;; Defined at:
  1887 ;;		line 322 in file "MCAL_Layer/ADC/ADC.c"
  1888 ;; Parameters:    Size  Location     Type
  1889 ;;		None
  1890 ;; Auto vars:     Size  Location     Type
  1891 ;;		None
  1892 ;; Return value:  Size  Location     Type
  1893 ;;                  1    wreg      void 
  1894 ;; Registers used:
  1895 ;;		None
  1896 ;; Tracked objects:
  1897 ;;		On entry : 0/0
  1898 ;;		On exit  : 0/0
  1899 ;;		Unchanged: 0/0
  1900 ;; Data sizes:     COMRAM   BANK0   BANK1   BANK2   BANK3   BANK4   BANK5   BANK6   BANK7   BANK8   BANK9  BANK10  BANK1
      +1  BANK12  BANK13  BANK14  BANK15
  1901 ;;      Params:         0       0       0       0       0       0       0       0       0       0       0       0       
      +0       0       0       0       0
  1902 ;;      Locals:         0       0       0       0       0       0       0       0       0       0       0       0       
      +0       0       0       0       0
  1903 ;;      Temps:          0       0       0       0       0       0       0       0       0       0       0       0       
      +0       0       0       0       0
  1904 ;;      Totals:         0       0       0       0       0       0       0       0       0       0       0       0       
      +0       0       0       0       0
  1905 ;;Total ram usage:        0 bytes
  1906 ;; Hardware stack levels used: 1
  1907 ;; This function calls:
  1908 ;;		Nothing
  1909 ;; This function is called by:
  1910 ;;		_InterruptManagmentHigh
  1911 ;; This function uses a non-reentrant model
  1912 ;;
  1913                           
  1914                           	psect	text16
  1915   001600                     __ptext16:
  1916                           	callstack 0
  1917   001600                     _ADC_ISR:
  1918                           	callstack 28
  1919   001600                     
  1920                           ;MCAL_Layer/ADC/ADC.c: 323:     (PIR1bits.ADIF=0);
  1921   001600  9C9E               	bcf	158,6,c	;volatile
  1922   001602  0012               	return		;funcret
  1923   001604                     __end_of_ADC_ISR:
  1924                           	callstack 0
  1925                           
  1926                           	psect	text17
  1927   000000                     __ptext17:
  1928                           	callstack 0
  1929   000000                     
  1930                           	psect	rparam
  1931   000000                     
  1932                           	psect	temp
  1933   00007B                     btemp:
  1934                           	callstack 0
  1935   00007B                     	ds	1
  1936   000000                     int$flags	set	btemp
  1937   000000                     wtemp8	set	btemp+1
  1938   000000                     ttemp5	set	btemp+1
  1939   000000                     ttemp6	set	btemp+4
  1940   000000                     ttemp7	set	btemp+8
  1941                           
  1942                           	psect	idloc
  1943                           
  1944                           ;Config register IDLOC0 @ 0x200000
  1945                           ;	unspecified, using default values
  1946   200000                     	org	2097152
  1947   200000  FF                 	db	255
  1948                           
  1949                           ;Config register IDLOC1 @ 0x200001
  1950                           ;	unspecified, using default values
  1951   200001                     	org	2097153
  1952   200001  FF                 	db	255
  1953                           
  1954                           ;Config register IDLOC2 @ 0x200002
  1955                           ;	unspecified, using default values
  1956   200002                     	org	2097154
  1957   200002  FF                 	db	255
  1958                           
  1959                           ;Config register IDLOC3 @ 0x200003
  1960                           ;	unspecified, using default values
  1961   200003                     	org	2097155
  1962   200003  FF                 	db	255
  1963                           
  1964                           ;Config register IDLOC4 @ 0x200004
  1965                           ;	unspecified, using default values
  1966   200004                     	org	2097156
  1967   200004  FF                 	db	255
  1968                           
  1969                           ;Config register IDLOC5 @ 0x200005
  1970                           ;	unspecified, using default values
  1971   200005                     	org	2097157
  1972   200005  FF                 	db	255
  1973                           
  1974                           ;Config register IDLOC6 @ 0x200006
  1975                           ;	unspecified, using default values
  1976   200006                     	org	2097158
  1977   200006  FF                 	db	255
  1978                           
  1979                           ;Config register IDLOC7 @ 0x200007
  1980                           ;	unspecified, using default values
  1981   200007                     	org	2097159
  1982   200007  FF                 	db	255
  1983                           
  1984                           	psect	config
  1985                           
  1986                           ; Padding undefined space
  1987   300000                     	org	3145728
  1988   300000  FF                 	db	255
  1989                           
  1990                           ;Config register CONFIG1H @ 0x300001
  1991                           ;	Oscillator Selection bits
  1992                           ;	OSC = HS, HS oscillator
  1993                           ;	Fail-Safe Clock Monitor Enable bit
  1994                           ;	FCMEN = OFF, Fail-Safe Clock Monitor disabled
  1995                           ;	Internal/External Oscillator Switchover bit
  1996                           ;	IESO = OFF, Oscillator Switchover mode disabled
  1997   300001                     	org	3145729
  1998   300001  02                 	db	2
  1999                           
  2000                           ;Config register CONFIG2L @ 0x300002
  2001                           ;	Power-up Timer Enable bit
  2002                           ;	PWRT = OFF, PWRT disabled
  2003                           ;	Brown-out Reset Enable bits
  2004                           ;	BOREN = OFF, Brown-out Reset disabled in hardware and software
  2005                           ;	Brown Out Reset Voltage bits
  2006                           ;	BORV = 1, 
  2007   300002                     	org	3145730
  2008   300002  09                 	db	9
  2009                           
  2010                           ;Config register CONFIG2H @ 0x300003
  2011                           ;	Watchdog Timer Enable bit
  2012                           ;	WDT = OFF, WDT disabled (control is placed on the SWDTEN bit)
  2013                           ;	Watchdog Timer Postscale Select bits
  2014                           ;	WDTPS = 32768, 1:32768
  2015   300003                     	org	3145731
  2016   300003  1E                 	db	30
  2017                           
  2018                           ; Padding undefined space
  2019   300004                     	org	3145732
  2020   300004  FF                 	db	255
  2021                           
  2022                           ;Config register CONFIG3H @ 0x300005
  2023                           ;	CCP2 MUX bit
  2024                           ;	CCP2MX = PORTC, CCP2 input/output is multiplexed with RC1
  2025                           ;	PORTB A/D Enable bit
  2026                           ;	PBADEN = OFF, PORTB<4:0> pins are configured as digital I/O on Reset
  2027                           ;	Low-Power Timer1 Oscillator Enable bit
  2028                           ;	LPT1OSC = OFF, Timer1 configured for higher power operation
  2029                           ;	MCLR Pin Enable bit
  2030                           ;	MCLRE = ON, MCLR pin enabled; RE3 input pin disabled
  2031   300005                     	org	3145733
  2032   300005  81                 	db	129
  2033                           
  2034                           ;Config register CONFIG4L @ 0x300006
  2035                           ;	Stack Full/Underflow Reset Enable bit
  2036                           ;	STVREN = ON, Stack full/underflow will cause Reset
  2037                           ;	Single-Supply ICSP Enable bit
  2038                           ;	LVP = OFF, Single-Supply ICSP disabled
  2039                           ;	Extended Instruction Set Enable bit
  2040                           ;	XINST = OFF, Instruction set extension and Indexed Addressing mode disabled (Legacy mo
      +                          de)
  2041                           ;	Background Debugger Enable bit
  2042                           ;	DEBUG = 0x1, unprogrammed default
  2043   300006                     	org	3145734
  2044   300006  81                 	db	129
  2045                           
  2046                           ; Padding undefined space
  2047   300007                     	org	3145735
  2048   300007  FF                 	db	255
  2049                           
  2050                           ;Config register CONFIG5L @ 0x300008
  2051                           ;	Code Protection bit
  2052                           ;	CP0 = OFF, Block 0 (000800-003FFFh) not code-protected
  2053                           ;	Code Protection bit
  2054                           ;	CP1 = OFF, Block 1 (004000-007FFFh) not code-protected
  2055                           ;	Code Protection bit
  2056                           ;	CP2 = OFF, Block 2 (008000-00BFFFh) not code-protected
  2057                           ;	Code Protection bit
  2058                           ;	CP3 = OFF, Block 3 (00C000-00FFFFh) not code-protected
  2059   300008                     	org	3145736
  2060   300008  0F                 	db	15
  2061                           
  2062                           ;Config register CONFIG5H @ 0x300009
  2063                           ;	Boot Block Code Protection bit
  2064                           ;	CPB = OFF, Boot block (000000-0007FFh) not code-protected
  2065                           ;	Data EEPROM Code Protection bit
  2066                           ;	CPD = OFF, Data EEPROM not code-protected
  2067   300009                     	org	3145737
  2068   300009  C0                 	db	192
  2069                           
  2070                           ;Config register CONFIG6L @ 0x30000A
  2071                           ;	Write Protection bit
  2072                           ;	WRT0 = OFF, Block 0 (000800-003FFFh) not write-protected
  2073                           ;	Write Protection bit
  2074                           ;	WRT1 = OFF, Block 1 (004000-007FFFh) not write-protected
  2075                           ;	Write Protection bit
  2076                           ;	WRT2 = OFF, Block 2 (008000-00BFFFh) not write-protected
  2077                           ;	Write Protection bit
  2078                           ;	WRT3 = OFF, Block 3 (00C000-00FFFFh) not write-protected
  2079   30000A                     	org	3145738
  2080   30000A  0F                 	db	15
  2081                           
  2082                           ;Config register CONFIG6H @ 0x30000B
  2083                           ;	Configuration Register Write Protection bit
  2084                           ;	WRTC = OFF, Configuration registers (300000-3000FFh) not write-protected
  2085                           ;	Boot Block Write Protection bit
  2086                           ;	WRTB = OFF, Boot Block (000000-0007FFh) not write-protected
  2087                           ;	Data EEPROM Write Protection bit
  2088                           ;	WRTD = OFF, Data EEPROM not write-protected
  2089   30000B                     	org	3145739
  2090   30000B  E0                 	db	224
  2091                           
  2092                           ;Config register CONFIG7L @ 0x30000C
  2093                           ;	Table Read Protection bit
  2094                           ;	EBTR0 = OFF, Block 0 (000800-003FFFh) not protected from table reads executed in other
      +                           blocks
  2095                           ;	Table Read Protection bit
  2096                           ;	EBTR1 = OFF, Block 1 (004000-007FFFh) not protected from table reads executed in other
      +                           blocks
  2097                           ;	Table Read Protection bit
  2098                           ;	EBTR2 = OFF, Block 2 (008000-00BFFFh) not protected from table reads executed in other
      +                           blocks
  2099                           ;	Table Read Protection bit
  2100                           ;	EBTR3 = OFF, Block 3 (00C000-00FFFFh) not protected from table reads executed in other
      +                           blocks
  2101   30000C                     	org	3145740
  2102   30000C  0F                 	db	15
  2103                           
  2104                           ;Config register CONFIG7H @ 0x30000D
  2105                           ;	Boot Block Table Read Protection bit
  2106                           ;	EBTRB = OFF, Boot Block (000000-0007FFh) not protected from table reads executed in ot
      +                          her blocks
  2107   30000D                     	org	3145741
  2108   30000D  40                 	db	64
  2109                           tosu	equ	0xFFF
  2110                           tosh	equ	0xFFE
  2111                           tosl	equ	0xFFD
  2112                           stkptr	equ	0xFFC
  2113                           pclatu	equ	0xFFB
  2114                           pclath	equ	0xFFA
  2115                           pcl	equ	0xFF9
  2116                           tblptru	equ	0xFF8
  2117                           tblptrh	equ	0xFF7
  2118                           tblptrl	equ	0xFF6
  2119                           tablat	equ	0xFF5
  2120                           prodh	equ	0xFF4
  2121                           prodl	equ	0xFF3
  2122                           indf0	equ	0xFEF
  2123                           postinc0	equ	0xFEE
  2124                           postdec0	equ	0xFED
  2125                           preinc0	equ	0xFEC
  2126                           plusw0	equ	0xFEB
  2127                           fsr0h	equ	0xFEA
  2128                           fsr0l	equ	0xFE9
  2129                           wreg	equ	0xFE8
  2130                           indf1	equ	0xFE7
  2131                           postinc1	equ	0xFE6
  2132                           postdec1	equ	0xFE5
  2133                           preinc1	equ	0xFE4
  2134                           plusw1	equ	0xFE3
  2135                           fsr1h	equ	0xFE2
  2136                           fsr1l	equ	0xFE1
  2137                           bsr	equ	0xFE0
  2138                           indf2	equ	0xFDF
  2139                           postinc2	equ	0xFDE
  2140                           postdec2	equ	0xFDD
  2141                           preinc2	equ	0xFDC
  2142                           plusw2	equ	0xFDB
  2143                           fsr2h	equ	0xFDA
  2144                           fsr2l	equ	0xFD9
  2145                           status	equ	0xFD8

Data Sizes:
    Strings     3
    Constant    0
    Data        57
    BSS         74
    Persistent  0
    Stack       0

Auto Spaces:
    Space          Size  Autos    Used
    COMRAM          126      7     122
    BANK0           128      0      16
    BANK1           256      0       0
    BANK2           256      0       0
    BANK3           256      0       0
    BANK4           256      0       0
    BANK5           256      0       0
    BANK6           256      0       0
    BANK7           256      0       0
    BANK8           256      0       0
    BANK9           256      0       0
    BANK10          256      0       0
    BANK11          256      0       0
    BANK12          256      0       0
    BANK13          256      0       0
    BANK14          256      0       0
    BANK15          128      0       0

Pointer List with Targets:

    vfprintf$2	PTR PTR void  size(2) Largest target is 2
		 -> sprintf@ap(COMRAM[2]), 

    vfprintf$1	PTR const unsigned char  size(2) Largest target is 3
		 -> STR_3(CODE[3]), STR_2(CODE[3]), STR_1(CODE[3]), 

    vfprintf$0	PTR struct _IO_FILE size(2) Largest target is 12
		 -> sprintf@f(COMRAM[12]), 

    S3082$source	PTR const unsigned char  size(2) Largest target is 0

    f...source	PTR const unsigned char  size(2) Largest target is 0

    S3082$buffer	PTR unsigned char  size(2) Largest target is 0

    f...buffer	PTR unsigned char  size(2) Largest target is 0

    timer3_read@data	PTR unsigned short  size(2) Largest target is 2
		 -> timer3_counter(COMRAM[2]), 

    timer3_read@ptr	PTR const struct . size(2) Largest target is 6
		 -> timer2(COMRAM[6]), 

    timer3_callback_ptr	PTR FTN()void  size(2) Largest target is 1
		 -> timer3_ISR(), NULL(), 

    timer3_int@ptr.timer3_callback	PTR FTN()void  size(2) Largest target is 1
		 -> timer3_ISR(), 

    timer3_int@ptr	PTR const struct . size(2) Largest target is 6
		 -> timer2(COMRAM[6]), 

    S2421$timer3_callback	PTR FTN()void  size(2) Largest target is 1
		 -> timer3_ISR(), 

    timer2.timer3_callback	PTR FTN()void  size(2) Largest target is 1
		 -> timer3_ISR(), 

    timer2_callback_ptr	PTR FTN()void  size(2) Largest target is 1
		 -> NULL(), 

    S2268$timer2_callback	PTR FTN()void  size(2) Largest target is 0

    timer2_int@ptr.timer2_callback	PTR FTN()void  size(2) Largest target is 0

    timer1_callback_ptr	PTR FTN()void  size(2) Largest target is 1
		 -> NULL(), 

    S2077$timer1_callback	PTR FTN()void  size(2) Largest target is 0

    timer1_int@ptr.timer1_callback	PTR FTN()void  size(2) Largest target is 0

    timer0_read@ptr.timer0_callback	PTR FTN()void  size(2) Largest target is 0

    timer0_write@ptr.timer0_callback	PTR FTN()void  size(2) Largest target is 0

    timer0_callback_ptr	PTR FTN()void  size(2) Largest target is 1
		 -> NULL(), 

    S1950$timer0_callback	PTR FTN()void  size(2) Largest target is 0

    timer0_int@ptr.timer0_callback	PTR FTN()void  size(2) Largest target is 0

    Intx_set_interrupt_Handeler@intx.interrupt_callback	PTR FTN()void  size(2) Largest target is 0

    Int2_interrupt_Handeler	PTR FTN()void  size(2) Largest target is 1
		 -> NULL(), 

    Int1_interrupt_Handeler	PTR FTN()void  size(2) Largest target is 1
		 -> NULL(), 

    Int0_interrupt_Handeler	PTR FTN()void  size(2) Largest target is 1
		 -> NULL(), 

    interrupt_intx_pin@intx.interrupt_callback	PTR FTN()void  size(2) Largest target is 0

    interrupt_intx_edge@intx.interrupt_callback	PTR FTN()void  size(2) Largest target is 0

    interrupt_intx_disable@intx.interrupt_callback	PTR FTN()void  size(2) Largest target is 0

    S1653$interrupt_callback	PTR FTN()void  size(2) Largest target is 0

    interrupt_intx_enable@intx.interrupt_callback	PTR FTN()void  size(2) Largest target is 0

    RB7_HIGH_interrupt_Handeler	PTR FTN()void  size(2) Largest target is 1
		 -> NULL(), 

    RB7_LOW_interrupt_Handeler	PTR FTN()void  size(2) Largest target is 1
		 -> NULL(), 

    RB6_HIGH_interrupt_Handeler	PTR FTN()void  size(2) Largest target is 1
		 -> NULL(), 

    RB6_LOW_interrupt_Handeler	PTR FTN()void  size(2) Largest target is 1
		 -> NULL(), 

    RB5_HIGH_interrupt_Handeler	PTR FTN()void  size(2) Largest target is 1
		 -> NULL(), 

    RB5_LOW_interrupt_Handeler	PTR FTN()void  size(2) Largest target is 1
		 -> NULL(), 

    RB4_HIGH_interrupt_Handeler	PTR FTN()void  size(2) Largest target is 1
		 -> NULL(), 

    RB4_LOW_interrupt_Handeler	PTR FTN()void  size(2) Largest target is 1
		 -> NULL(), 

    S1717$interrupt_callback_HIGH	PTR FTN()void  size(2) Largest target is 0

    interrupt_rbx_int@rbx.interrupt_callback_HIGH	PTR FTN()void  size(2) Largest target is 0

    S1717$interrupt_callback_LOW	PTR FTN()void  size(2) Largest target is 0

    interrupt_rbx_int@rbx.interrupt_callback_LOW	PTR FTN()void  size(2) Largest target is 0

    Tris_Regs	PTR volatile unsigned char [5] size(2) Largest target is 1
		 -> TRISD(ABS[1]), TRISC(ABS[1]), TRISB(ABS[1]), TRISE(ABS[1]), 
		 -> TRISA(BITBIGSFRlllll[1]), 

    Lat_Regs	PTR volatile unsigned char [5] size(2) Largest target is 1
		 -> LATE(BITBIGSFRllllh[1]), LATD(BITBIGSFRllllh[1]), LATC(BITBIGSFRllllh[1]), LATB(BITBIGSFRllllh[1]), 
		 -> LATA(BITBIGSFRlllll[1]), 

    Port_Regs	PTR volatile unsigned char [5] size(2) Largest target is 1
		 -> PORTE(BITBIGSFRlllll[1]), PORTD(BITBIGSFRlllll[1]), PORTC(BITBIGSFRlllll[1]), PORTB(BITBIGSFRlllll[1]), 
		 -> PORTA(BITBIGSFRlllll[1]), 

    adc_reading_mode_cfg@adc.ADC_callback	PTR FTN()void  size(2) Largest target is 0

    adc_Vref_cfg@adc.ADC_callback	PTR FTN()void  size(2) Largest target is 0

    adc_reading_value@adc.ADC_callback	PTR FTN()void  size(2) Largest target is 0

    ADC_Interrupt_handler	PTR FTN()void  size(2) Largest target is 1
		 -> NULL(), 

    S719$ADC_callback	PTR FTN()void  size(2) Largest target is 0

    adc_int@adc.ADC_callback	PTR FTN()void  size(2) Largest target is 0

    sp__memset	PTR void  size(2) Largest target is 0


Critical Paths under _main in COMRAM

    _main->_timer3_int
    _main->_timer3_read

Critical Paths under _InterruptManagmentHigh in COMRAM

    _InterruptManagmentHigh->_RB4_ISR
    _InterruptManagmentHigh->_RB5_ISR
    _InterruptManagmentHigh->_RB6_ISR
    _InterruptManagmentHigh->_RB7_ISR

Critical Paths under _main in BANK0

    None.

Critical Paths under _InterruptManagmentHigh in BANK0

    None.

Critical Paths under _main in BANK1

    None.

Critical Paths under _InterruptManagmentHigh in BANK1

    None.

Critical Paths under _main in BANK2

    None.

Critical Paths under _InterruptManagmentHigh in BANK2

    None.

Critical Paths under _main in BANK3

    None.

Critical Paths under _InterruptManagmentHigh in BANK3

    None.

Critical Paths under _main in BANK4

    None.

Critical Paths under _InterruptManagmentHigh in BANK4

    None.

Critical Paths under _main in BANK5

    None.

Critical Paths under _InterruptManagmentHigh in BANK5

    None.

Critical Paths under _main in BANK6

    None.

Critical Paths under _InterruptManagmentHigh in BANK6

    None.

Critical Paths under _main in BANK7

    None.

Critical Paths under _InterruptManagmentHigh in BANK7

    None.

Critical Paths under _main in BANK8

    None.

Critical Paths under _InterruptManagmentHigh in BANK8

    None.

Critical Paths under _main in BANK9

    None.

Critical Paths under _InterruptManagmentHigh in BANK9

    None.

Critical Paths under _main in BANK10

    None.

Critical Paths under _InterruptManagmentHigh in BANK10

    None.

Critical Paths under _main in BANK11

    None.

Critical Paths under _InterruptManagmentHigh in BANK11

    None.

Critical Paths under _main in BANK12

    None.

Critical Paths under _InterruptManagmentHigh in BANK12

    None.

Critical Paths under _main in BANK13

    None.

Critical Paths under _InterruptManagmentHigh in BANK13

    None.

Critical Paths under _main in BANK14

    None.

Critical Paths under _InterruptManagmentHigh in BANK14

    None.

Critical Paths under _main in BANK15

    None.

Critical Paths under _InterruptManagmentHigh in BANK15

    None.

Call Graph Tables:

 ---------------------------------------------------------------------------------
 (Depth) Function   	        Calls       Base Space   Used Autos Params    Refs
 ---------------------------------------------------------------------------------
 (0) _main                                                 0     0      0     486
                         _timer3_int
                        _timer3_read
 ---------------------------------------------------------------------------------
 (1) _timer3_read                                          5     1      4     226
                                              3 COMRAM     4     0      4
 ---------------------------------------------------------------------------------
 (1) _timer3_int                                           5     3      2     260
                                              3 COMRAM     4     2      2
 ---------------------------------------------------------------------------------
 Estimated maximum stack depth 1
 ---------------------------------------------------------------------------------
 (Depth) Function   	        Calls       Base Space   Used Autos Params    Refs
 ---------------------------------------------------------------------------------
 (2) _InterruptManagmentHigh                               2     2      0     120
                                              1 COMRAM     2     2      0
                            _ADC_ISR
                           _INT0_ISR
                           _INT1_ISR
                           _INT2_ISR
                            _RB4_ISR
                            _RB5_ISR
                            _RB6_ISR
                            _RB7_ISR
                         _TIMER0_ISR
                         _TIMER1_ISR
                         _TIMER2_ISR
                         _TIMER3_ISR
 ---------------------------------------------------------------------------------
 (3) _TIMER3_ISR                                           0     0      0       0
                                NULL *
                         _timer3_ISR *
 ---------------------------------------------------------------------------------
 (4) _timer3_ISR                                           0     0      0       0
 ---------------------------------------------------------------------------------
 (4) NULL(Fake)                                            0     0      0       0
 ---------------------------------------------------------------------------------
 (3) _TIMER2_ISR                                           0     0      0       0
 ---------------------------------------------------------------------------------
 (3) _TIMER1_ISR                                           0     0      0       0
 ---------------------------------------------------------------------------------
 (3) _TIMER0_ISR                                           0     0      0       0
 ---------------------------------------------------------------------------------
 (3) _RB7_ISR                                              1     1      0      30
                                              0 COMRAM     1     1      0
 ---------------------------------------------------------------------------------
 (3) _RB6_ISR                                              1     1      0      30
                                              0 COMRAM     1     1      0
 ---------------------------------------------------------------------------------
 (3) _RB5_ISR                                              1     1      0      30
                                              0 COMRAM     1     1      0
 ---------------------------------------------------------------------------------
 (3) _RB4_ISR                                              1     1      0      30
                                              0 COMRAM     1     1      0
 ---------------------------------------------------------------------------------
 (3) _INT2_ISR                                             0     0      0       0
 ---------------------------------------------------------------------------------
 (3) _INT1_ISR                                             0     0      0       0
 ---------------------------------------------------------------------------------
 (3) _INT0_ISR                                             0     0      0       0
 ---------------------------------------------------------------------------------
 (3) _ADC_ISR                                              0     0      0       0
 ---------------------------------------------------------------------------------
 Estimated maximum stack depth 4
 ---------------------------------------------------------------------------------

 Call Graph Graphs:

 _main (ROOT)
   _timer3_int
   _timer3_read

 _InterruptManagmentHigh (ROOT)
   _ADC_ISR
   _INT0_ISR
   _INT1_ISR
   _INT2_ISR
   _RB4_ISR
   _RB5_ISR
   _RB6_ISR
   _RB7_ISR
   _TIMER0_ISR
   _TIMER1_ISR
   _TIMER2_ISR
   _TIMER3_ISR
     NULL(Fake) *
     _timer3_ISR *

 Address spaces:
Name               Size   Autos  Total    Cost      Usage
BIGRAM             F7F      0       0      49        0.0%
EEDATA             400      0       0       0        0.0%
BITBANK14          100      0       0      33        0.0%
BANK14             100      0       0      34        0.0%
BITBANK13          100      0       0      31        0.0%
BANK13             100      0       0      32        0.0%
BITBANK12          100      0       0      29        0.0%
BANK12             100      0       0      30        0.0%
BITBANK11          100      0       0      27        0.0%
BANK11             100      0       0      28        0.0%
BITBANK10          100      0       0      25        0.0%
BANK10             100      0       0      26        0.0%
BITBANK9           100      0       0      23        0.0%
BANK9              100      0       0      24        0.0%
BITBANK8           100      0       0      21        0.0%
BANK8              100      0       0      22        0.0%
BITBANK7           100      0       0      19        0.0%
BANK7              100      0       0      20        0.0%
BITBANK6           100      0       0      17        0.0%
BANK6              100      0       0      18        0.0%
BITBANK5           100      0       0      15        0.0%
BANK5              100      0       0      16        0.0%
BITBANK4           100      0       0      13        0.0%
BANK4              100      0       0      14        0.0%
BITBANK3           100      0       0      10        0.0%
BANK3              100      0       0      11        0.0%
BITBANK2           100      0       0       8        0.0%
BANK2              100      0       0       9        0.0%
BITBANK1           100      0       0       6        0.0%
BANK1              100      0       0       7        0.0%
BITBANK15           80      0       0      35        0.0%
BANK15              80      0       0      36        0.0%
BITBANK0            80      0       0       4        0.0%
BANK0               80      0      10       5       12.5%
BITCOMRAM           7E      0       0       0        0.0%
COMRAM              7E      7      7A       1       96.8%
BITBIGSFRhlhlh      18      0       0      38        0.0%
BITBIGSFRhh          D      0       0      37        0.0%
BITBIGSFRllhhh       C      0       0      42        0.0%
BITBIGSFRllhhl       6      0       0      43        0.0%
BITBIGSFRlllhh       6      0       0      46        0.0%
BITBIGSFRhlhllh      5      0       0      39        0.0%
BITBIGSFRhlhlll      5      0       0      41        0.0%
BITBIGSFRllhllh      4      0       0      44        0.0%
BITBIGSFRllllh       4      0       0      47        0.0%
BITBIGSFRlllll       4      0       0      48        0.0%
BITBIGSFRhlhlll      1      0       0      40        0.0%
BITBIGSFRllhlll      1      0       0      45        0.0%
BIGSFR               0      0       0     200        0.0%
BITSFR               0      0       0     200        0.0%
SFR                  0      0       0     200        0.0%
STACK                0      0       0       2        0.0%
NULL                 0      0       0       0        0.0%
ABS                  0      0      8A      12        0.0%
DATA                 0      0      8A       3        0.0%
CODE                 0      0       0       0        0.0%


Microchip Technology PIC18 Macro Assembler V2.41 build 20230208172133 
Symbol Table                                                                                   Wed Jul 19 22:53:14 2023

                            _cc 0012                             l952 1532                             l982 141C  
                           l976 13BA                             l978 13DC                             l986 1438  
                           l998 14C4         _Int2_interrupt_Handeler 0038                 __end_of_ADC_ISR 1604  
                           tosl 0FFD                             wreg 0FE8                     led_on@F3059 0047  
               __end_of_RB4_ISR 15B6                 __end_of_RB5_ISR 159C                 __end_of_RB6_ISR 1582  
               __end_of_RB7_ISR 1568                            l4325 13FE                            l4319 1526  
                          l3751 133C                            l3761 13D6                            l3753 134E  
                          l3771 1432                            l3755 1352                            l3773 1434  
                          l3765 13DE                            l3757 13B4                            l3749 133C  
                          l3775 1436                            l3767 1420                            l3759 13BC  
                          l3791 14B4                            l3777 1438                            l3769 1430  
                          l3793 14C4                            l3785 1490                            l3787 1490  
                          l3789 14A2                            STR_1 1001                            _LATA 0F89  
                          _LATB 0F8A                            _LATC 0F8B                            _LATD 0F8C  
                          _LATE 0F8D                            u2530 134E                            u2531 134A  
                          u2540 13B4                            u2541 13B0                            u2550 13D6  
                          u2551 13D2                            u2560 14A2                            u2561 149E  
                          u2570 14B4                            u2571 14B0                            _TMR2 0FCC  
                          _TMR3 0FB2                            _led1 0069                            _main 1526  
                          fsr2h 0FDA                            indf2 0FDF                            fsr1l 0FE1  
                          fsr2l 0FD9                            btemp 007B                            start 000E  
                  ___param_bank 0000             _timer1_callback_ptr 0022                     ?_TIMER0_ISR 0074  
                   ?_TIMER1_ISR 0074                     ?_TIMER2_ISR 0074                     ?_TIMER3_ISR 0074  
              __end_of_INT0_ISR 1600                __end_of_INT1_ISR 15FC                __end_of_INT2_ISR 15F8  
                 fp__timer3_ISR 0000                           ?_main 0074                           _EEADR 0FA9  
                  led_off@F3064 0046                           i2l428 1602                           i2l614 1330  
                         i2l753 15FA                           i2l841 15EA                           i2l932 15F2  
                         i2l749 15FE                           i2l757 15F6                           i2l766 15B4  
                         i2l775 159A                           i2l943 15D2                           i2l784 1580  
                         i2l793 1566                           i2l894 15DE                           _TMR0H 0FD7  
                         _TMR1H 0FCF                           _TMR0L 0FD6                           _TMR1L 0FCE  
                         _PORTA 0F80                           _PORTB 0F81                           _PORTC 0F82  
                         _PORTD 0F83                           _PORTE 0F84                           _TRISA 0F92  
                         _TRISB 0F93                           _TRISC 0F94                           _TRISD 0F95  
                         _TRISE 0F96                    led_int@F3054 0048                           pclath 0FFA  
                         pclatu 0FFB                           tablat 0FF5                           ttemp5 007C  
                         ttemp6 007F                           ttemp7 0083                           status 0FD8  
                         wtemp8 007C        ??_InterruptManagmentHigh 0075                    RB4_ISR@flage 0074  
               __initialization 143A                    __end_of_main 154E                       ??_ADC_ISR 0074  
                  RB5_ISR@flage 0074                          ??_main 007B                   __activetblptr 0003  
                     ??_RB4_ISR 0074                       ??_RB5_ISR 0074                       ??_RB6_ISR 0074  
                     ??_RB7_ISR 0074                    RB6_ISR@flage 0074                          _ADRESH 0FC4  
                        _EEADRH 0FAA                          _ADRESL 0FC3                          _EEDATA 0FA8  
                        _EECON2 0FA7                          i2l1002 14FA                          i2l2001 14E2  
                        i2l3001 1050                          i2l3011 108C                          i2l3003 105E  
                        i2l3101 128A                          i2l3021 10C2                          i2l3013 109A  
                        i2l3005 106C                          i2l3111 12BE                          i2l3103 1290  
                        i2l3023 10D0                          i2l3031 10F8                          i2l3015 10AA  
                        i2l3007 1070                          i2l3121 12F0                          i2l3113 12CC  
                        i2l3105 129E                          i2l3041 1136                          i2l3033 1106  
                        i2l3025 10DE                          i2l3017 10AE                          i2l3009 107E  
                        i2l3131 132C                          i2l3123 12FE                          i2l3115 12D0  
                        i2l3107 12AC                          i2l3051 1176                          i2l3035 1114  
                        i2l3043 113C                          i2l3027 10EE                          i2l3019 10B4  
                        i2l3125 130C                          i2l3117 12DE                          i2l3109 12B0  
                        i2l3061 11AA                          i2l3053 117A                          i2l3045 114A  
                        i2l3037 1122                          i2l3029 10F2                          i2l3127 1310  
                        i2l3119 12EC                          i2l3071 11E0                          i2l3063 11BA  
                        i2l3047 1158                          i2l3055 1180                          i2l3039 1132  
                        i2l3129 131E                          i2l3081 1216                          i2l3073 11EE  
                        i2l3065 11BE                          i2l3057 118E                          i2l3049 1166  
                        i2l3083 1224                          i2l3091 124C                          i2l3075 11FE  
                        i2l3059 119C                          i2l3067 11C4                          i2l1725 15C6  
                        i2l3093 125A                          i2l3085 1232                          i2l3077 1202  
                        i2l3069 11D2                          i2l3095 1268                          i2l3087 1242  
                        i2l3079 1208                          i2l1921 1600                          i2l3097 1276  
                        i2l3089 1246                          i2l3099 1286                          i2l1925 15FC  
                        i2l1933 15F4                          i2l1943 15B4                          i2l1929 15F8  
                        i2l1937 159E                          i2l1953 159A                          i2l1939 15A0  
                        i2l1947 1584                          i2l1963 1580                          i2l1949 1586  
                        i2l1957 156A                          i2l1973 1566                          i2l1981 15E6  
                        i2l1959 156C                          i2l1967 1550                          i2l1969 1552  
                        i2l1977 15E0                          i2l1985 15D4                          i2l1993 15EC  
                        i2l1979 15E2                          i2l1987 15D6                          i2l1989 15DA  
                        i2l1997 14C6                          i2l1999 14D0                          i2l2991 101E  
                        i2l2993 102C                          i2l2995 1030                          i2l2997 103E  
                        i2l2989 1010                          i2l2999 104C                    RB7_ISR@flage 0074  
           _timer2_callback_ptr 001E                    ?_timer3_read 0077                          clear_0 1480  
                        _timer2 006E                          isa$std 0001                    __pdataCOMRAM 004B  
                  __mediumconst 0000                          tblptrh 0FF7                          tblptrl 0FF6  
                        tblptru 0FF8     _RB5_HIGH_interrupt_Handeler 0030                      __accesstop 0080  
       __end_of__initialization 1486                       ?_INT0_ISR 0074                       ?_INT1_ISR 0074  
                     ?_INT2_ISR 0074                   ___rparam_used 0001                  __pcstackCOMRAM 0074  
                  __pidataBANK0 15B6                 timer3_read@data 0079      _RB5_LOW_interrupt_Handeler 0032  
                    ??_INT0_ISR 0074                      ??_INT1_ISR 0074                      ??_INT2_ISR 0074  
               led_toggel@F3069 0045             _timer3_callback_ptr 001C                    ??_TIMER0_ISR 0074  
                  ??_TIMER1_ISR 0074                    ??_TIMER2_ISR 0074                    ??_TIMER3_ISR 0074  
                       _ADC_ISR 1600                         _RB4_ISR 159C         _Int1_interrupt_Handeler 003A  
                       _RB5_ISR 1582                         _RB6_ISR 1568                         _RB7_ISR 154E  
        _InterruptManagmentHigh 0008                         i2u33_40 15B0                         i2u33_41 15AC  
                       i2u34_40 1596                         i2u34_41 1592                         i2u35_40 157C  
                       i2u35_41 1578                         i2u36_40 1562                         i2u36_41 155E  
                       i2u37_40 14E2                         i2u37_41 14DE                         i2u38_48 14E8  
                       i2u38_49 14FA              __end_of_TIMER0_ISR 15EC              __end_of_TIMER1_ISR 15E0  
            __end_of_TIMER2_ISR 15F4              __end_of_TIMER3_ISR 14FC                         __Hparam 0000  
                       __Lparam 0000                    __psmallconst 1000                         __pcinit 143A  
                       __ramtop 1000                         _flage_4 006D                         _flage_5 006C  
                       _flage_6 006B                         _flage_7 006A                         __ptext0 1526  
                       __ptext1 1490                   relay_on@F3058 0043                         __ptext2 133C  
                       __ptext4 14C6                         __ptext5 15C6                         __ptext6 15EC  
                       __ptext7 15D4                         __ptext8 15E0                         __ptext9 154E  
                     _T0CONbits 0FD5                       _T1CONbits 0FCD                       _T2CONbits 0FCA  
                     _T3CONbits 0FB1         convert_int_to_str@F3236 0001                  __pintcode_body 1006  
          end_of_initialization 1486                         int_func 1006                      _timer3_ISR 15C6  
                       postdec1 0FE5                         postdec2 0FDD                      _timer3_int 133C  
                       postinc0 0FEE                         postinc2 0FDE                       _PORTBbits 0F81  
     convert_short_to_str@F3230 000C               relay_toggel@F3068 0041                    _KEYPAD_SHAPE 0080  
                 __pidataCOMRAM 14FC                  _timer0_preload 0024                  _timer3_counter 0049  
                _timer1_preload 0020                  _timer2_preload 0040             start_initialization 143A  
                _timer3_preload 001A     _RB6_HIGH_interrupt_Handeler 002C                     ?_timer3_ISR 0074  
                   ?_timer3_int 0077                       _Port_Regs 005F                     __pdataBANK0 0080  
                      ?_ADC_ISR 0074         ?_InterruptManagmentHigh 0074                       _Tris_Regs 004B  
                      ?_RB4_ISR 0074                        ?_RB5_ISR 0074                        ?_RB6_ISR 0074  
                      ?_RB7_ISR 0074                     __pbssCOMRAM 0001      _RB4_LOW_interrupt_Handeler 0036  
                timer3_read@ptr 0077      _RB7_LOW_interrupt_Handeler 002A                       __pintcode 0008  
__end_of_InterruptManagmentHigh 133C                     __smallconst 1000         _Int0_interrupt_Handeler 003C  
                      _INT0_ISR 15FC                        _INT1_ISR 15F8                        _INT2_ISR 15F4  
                      _PIE1bits 0F9D                        _PIE2bits 0FA0                        i2u150_40 105E  
                      i2u150_41 105A                        i2u151_40 106C                        i2u151_41 1068  
                      i2u160_40 1106                        i2u152_40 107E                        i2u160_41 1102  
                      i2u152_41 107A                        i2u161_40 1114                        i2u153_40 108C  
                      i2u161_41 1110                        i2u153_41 1088                        i2u170_40 11AA  
                      i2u162_40 1122                        i2u154_40 109A                        i2u146_40 101E  
                      i2u170_41 11A6                        i2u162_41 111E                        i2u154_41 1096  
                      i2u146_41 101A                        i2u171_40 11BA                        i2u163_40 1132  
                      i2u155_40 10AA                        i2u147_40 102C                        i2u171_41 11B6  
                      i2u163_41 112E                        i2u155_41 10A6                        i2u147_41 1028  
                      i2u180_40 125A                        i2u172_40 11D2                        i2u164_40 114A  
                      i2u156_40 10C2                        i2u148_40 103E                        i2u180_41 1256  
                      i2u172_41 11CE                        i2u164_41 1146                        i2u156_41 10BE  
                      i2u148_41 103A                        i2u181_40 1268                        i2u173_40 11E0  
                      i2u165_40 1158                        i2u157_40 10D0                        i2u149_40 104C  
                      i2u181_41 1264                        i2u173_41 11DC                        i2u165_41 1154  
                      i2u157_41 10CC                        i2u149_41 1048                        i2u190_40 12FE  
                      i2u182_40 1276                        i2u174_40 11EE                        i2u166_40 1166  
                      i2u158_40 10DE                        i2u190_41 12FA                        i2u182_41 1272  
                      i2u174_41 11EA                        i2u166_41 1162                        i2u158_41 10DA  
                      i2u191_40 130C                        i2u183_40 1286                        i2u175_40 11FE  
                      i2u167_40 1176                        i2u159_40 10EE                        i2u191_41 1308  
                      i2u183_41 1282                        i2u175_41 11FA                        i2u167_41 1172  
                      i2u159_41 10EA                        i2u192_40 131E                        i2u184_40 129E  
                      i2u176_40 1216                        i2u168_40 118E                        i2u192_41 131A  
                      i2u184_41 129A                        i2u176_41 1212                        i2u168_41 118A  
                      i2u193_40 132C                        i2u185_40 12AC                        i2u177_40 1224  
                      i2u169_40 119C                        i2u193_41 1328                        i2u185_41 12A8  
                      i2u177_41 1220                        i2u169_41 1198                        _PIR1bits 0F9E  
                      i2u186_40 12BE                        i2u178_40 1232                        i2u186_41 12BA  
                      i2u178_41 122E                        i2u187_40 12CC                        i2u179_40 1242  
                      i2u187_41 12C8                        i2u179_41 123E                        _PIR2bits 0FA1  
                      i2u188_40 12DE                        i2u188_41 12DA                        i2u189_40 12EC  
                      i2u189_41 12E8                   ??_timer3_read 007B                      _ADCON0bits 0FC2  
                    _ADCON1bits 0FC1                      _ADCON2bits 0FC0                     _INTCON2bits 0FF1  
                   _INTCON3bits 0FF0                       copy_data0 144E                       copy_data1 146E  
                      _Lat_Regs 0055                      _EECON1bits 0FA6                        __Hrparam 0000  
                      __Lrparam 0000                   timer3_int@ptr 0077             __end_of_timer3_read 14C6  
                      __ptext10 1568                        __ptext11 1582                        __ptext12 159C  
                      __ptext13 15F4                        __ptext14 15F8                        __ptext15 15FC  
                      __ptext16 1600                        __ptext17 0000           _ADC_Interrupt_handler 003E  
                relay_off@F3063 0042                    ??_timer3_ISR 0074                  relay_int@F3053 0044  
                      isa$xinst 0000                    ??_timer3_int 0079                        int$flags 007B  
                    _INTCONbits 0FF2     _RB4_HIGH_interrupt_Handeler 0034              __end_of_timer3_ISR 15D4  
                      intlevel2 0000              __end_of_timer3_int 143A     _RB7_HIGH_interrupt_Handeler 0028  
           _timer0_callback_ptr 0026                      _TIMER0_ISR 15E0                      _TIMER1_ISR 15D4  
                    _TIMER2_ISR 15EC                      _TIMER3_ISR 14C6                     _timer3_read 1490  
      convert_byte_to_str@F3224 0016      _RB6_LOW_interrupt_Handeler 002E  
