

Microchip MPLAB XC8 Assembler V2.41 build 20230208172133 
                                                                                               Sat Aug 19 23:31:35 2023

Microchip MPLAB XC8 C Compiler v2.41 (Free license) build 20230208172133 Og1 
     1                           	processor	18F4620
     2                           	fnconf	rparam,??,?,0
     3                           	pagewidth 120
     4                           	opt	flic
     5                           	psect	idataCOMRAM,global,class=CODE,delta=1,noexec
     6                           	psect	idataBANK0,global,class=CODE,delta=1,noexec
     7                           	psect	smallconst,global,reloc=2,class=SMALLCONST,delta=1,noexec
     8                           	psect	cinit,global,reloc=2,class=CODE,delta=1
     9                           	psect	bssCOMRAM,global,class=COMRAM,space=1,delta=1,lowdata,noexec
    10                           	psect	dataCOMRAM,global,class=COMRAM,space=1,delta=1,lowdata,noexec
    11                           	psect	bssBANK0,global,class=BANK0,space=1,delta=1,lowdata,noexec
    12                           	psect	dataBANK0,global,class=BANK0,space=1,delta=1,lowdata,noexec
    13                           	psect	cstackBANK1,global,class=BANK1,space=1,delta=1,lowdata,noexec
    14                           	psect	cstackBANK0,global,class=BANK0,space=1,delta=1,lowdata,noexec
    15                           	psect	cstackCOMRAM,global,class=COMRAM,space=1,delta=1,lowdata,noexec
    16                           	psect	text0,global,reloc=2,class=CODE,delta=1
    17                           	psect	text1,global,reloc=2,class=CODE,delta=1
    18                           	psect	text2,global,reloc=2,class=CODE,delta=1
    19                           	psect	text3,global,reloc=2,class=CODE,delta=1
    20                           	psect	text4,global,reloc=2,class=CODE,delta=1
    21                           	psect	text5,global,reloc=2,class=CODE,delta=1,group=1
    22                           	psect	text6,global,reloc=2,class=CODE,delta=1,group=1
    23                           	psect	text7,global,reloc=2,class=CODE,delta=1,group=1
    24                           	psect	text8,global,reloc=2,class=CODE,delta=1,group=1
    25                           	psect	intcode,global,reloc=2,class=CODE,delta=1
    26                           	psect	intcode_body,global,reloc=2,class=CODE,delta=1
    27                           	psect	text10,global,reloc=2,class=CODE,delta=1
    28                           	psect	text11,global,reloc=2,class=CODE,delta=1
    29                           	psect	text12,global,reloc=2,class=CODE,delta=1
    30                           	psect	text13,global,reloc=2,class=CODE,delta=1
    31                           	psect	text14,global,reloc=2,class=CODE,delta=1
    32                           	psect	text15,global,reloc=2,class=CODE,delta=1
    33                           	psect	text16,global,reloc=2,class=CODE,delta=1
    34                           	psect	text17,global,reloc=2,class=CODE,delta=1
    35                           	psect	text18,global,reloc=2,class=CODE,delta=1
    36                           	psect	text19,global,reloc=2,class=CODE,delta=1
    37                           	psect	text20,global,reloc=2,class=CODE,delta=1
    38                           	psect	text21,global,reloc=2,class=CODE,delta=1
    39                           	psect	text22,global,reloc=2,class=CODE,delta=1
    40                           	psect	text23,global,reloc=2,class=CODE,delta=1
    41                           	psect	text24,global,reloc=2,class=CODE,delta=1
    42                           	psect	text25,global,reloc=2,class=CODE,delta=1
    43                           	psect	text26,global,reloc=2,class=CODE,delta=1
    44                           	psect	text27,global,reloc=2,class=CODE,delta=1
    45                           	psect	text28,global,reloc=2,class=CODE,delta=1
    46                           	psect	text29,global,reloc=2,class=CODE,delta=1
    47                           	psect	text30,global,reloc=2,class=CODE,delta=1
    48                           	psect	text31,global,reloc=2,class=CODE,delta=1
    49                           	psect	text32,global,reloc=2,class=CODE,delta=1
    50                           	psect	text33,global,reloc=2,class=CODE,delta=1
    51                           	psect	text34,global,reloc=2,class=CODE,delta=1
    52                           	psect	intsave_regs,global,class=BIGRAM,space=1,delta=1,noexec
    53                           	psect	text35,global,reloc=2,class=CODE,delta=1
    54                           	psect	rparam,global,class=COMRAM,space=1,delta=1,noexec
    55                           	psect	temp,global,ovrld,common,class=COMRAM,space=1,delta=1
    56                           	psect	idloc,global,abs,ovrld,class=IDLOC,space=5,delta=1,noexec
    57                           	psect	config,global,abs,ovrld,class=CONFIG,space=4,delta=1,noexec
    58   000000                     
    59                           ; Version 2.40
    60                           ; Generated 17/11/2021 GMT
    61                           ; 
    62                           ; Copyright © 2021, Microchip Technology Inc. and its subsidiaries ("Microchip")
    63                           ; All rights reserved.
    64                           ; 
    65                           ; This software is developed by Microchip Technology Inc. and its subsidiaries ("Microch
      +                          ip").
    66                           ; 
    67                           ; Redistribution and use in source and binary forms, with or without modification, are
    68                           ; permitted provided that the following conditions are met:
    69                           ; 
    70                           ;     1. Redistributions of source code must retain the above copyright notice, this lis
      +                          t of
    71                           ;        conditions and the following disclaimer.
    72                           ; 
    73                           ;     2. Redistributions in binary form must reproduce the above copyright notice, this 
      +                          list
    74                           ;        of conditions and the following disclaimer in the documentation and/or other
    75                           ;        materials provided with the distribution. Publication is not required when
    76                           ;        this file is used in an embedded application.
    77                           ; 
    78                           ;     3. Microchip's name may not be used to endorse or promote products derived from th
      +                          is
    79                           ;        software without specific prior written permission.
    80                           ; 
    81                           ; THIS SOFTWARE IS PROVIDED BY MICROCHIP "AS IS" AND ANY EXPRESS OR IMPLIED WARRANTIES,
    82                           ; INCLUDING, BUT NOT LIMITED TO, THE IMPLIED WARRANTIES OF MERCHANTABILITY AND FITNESS F
      +                          OR
    83                           ; PURPOSE ARE DISCLAIMED.  IN NO EVENT SHALL MICROCHIP BE LIABLE FOR ANY DIRECT, INDIREC
      +                          T,
    84                           ; INCIDENTAL, SPECIAL, EXEMPLARY, OR CONSEQUENTIAL DAMAGES (INCLUDING BUT NOT LIMITED TO
    85                           ; PROCUREMENT OF SUBSTITUTE GOODS OR SERVICES; LOSS OF USE, DATA OR PROFITS; OR BUSINESS
    86                           ; INTERRUPTION) HOWSOEVER CAUSED AND ON ANY THEORY OF LIABILITY, WHETHER IN CONTRACT, ST
      +                          RICT
    87                           ; LIABILITY, OR TORT (INCLUDING NEGLIGENCE OR OTHERWISE) ARISING IN ANY WAY OUT OF THE U
      +                          SE OF
    88                           ; THIS SOFTWARE, EVEN IF ADVISED OF THE POSSIBILITY OF SUCH DAMAGE.
    89                           ; 
    90                           ; 
    91                           ; Code-generator required, PIC18F4620 Definitions
    92                           ; 
    93                           ; SFR Addresses
    94   000000                     
    95                           	psect	idataCOMRAM
    96   0028C2                     __pidataCOMRAM:
    97                           	callstack 0
    98                           
    99                           ;initializer for _flage_7
   100   0028C2  01                 	db	1
   101                           
   102                           ;initializer for _flage_6
   103   0028C3  01                 	db	1
   104                           
   105                           ;initializer for _flage_5
   106   0028C4  01                 	db	1
   107                           
   108                           ;initializer for _flage_4
   109   0028C5  01                 	db	1
   110                           
   111                           	psect	idataBANK0
   112   00276E                     __pidataBANK0:
   113                           	callstack 0
   114                           
   115                           ;initializer for _KEYPAD_SHAPE
   116   00276E  37                 	db	55
   117   00276F  38                 	db	56
   118   002770  39                 	db	57
   119   002771  2F                 	db	47
   120   002772  34                 	db	52
   121   002773  35                 	db	53
   122   002774  36                 	db	54
   123   002775  2A                 	db	42
   124   002776  31                 	db	49
   125   002777  32                 	db	50
   126   002778  33                 	db	51
   127   002779  2D                 	db	45
   128   00277A  23                 	db	35
   129   00277B  30                 	db	48
   130   00277C  3D                 	db	61
   131   00277D  2B                 	db	43
   132                           
   133                           ;initializer for _Tris_Regs
   134   00277E  92                 	db	146
   135   00277F  0F                 	db	15
   136   002780  93                 	db	147
   137   002781  0F                 	db	15
   138   002782  94                 	db	148
   139   002783  0F                 	db	15
   140   002784  95                 	db	149
   141   002785  0F                 	db	15
   142   002786  96                 	db	150
   143   002787  0F                 	db	15
   144                           
   145                           ;initializer for _Lat_Regs
   146   002788  89                 	db	137
   147   002789  0F                 	db	15
   148   00278A  8A                 	db	138
   149   00278B  0F                 	db	15
   150   00278C  8B                 	db	139
   151   00278D  0F                 	db	15
   152   00278E  8C                 	db	140
   153   00278F  0F                 	db	15
   154   002790  8D                 	db	141
   155   002791  0F                 	db	15
   156                           
   157                           ;initializer for _Port_Regs
   158   002792  80                 	db	128
   159   002793  0F                 	db	15
   160   002794  81                 	db	129
   161   002795  0F                 	db	15
   162   002796  82                 	db	130
   163   002797  0F                 	db	15
   164   002798  83                 	db	131
   165   002799  0F                 	db	15
   166   00279A  84                 	db	132
   167   00279B  0F                 	db	15
   168                           
   169                           ;initializer for _eusart
   170   00279C  70                 	db	low _eusart_tx_calling
   171   00279D  28                 	db	high _eusart_tx_calling
   172   00279E  FC                 	db	low _eusart_rx_calling
   173   00279F  25                 	db	high _eusart_rx_calling
   174   0027A0  B4                 	db	low _eusart_frameerror_calling
   175   0027A1  28                 	db	high _eusart_frameerror_calling
   176   0027A2  AC                 	db	low _eusart_overrunerror_calling
   177   0027A3  28                 	db	high _eusart_overrunerror_calling
   178   0027A4  2580               	dw	9600
   179   0027A6  0000               	dw	0
   180   0027A8  00                 	db	0
   181   0027A9  60                 	db	96
   182   0027AA  60                 	db	96
   183   0027AB  00                 	db	0
   184   000000                     _SPBRGH	set	4016
   185   000000                     _SPBRG	set	4015
   186   000000                     _TXREG	set	4013
   187   000000                     _TXSTAbits	set	4012
   188   000000                     _RCREG	set	4014
   189   000000                     _RCSTAbits	set	4011
   190   000000                     _TMR2	set	4044
   191   000000                     _TMR1L	set	4046
   192   000000                     _TMR1H	set	4047
   193   000000                     _T1CONbits	set	4045
   194   000000                     _T0CONbits	set	4053
   195   000000                     _INTCON2bits	set	4081
   196   000000                     _INTCON3bits	set	4080
   197   000000                     _EECON2	set	4007
   198   000000                     _CCPR1L	set	4030
   199   000000                     _CCPR1H	set	4031
   200   000000                     _ADCON1bits	set	4033
   201   000000                     _ADRESL	set	4035
   202   000000                     _ADRESH	set	4036
   203   000000                     _INTCONbits	set	4082
   204   000000                     _TRISD	set	3989
   205   000000                     _TRISC	set	3988
   206   000000                     _TRISB	set	3987
   207   000000                     _TRISE	set	3990
   208   000000                     _TRISCbits	set	3988
   209   000000                     _TMR3L	set	4018
   210   000000                     _TMR3H	set	4019
   211   000000                     _PORTBbits	set	3969
   212   000000                     _PIE1bits	set	3997
   213   000000                     _ADCON2bits	set	4032
   214   000000                     _ADCON0bits	set	4034
   215   000000                     _LATA	set	3977
   216   000000                     _PORTE	set	3972
   217   000000                     _PORTD	set	3971
   218   000000                     _PORTC	set	3970
   219   000000                     _PORTB	set	3969
   220   000000                     _PORTA	set	3968
   221   000000                     _TRISA	set	3986
   222   000000                     _PIE2bits	set	4000
   223   000000                     _PIR2bits	set	4001
   224   000000                     _T3CONbits	set	4017
   225   000000                     _CCP1CONbits	set	4029
   226   000000                     _PIR1bits	set	3998
   227   000000                     _T2CONbits	set	4042
   228   000000                     _PR2	set	4043
   229   000000                     _TMR3	set	4018
   230   000000                     _BAUDCONbits	set	4024
   231   000000                     _CCP2CONbits	set	4026
   232   000000                     _EECON1bits	set	4006
   233   000000                     _EEDATA	set	4008
   234   000000                     _EEADR	set	4009
   235   000000                     _EEADRH	set	4010
   236   000000                     _CCPR2L	set	4027
   237   000000                     _LATE	set	3981
   238   000000                     _LATD	set	3980
   239   000000                     _LATC	set	3979
   240   000000                     _LATB	set	3978
   241   000000                     _TMR0H	set	4055
   242   000000                     _TMR0L	set	4054
   243                           
   244                           	psect	smallconst
   245   001000                     __psmallconst:
   246                           	callstack 0
   247   001000  00                 	db	0
   248   001001                     STR_5:
   249   001001  4B                 	db	75	;'K'
   250   001002  68                 	db	104	;'h'
   251   001003  61                 	db	97	;'a'
   252   001004  6C                 	db	108	;'l'
   253   001005  65                 	db	101	;'e'
   254   001006  64                 	db	100	;'d'
   255   001007  20                 	db	32
   256   001008  41                 	db	65	;'A'
   257   001009  64                 	db	100	;'d'
   258   00100A  65                 	db	101	;'e'
   259   00100B  6C                 	db	108	;'l'
   260   00100C  00                 	db	0
   261   00100D                     STR_4:
   262   00100D  54                 	db	84	;'T'
   263   00100E  61                 	db	97	;'a'
   264   00100F  72                 	db	114	;'r'
   265   001010  65                 	db	101	;'e'
   266   001011  6B                 	db	107	;'k'
   267   001012  20                 	db	32
   268   001013  41                 	db	65	;'A'
   269   001014  64                 	db	100	;'d'
   270   001015  65                 	db	101	;'e'
   271   001016  6C                 	db	108	;'l'
   272   001017  00                 	db	0
   273   001018                     STR_1:
   274   001018  25                 	db	37
   275   001019  75                 	db	117	;'u'
   276   00101A  00                 	db	0
   277   00101B  00                 	db	0	; dummy byte at the end
   278   000000                     
   279                           ; #config settings
   280                           
   281                           	psect	cinit
   282   002672                     __pcinit:
   283                           	callstack 0
   284   002672                     start_initialization:
   285                           	callstack 0
   286   002672                     __initialization:
   287                           	callstack 0
   288                           
   289                           ; Initialize objects allocated to BANK0 (62 bytes)
   290                           ; load TBLPTR registers with __pidataBANK0
   291   002672  0E6E               	movlw	low __pidataBANK0
   292   002674  6EF6               	movwf	tblptrl,c
   293   002676  0E27               	movlw	high __pidataBANK0
   294   002678  6EF7               	movwf	tblptrh,c
   295   00267A  0E00               	movlw	low (__pidataBANK0 shr (0+16))
   296   00267C  6EF8               	movwf	tblptru,c
   297   00267E  EE00  F080         	lfsr	0,__pdataBANK0
   298   002682  EE10 F03E          	lfsr	1,62
   299   002686                     copy_data0:
   300   002686  0009               	tblrd		*+
   301   002688  CFF5 FFEE          	movff	tablat,postinc0
   302   00268C  50E5               	movf	postdec1,w,c
   303   00268E  50E1               	movf	fsr1l,w,c
   304   002690  E1FA               	bnz	copy_data0
   305                           
   306                           ; Initialize objects allocated to COMRAM (4 bytes)
   307                           ; load TBLPTR registers with __pidataCOMRAM
   308   002692  0EC2               	movlw	low __pidataCOMRAM
   309   002694  6EF6               	movwf	tblptrl,c
   310   002696  0E28               	movlw	high __pidataCOMRAM
   311   002698  6EF7               	movwf	tblptrh,c
   312   00269A  0E00               	movlw	low (__pidataCOMRAM shr (0+16))
   313   00269C  6EF8               	movwf	tblptru,c
   314   00269E  EE00  F06D         	lfsr	0,__pdataCOMRAM
   315   0026A2  EE10 F004          	lfsr	1,4
   316   0026A6                     copy_data1:
   317   0026A6  0009               	tblrd		*+
   318   0026A8  CFF5 FFEE          	movff	tablat,postinc0
   319   0026AC  50E5               	movf	postdec1,w,c
   320   0026AE  50E1               	movf	fsr1l,w,c
   321   0026B0  E1FA               	bnz	copy_data1
   322                           
   323                           ; Clear objects allocated to BANK0 (59 bytes)
   324   0026B2  EE00  F0BE         	lfsr	0,__pbssBANK0
   325   0026B6  0E3B               	movlw	59
   326   0026B8                     clear_0:
   327   0026B8  6AEE               	clrf	postinc0,c
   328   0026BA  06E8               	decf	wreg,f,c
   329   0026BC  E1FD               	bnz	clear_0
   330                           
   331                           ; Clear objects allocated to COMRAM (39 bytes)
   332   0026BE  EE00  F046         	lfsr	0,__pbssCOMRAM
   333   0026C2  0E27               	movlw	39
   334   0026C4                     clear_1:
   335   0026C4  6AEE               	clrf	postinc0,c
   336   0026C6  06E8               	decf	wreg,f,c
   337   0026C8  E1FD               	bnz	clear_1
   338   0026CA                     end_of_initialization:
   339                           	callstack 0
   340   0026CA                     __end_of__initialization:
   341                           	callstack 0
   342   0026CA  9071               	bcf	int$flags,0,c	;clear compiler interrupt flag (level 1)
   343   0026CC  9271               	bcf	int$flags,1,c	;clear compiler interrupt flag (level 2)
   344   0026CE  0100               	movlb	0
   345   0026D0  EF2D  F014         	goto	_main	;jump to C main() function
   346                           
   347                           	psect	bssCOMRAM
   348   000046                     __pbssCOMRAM:
   349                           	callstack 0
   350   000046                     _eusart_rx_callback_ptr:
   351                           	callstack 0
   352   000046                     	ds	2
   353   000048                     _eusart_tx_callback_ptr:
   354                           	callstack 0
   355   000048                     	ds	2
   356   00004A                     _eusart_overerr_callback_ptr:
   357                           	callstack 0
   358   00004A                     	ds	2
   359   00004C                     _eusart_framerr_callback_ptr:
   360                           	callstack 0
   361   00004C                     	ds	2
   362   00004E                     _timer3_preload:
   363                           	callstack 0
   364   00004E                     	ds	2
   365   000050                     _timer1_preload:
   366                           	callstack 0
   367   000050                     	ds	2
   368   000052                     _timer0_preload:
   369                           	callstack 0
   370   000052                     	ds	2
   371   000054                     _Int1_interrupt_Handeler:
   372                           	callstack 0
   373   000054                     	ds	2
   374   000056                     _Int0_interrupt_Handeler:
   375                           	callstack 0
   376   000056                     	ds	2
   377   000058                     _ccp2_callback_ptr:
   378                           	callstack 0
   379   000058                     	ds	2
   380   00005A                     ccp1_compare_set_value@F3132:
   381                           	callstack 0
   382   00005A                     	ds	2
   383   00005C                     _ccp1_callback_ptr:
   384                           	callstack 0
   385   00005C                     	ds	2
   386   00005E                     _ADC_Interrupt_handler:
   387                           	callstack 0
   388   00005E                     	ds	2
   389   000060                     _value:
   390                           	callstack 0
   391   000060                     	ds	1
   392   000061                     _data:
   393                           	callstack 0
   394   000061                     	ds	1
   395   000062                     _frameerror:
   396                           	callstack 0
   397   000062                     	ds	1
   398   000063                     _overrunerror:
   399                           	callstack 0
   400   000063                     	ds	1
   401   000064                     _timer2_preload:
   402                           	callstack 0
   403   000064                     	ds	1
   404   000065                     relay_toggel@F3068:
   405                           	callstack 0
   406   000065                     	ds	1
   407   000066                     relay_off@F3063:
   408                           	callstack 0
   409   000066                     	ds	1
   410   000067                     relay_on@F3058:
   411                           	callstack 0
   412   000067                     	ds	1
   413   000068                     relay_int@F3053:
   414                           	callstack 0
   415   000068                     	ds	1
   416   000069                     led_toggel@F3069:
   417                           	callstack 0
   418   000069                     	ds	1
   419   00006A                     led_off@F3064:
   420                           	callstack 0
   421   00006A                     	ds	1
   422   00006B                     led_on@F3059:
   423                           	callstack 0
   424   00006B                     	ds	1
   425   00006C                     led_int@F3054:
   426                           	callstack 0
   427   00006C                     	ds	1
   428                           
   429                           	psect	dataCOMRAM
   430   00006D                     __pdataCOMRAM:
   431                           	callstack 0
   432   00006D                     _flage_7:
   433                           	callstack 0
   434   00006D                     	ds	1
   435   00006E                     _flage_6:
   436                           	callstack 0
   437   00006E                     	ds	1
   438   00006F                     _flage_5:
   439                           	callstack 0
   440   00006F                     	ds	1
   441   000070                     _flage_4:
   442                           	callstack 0
   443   000070                     	ds	1
   444                           
   445                           	psect	bssBANK0
   446   0000BE                     __pbssBANK0:
   447                           	callstack 0
   448   0000BE                     	ds	11
   449   0000C9                     	ds	6
   450   0000CF                     _rx_counter:
   451                           	callstack 0
   452   0000CF                     	ds	4
   453   0000D3                     _tx_counter:
   454                           	callstack 0
   455   0000D3                     	ds	4
   456   0000D7                     	ds	4
   457   0000DB                     	ds	2
   458   0000DD                     	ds	2
   459   0000DF                     _timer3_callback_ptr:
   460                           	callstack 0
   461   0000DF                     	ds	2
   462   0000E1                     _timer2_callback_ptr:
   463                           	callstack 0
   464   0000E1                     	ds	2
   465   0000E3                     _timer1_callback_ptr:
   466                           	callstack 0
   467   0000E3                     	ds	2
   468   0000E5                     _timer0_callback_ptr:
   469                           	callstack 0
   470   0000E5                     	ds	2
   471   0000E7                     _RB7_HIGH_interrupt_Handeler:
   472                           	callstack 0
   473   0000E7                     	ds	2
   474   0000E9                     _RB7_LOW_interrupt_Handeler:
   475                           	callstack 0
   476   0000E9                     	ds	2
   477   0000EB                     _RB6_HIGH_interrupt_Handeler:
   478                           	callstack 0
   479   0000EB                     	ds	2
   480   0000ED                     _RB6_LOW_interrupt_Handeler:
   481                           	callstack 0
   482   0000ED                     	ds	2
   483   0000EF                     _RB5_HIGH_interrupt_Handeler:
   484                           	callstack 0
   485   0000EF                     	ds	2
   486   0000F1                     _RB5_LOW_interrupt_Handeler:
   487                           	callstack 0
   488   0000F1                     	ds	2
   489   0000F3                     _RB4_HIGH_interrupt_Handeler:
   490                           	callstack 0
   491   0000F3                     	ds	2
   492   0000F5                     _RB4_LOW_interrupt_Handeler:
   493                           	callstack 0
   494   0000F5                     	ds	2
   495   0000F7                     _Int2_interrupt_Handeler:
   496                           	callstack 0
   497   0000F7                     	ds	2
   498                           
   499                           	psect	dataBANK0
   500   000080                     __pdataBANK0:
   501                           	callstack 0
   502   000080                     _KEYPAD_SHAPE:
   503                           	callstack 0
   504   000080                     	ds	16
   505   000090                     _Tris_Regs:
   506                           	callstack 0
   507   000090                     	ds	10
   508   00009A                     _Lat_Regs:
   509                           	callstack 0
   510   00009A                     	ds	10
   511   0000A4                     _Port_Regs:
   512                           	callstack 0
   513   0000A4                     	ds	10
   514   0000AE                     _eusart:
   515                           	callstack 0
   516   0000AE                     	ds	16
   517                           
   518                           	psect	cstackBANK1
   519   000100                     __pcstackBANK1:
   520                           	callstack 0
   521   000100                     buadrate_calculation@baudrate_local:
   522                           	callstack 0
   523                           
   524                           ; 4 bytes @ 0x0
   525   000100                     	ds	4
   526   000104                     _buadrate_calculation$4511:
   527                           	callstack 0
   528                           
   529                           ; 4 bytes @ 0x4
   530   000104                     	ds	4
   531                           
   532                           	psect	cstackBANK0
   533   0000F9                     __pcstackBANK0:
   534                           	callstack 0
   535   0000F9                     buadrate_calculation@ptr:
   536                           	callstack 0
   537                           
   538                           ; 2 bytes @ 0x0
   539   0000F9                     	ds	2
   540   0000FB                     ??_buadrate_calculation:
   541                           
   542                           ; 1 bytes @ 0x2
   543   0000FB                     	ds	2
   544   0000FD                     eusart_ASYN_int@ptr:
   545                           	callstack 0
   546                           
   547                           ; 2 bytes @ 0x4
   548   0000FD                     	ds	2
   549                           
   550                           	psect	cstackCOMRAM
   551   000001                     __pcstackCOMRAM:
   552                           	callstack 0
   553   000001                     RB4_ISR@flage:
   554                           	callstack 0
   555   000001                     RB5_ISR@flage:
   556                           	callstack 0
   557   000001                     RB6_ISR@flage:
   558                           	callstack 0
   559   000001                     RB7_ISR@flage:
   560                           	callstack 0
   561   000001                     eusart_ASYN_Write@value:
   562                           	callstack 0
   563                           
   564                           ; 1 bytes @ 0x0
   565   000001                     	ds	1
   566   000002                     eusart_ASYN_WriteString@value:
   567                           	callstack 0
   568                           
   569                           ; 2 bytes @ 0x1
   570   000002                     	ds	2
   571   000004                     ??_eusart_ASYN_WriteString:
   572                           
   573                           ; 1 bytes @ 0x3
   574   000004                     	ds	2
   575   000006                     eusart_ASYN_WriteString@counter:
   576                           	callstack 0
   577                           
   578                           ; 1 bytes @ 0x5
   579   000006                     	ds	1
   580   000007                     ??_eusart_rx_calling:
   581                           
   582                           ; 1 bytes @ 0x6
   583   000007                     	ds	2
   584   000009                     ??_InterruptManagmentHigh:
   585                           
   586                           ; 1 bytes @ 0x8
   587   000009                     	ds	6
   588   00000F                     ?___fltol:
   589                           	callstack 0
   590   00000F                     ?___xxtofl:
   591                           	callstack 0
   592   00000F                     eusart_rx_int@ptr:
   593                           	callstack 0
   594   00000F                     eusart_tx_int@ptr:
   595                           	callstack 0
   596   00000F                     ___fltol@f1:
   597                           	callstack 0
   598   00000F                     ___xxtofl@val:
   599                           	callstack 0
   600                           
   601                           ; 4 bytes @ 0xE
   602   00000F                     	ds	2
   603   000011                     
   604                           ; 1 bytes @ 0x10
   605   000011                     	ds	2
   606   000013                     ??___fltol:
   607   000013                     ??___xxtofl:
   608                           
   609                           ; 1 bytes @ 0x12
   610   000013                     	ds	4
   611   000017                     ___fltol@sign1:
   612                           	callstack 0
   613   000017                     ___xxtofl@sign:
   614                           	callstack 0
   615                           
   616                           ; 1 bytes @ 0x16
   617   000017                     	ds	1
   618   000018                     ___fltol@exp1:
   619                           	callstack 0
   620   000018                     ___xxtofl@exp:
   621                           	callstack 0
   622                           
   623                           ; 1 bytes @ 0x17
   624   000018                     	ds	1
   625   000019                     ___xxtofl@arg:
   626                           	callstack 0
   627                           
   628                           ; 4 bytes @ 0x18
   629   000019                     	ds	4
   630   00001D                     ?___fldiv:
   631                           	callstack 0
   632   00001D                     ___fldiv@b:
   633                           	callstack 0
   634                           
   635                           ; 4 bytes @ 0x1C
   636   00001D                     	ds	4
   637   000021                     ___fldiv@a:
   638                           	callstack 0
   639                           
   640                           ; 4 bytes @ 0x20
   641   000021                     	ds	4
   642   000025                     ??___fldiv:
   643                           
   644                           ; 1 bytes @ 0x24
   645   000025                     	ds	4
   646   000029                     ___fldiv@rem:
   647                           	callstack 0
   648                           
   649                           ; 4 bytes @ 0x28
   650   000029                     	ds	4
   651   00002D                     ___fldiv@sign:
   652                           	callstack 0
   653                           
   654                           ; 1 bytes @ 0x2C
   655   00002D                     	ds	1
   656   00002E                     ___fldiv@new_exp:
   657                           	callstack 0
   658                           
   659                           ; 2 bytes @ 0x2D
   660   00002E                     	ds	2
   661   000030                     ___fldiv@grs:
   662                           	callstack 0
   663                           
   664                           ; 4 bytes @ 0x2F
   665   000030                     	ds	4
   666   000034                     ___fldiv@bexp:
   667                           	callstack 0
   668                           
   669                           ; 1 bytes @ 0x33
   670   000034                     	ds	1
   671   000035                     ___fldiv@aexp:
   672                           	callstack 0
   673                           
   674                           ; 1 bytes @ 0x34
   675   000035                     	ds	1
   676   000036                     ?___fladd:
   677                           	callstack 0
   678   000036                     ___fladd@b:
   679                           	callstack 0
   680                           
   681                           ; 4 bytes @ 0x35
   682   000036                     	ds	4
   683   00003A                     ___fladd@a:
   684                           	callstack 0
   685                           
   686                           ; 4 bytes @ 0x39
   687   00003A                     	ds	4
   688   00003E                     ??___fladd:
   689                           
   690                           ; 1 bytes @ 0x3D
   691   00003E                     	ds	4
   692   000042                     ___fladd@signs:
   693                           	callstack 0
   694                           
   695                           ; 1 bytes @ 0x41
   696   000042                     	ds	1
   697   000043                     ___fladd@aexp:
   698                           	callstack 0
   699                           
   700                           ; 1 bytes @ 0x42
   701   000043                     	ds	1
   702   000044                     ___fladd@bexp:
   703                           	callstack 0
   704                           
   705                           ; 1 bytes @ 0x43
   706   000044                     	ds	1
   707   000045                     ___fladd@grs:
   708                           	callstack 0
   709                           
   710                           ; 1 bytes @ 0x44
   711   000045                     	ds	1
   712   000046                     
   713                           ; 1 bytes @ 0x45
   714 ;;
   715 ;;Main: autosize = 0, tempsize = 0, incstack = 0, save=0
   716 ;;
   717 ;; *************** function _main *****************
   718 ;; Defined at:
   719 ;;		line 63 in file "Application.c"
   720 ;; Parameters:    Size  Location     Type
   721 ;;		None
   722 ;; Auto vars:     Size  Location     Type
   723 ;;		None
   724 ;; Return value:  Size  Location     Type
   725 ;;                  2  1183[None  ] int 
   726 ;; Registers used:
   727 ;;		wreg, fsr2l, fsr2h, status,2, status,0, cstack
   728 ;; Tracked objects:
   729 ;;		On entry : 0/0
   730 ;;		On exit  : 0/0
   731 ;;		Unchanged: 0/0
   732 ;; Data sizes:     COMRAM   BANK0   BANK1   BANK2   BANK3   BANK4   BANK5   BANK6   BANK7   BANK8   BANK9  BANK10  BANK1
      +1  BANK12  BANK13  BANK14  BANK15
   733 ;;      Params:         0       0       0       0       0       0       0       0       0       0       0       0       
      +0       0       0       0       0
   734 ;;      Locals:         0       0       0       0       0       0       0       0       0       0       0       0       
      +0       0       0       0       0
   735 ;;      Temps:          0       0       0       0       0       0       0       0       0       0       0       0       
      +0       0       0       0       0
   736 ;;      Totals:         0       0       0       0       0       0       0       0       0       0       0       0       
      +0       0       0       0       0
   737 ;;Total ram usage:        0 bytes
   738 ;; Hardware stack levels required when called: 8
   739 ;; This function calls:
   740 ;;		_eusart_ASYN_int
   741 ;; This function is called by:
   742 ;;		Startup code after reset
   743 ;; This function uses a non-reentrant model
   744 ;;
   745                           
   746                           	psect	text0
   747   00285A                     __ptext0:
   748                           	callstack 0
   749   00285A                     _main:
   750                           	callstack 23
   751   00285A                     
   752                           ;Application.c: 64: eusart_ASYN_int(&eusart);
   753   00285A  0EAE               	movlw	low _eusart
   754   00285C  0100               	movlb	0	; () banked
   755   00285E  6FFD               	movwf	eusart_ASYN_int@ptr& (0+255),b
   756   002860  0E00               	movlw	high _eusart
   757   002862  6FFE               	movwf	(eusart_ASYN_int@ptr+1)& (0+255),b
   758   002864  EC94  F013         	call	_eusart_ASYN_int	;wreg free
   759   002868                     l1184:
   760   002868  EF34  F014         	goto	l1184
   761   00286C  EF07  F000         	goto	start
   762   002870                     __end_of_main:
   763                           	callstack 0
   764                           
   765 ;; *************** function _eusart_ASYN_int *****************
   766 ;; Defined at:
   767 ;;		line 23 in file "MCAL_Layer/EUSART/eusart.c"
   768 ;; Parameters:    Size  Location     Type
   769 ;;  ptr             2    4[BANK0 ] PTR const struct .
   770 ;;		 -> eusart(16), 
   771 ;; Auto vars:     Size  Location     Type
   772 ;;  returt_statu    1    0        unsigned char 
   773 ;; Return value:  Size  Location     Type
   774 ;;                  1    wreg      unsigned char 
   775 ;; Registers used:
   776 ;;		wreg, fsr2l, fsr2h, status,2, status,0, cstack
   777 ;; Tracked objects:
   778 ;;		On entry : 0/0
   779 ;;		On exit  : 0/0
   780 ;;		Unchanged: 0/0
   781 ;; Data sizes:     COMRAM   BANK0   BANK1   BANK2   BANK3   BANK4   BANK5   BANK6   BANK7   BANK8   BANK9  BANK10  BANK1
      +1  BANK12  BANK13  BANK14  BANK15
   782 ;;      Params:         0       2       0       0       0       0       0       0       0       0       0       0       
      +0       0       0       0       0
   783 ;;      Locals:         0       0       0       0       0       0       0       0       0       0       0       0       
      +0       0       0       0       0
   784 ;;      Temps:          0       0       0       0       0       0       0       0       0       0       0       0       
      +0       0       0       0       0
   785 ;;      Totals:         0       2       0       0       0       0       0       0       0       0       0       0       
      +0       0       0       0       0
   786 ;;Total ram usage:        2 bytes
   787 ;; Hardware stack levels used: 1
   788 ;; Hardware stack levels required when called: 7
   789 ;; This function calls:
   790 ;;		_buadrate_calculation
   791 ;;		_eusart_rx_int
   792 ;;		_eusart_tx_int
   793 ;; This function is called by:
   794 ;;		_main
   795 ;; This function uses a non-reentrant model
   796 ;;
   797                           
   798                           	psect	text1
   799   002728                     __ptext1:
   800                           	callstack 0
   801   002728                     _eusart_ASYN_int:
   802                           	callstack 23
   803   002728                     
   804                           ;MCAL_Layer/EUSART/eusart.c: 25:     if(((void*)0)!=ptr){
   805   002728  0100               	movlb	0	; () banked
   806   00272A  51FD               	movf	eusart_ASYN_int@ptr& (0+255),w,b
   807   00272C  11FE               	iorwf	(eusart_ASYN_int@ptr+1)& (0+255),w,b
   808   00272E  B4D8               	btfsc	status,2,c
   809   002730  EF9C  F013         	goto	u7551
   810   002734  EF9E  F013         	goto	u7550
   811   002738                     u7551:
   812   002738  EFB6  F013         	goto	l1234
   813   00273C                     u7550:
   814   00273C                     
   815                           ; BSR set to: 0
   816                           ;MCAL_Layer/EUSART/eusart.c: 28:         (RCSTAbits.SPEN=0);
   817   00273C  9EAB               	bcf	171,7,c	;volatile
   818                           
   819                           ;MCAL_Layer/EUSART/eusart.c: 29:         TRISCbits.RC6=1;
   820   00273E  8C94               	bsf	148,6,c	;volatile
   821                           
   822                           ;MCAL_Layer/EUSART/eusart.c: 30:         TRISCbits.RC7=1;
   823   002740  8E94               	bsf	148,7,c	;volatile
   824   002742                     
   825                           ; BSR set to: 0
   826                           ;MCAL_Layer/EUSART/eusart.c: 32:         buadrate_calculation(ptr);
   827   002742  C0FD  F0F9         	movff	eusart_ASYN_int@ptr,buadrate_calculation@ptr
   828   002746  C0FE  F0FA         	movff	eusart_ASYN_int@ptr+1,buadrate_calculation@ptr+1
   829   00274A  EC0E  F008         	call	_buadrate_calculation	;wreg free
   830                           
   831                           ;MCAL_Layer/EUSART/eusart.c: 33:         eusart_tx_int(ptr);
   832   00274E  C0FD  F00F         	movff	eusart_ASYN_int@ptr,eusart_tx_int@ptr
   833   002752  C0FE  F010         	movff	eusart_ASYN_int@ptr+1,eusart_tx_int@ptr+1
   834   002756  EC78  F012         	call	_eusart_tx_int	;wreg free
   835                           
   836                           ;MCAL_Layer/EUSART/eusart.c: 34:         eusart_rx_int(ptr);
   837   00275A  C0FD  F00F         	movff	eusart_ASYN_int@ptr,eusart_rx_int@ptr
   838   00275E  C0FE  F010         	movff	eusart_ASYN_int@ptr+1,eusart_rx_int@ptr+1
   839   002762  EC1C  F012         	call	_eusart_rx_int	;wreg free
   840   002766                     
   841                           ;MCAL_Layer/EUSART/eusart.c: 49:         (INTCONbits.GIE=1);
   842   002766  8EF2               	bsf	242,7,c	;volatile
   843   002768                     
   844                           ;MCAL_Layer/EUSART/eusart.c: 50:         (INTCONbits.PEIE=1);
   845   002768  8CF2               	bsf	242,6,c	;volatile
   846   00276A                     
   847                           ;MCAL_Layer/EUSART/eusart.c: 57:         (RCSTAbits.SPEN=1);
   848   00276A  8EAB               	bsf	171,7,c	;volatile
   849   00276C                     l1234:
   850   00276C  0012               	return		;funcret
   851   00276E                     __end_of_eusart_ASYN_int:
   852                           	callstack 0
   853                           
   854 ;; *************** function _eusart_tx_int *****************
   855 ;; Defined at:
   856 ;;		line 181 in file "MCAL_Layer/EUSART/eusart.c"
   857 ;; Parameters:    Size  Location     Type
   858 ;;  ptr             2   14[COMRAM] PTR const struct .
   859 ;;		 -> eusart(16), 
   860 ;; Auto vars:     Size  Location     Type
   861 ;;		None
   862 ;; Return value:  Size  Location     Type
   863 ;;                  1    wreg      void 
   864 ;; Registers used:
   865 ;;		wreg, fsr2l, fsr2h, status,2, status,0
   866 ;; Tracked objects:
   867 ;;		On entry : 0/0
   868 ;;		On exit  : 0/0
   869 ;;		Unchanged: 0/0
   870 ;; Data sizes:     COMRAM   BANK0   BANK1   BANK2   BANK3   BANK4   BANK5   BANK6   BANK7   BANK8   BANK9  BANK10  BANK1
      +1  BANK12  BANK13  BANK14  BANK15
   871 ;;      Params:         2       0       0       0       0       0       0       0       0       0       0       0       
      +0       0       0       0       0
   872 ;;      Locals:         0       0       0       0       0       0       0       0       0       0       0       0       
      +0       0       0       0       0
   873 ;;      Temps:          0       0       0       0       0       0       0       0       0       0       0       0       
      +0       0       0       0       0
   874 ;;      Totals:         2       0       0       0       0       0       0       0       0       0       0       0       
      +0       0       0       0       0
   875 ;;Total ram usage:        2 bytes
   876 ;; Hardware stack levels used: 1
   877 ;; Hardware stack levels required when called: 5
   878 ;; This function calls:
   879 ;;		Nothing
   880 ;; This function is called by:
   881 ;;		_eusart_ASYN_int
   882 ;; This function uses a non-reentrant model
   883 ;;
   884                           
   885                           	psect	text2
   886   0024F0                     __ptext2:
   887                           	callstack 0
   888   0024F0                     _eusart_tx_int:
   889                           	callstack 24
   890   0024F0                     
   891                           ;MCAL_Layer/EUSART/eusart.c: 182:     if(((void*)0)!=ptr) {
   892   0024F0  500F               	movf	eusart_tx_int@ptr^0,w,c
   893   0024F2  1010               	iorwf	(eusart_tx_int@ptr+1)^0,w,c
   894   0024F4  B4D8               	btfsc	status,2,c
   895   0024F6  EF7F  F012         	goto	u4561
   896   0024FA  EF81  F012         	goto	u4560
   897   0024FE                     u4561:
   898   0024FE  EFBD  F012         	goto	l1297
   899   002502                     u4560:
   900   002502                     
   901                           ;MCAL_Layer/EUSART/eusart.c: 183:         if((1) ==ptr->euasrt_tx.euasrt_tx_enable){
   902   002502  EE20 F00D          	lfsr	2,13
   903   002506  500F               	movf	eusart_tx_int@ptr^0,w,c
   904   002508  26D9               	addwf	fsr2l,f,c
   905   00250A  5010               	movf	(eusart_tx_int@ptr+1)^0,w,c
   906   00250C  22DA               	addwfc	fsr2h,f,c
   907   00250E  AADF               	btfss	indf2,5,c
   908   002510  EF8C  F012         	goto	u4571
   909   002514  EF8E  F012         	goto	u4570
   910   002518                     u4571:
   911   002518  EFBC  F012         	goto	l1291
   912   00251C                     u4570:
   913   00251C                     
   914                           ;MCAL_Layer/EUSART/eusart.c: 184:             (TXSTAbits.TXEN=1);
   915   00251C  8AAC               	bsf	172,5,c	;volatile
   916   00251E                     
   917                           ;MCAL_Layer/EUSART/eusart.c: 185:             if((1) ==ptr->euasrt_tx.euasrt_tx_9_bit_en
      +                          able){
   918   00251E  EE20 F00D          	lfsr	2,13
   919   002522  500F               	movf	eusart_tx_int@ptr^0,w,c
   920   002524  26D9               	addwf	fsr2l,f,c
   921   002526  5010               	movf	(eusart_tx_int@ptr+1)^0,w,c
   922   002528  22DA               	addwfc	fsr2h,f,c
   923   00252A  AEDF               	btfss	indf2,7,c
   924   00252C  EF9A  F012         	goto	u4581
   925   002530  EF9C  F012         	goto	u4580
   926   002534                     u4581:
   927   002534  EF9F  F012         	goto	l1292
   928   002538                     u4580:
   929   002538                     
   930                           ;MCAL_Layer/EUSART/eusart.c: 186:                 (TXSTAbits.TX9=1);
   931   002538  8CAC               	bsf	172,6,c	;volatile
   932                           
   933                           ;MCAL_Layer/EUSART/eusart.c: 188:             }
   934   00253A  EFA0  F012         	goto	l5415
   935   00253E                     l1292:
   936                           
   937                           ;MCAL_Layer/EUSART/eusart.c: 190:                 (TXSTAbits.TX9=0);
   938   00253E  9CAC               	bcf	172,6,c	;volatile
   939   002540                     l5415:
   940                           
   941                           ;MCAL_Layer/EUSART/eusart.c: 192:             if((1)==ptr->euasrt_tx.euasrt_interrupt_tx
      +                          _enable){
   942   002540  EE20 F00D          	lfsr	2,13
   943   002544  500F               	movf	eusart_tx_int@ptr^0,w,c
   944   002546  26D9               	addwf	fsr2l,f,c
   945   002548  5010               	movf	(eusart_tx_int@ptr+1)^0,w,c
   946   00254A  22DA               	addwfc	fsr2h,f,c
   947   00254C  ACDF               	btfss	indf2,6,c
   948   00254E  EFAB  F012         	goto	u4591
   949   002552  EFAD  F012         	goto	u4590
   950   002556                     u4591:
   951   002556  EFB9  F012         	goto	l1294
   952   00255A                     u4590:
   953   00255A                     
   954                           ;MCAL_Layer/EUSART/eusart.c: 193:                 (PIE1bits.TXIE=0);
   955   00255A  989D               	bcf	157,4,c	;volatile
   956   00255C                     
   957                           ;MCAL_Layer/EUSART/eusart.c: 194:                 eusart_tx_callback_ptr=ptr->EUASRT_TX_
      +                          INTERRUPT_PTR;
   958   00255C  C00F  FFD9         	movff	eusart_tx_int@ptr,fsr2l
   959   002560  C010  FFDA         	movff	eusart_tx_int@ptr+1,fsr2h
   960   002564  CFDE F048          	movff	postinc2,_eusart_tx_callback_ptr
   961   002568  CFDD F049          	movff	postdec2,_eusart_tx_callback_ptr+1
   962   00256C                     
   963                           ;MCAL_Layer/EUSART/eusart.c: 203:                         (PIE1bits.TXIE=1);
   964   00256C  889D               	bsf	157,4,c	;volatile
   965                           
   966                           ;MCAL_Layer/EUSART/eusart.c: 205:             }
   967   00256E  EFBD  F012         	goto	l1297
   968   002572                     l1294:
   969                           
   970                           ;MCAL_Layer/EUSART/eusart.c: 207:                 (PIE1bits.TXIE=0);
   971   002572  989D               	bcf	157,4,c	;volatile
   972   002574  EFBD  F012         	goto	l1297
   973   002578                     l1291:
   974                           
   975                           ;MCAL_Layer/EUSART/eusart.c: 211:             (TXSTAbits.TXEN=0);
   976   002578  9AAC               	bcf	172,5,c	;volatile
   977   00257A                     l1297:
   978   00257A  0012               	return		;funcret
   979   00257C                     __end_of_eusart_tx_int:
   980                           	callstack 0
   981                           
   982 ;; *************** function _eusart_rx_int *****************
   983 ;; Defined at:
   984 ;;		line 142 in file "MCAL_Layer/EUSART/eusart.c"
   985 ;; Parameters:    Size  Location     Type
   986 ;;  ptr             2   14[COMRAM] PTR const struct .
   987 ;;		 -> eusart(16), 
   988 ;; Auto vars:     Size  Location     Type
   989 ;;		None
   990 ;; Return value:  Size  Location     Type
   991 ;;                  1    wreg      void 
   992 ;; Registers used:
   993 ;;		wreg, fsr2l, fsr2h, status,2, status,0
   994 ;; Tracked objects:
   995 ;;		On entry : 0/0
   996 ;;		On exit  : 0/0
   997 ;;		Unchanged: 0/0
   998 ;; Data sizes:     COMRAM   BANK0   BANK1   BANK2   BANK3   BANK4   BANK5   BANK6   BANK7   BANK8   BANK9  BANK10  BANK1
      +1  BANK12  BANK13  BANK14  BANK15
   999 ;;      Params:         2       0       0       0       0       0       0       0       0       0       0       0       
      +0       0       0       0       0
  1000 ;;      Locals:         0       0       0       0       0       0       0       0       0       0       0       0       
      +0       0       0       0       0
  1001 ;;      Temps:          0       0       0       0       0       0       0       0       0       0       0       0       
      +0       0       0       0       0
  1002 ;;      Totals:         2       0       0       0       0       0       0       0       0       0       0       0       
      +0       0       0       0       0
  1003 ;;Total ram usage:        2 bytes
  1004 ;; Hardware stack levels used: 1
  1005 ;; Hardware stack levels required when called: 5
  1006 ;; This function calls:
  1007 ;;		Nothing
  1008 ;; This function is called by:
  1009 ;;		_eusart_ASYN_int
  1010 ;; This function uses a non-reentrant model
  1011 ;;
  1012                           
  1013                           	psect	text3
  1014   002438                     __ptext3:
  1015                           	callstack 0
  1016   002438                     _eusart_rx_int:
  1017                           	callstack 24
  1018   002438                     
  1019                           ;MCAL_Layer/EUSART/eusart.c: 143:     if(((void*)0)!=ptr) {
  1020   002438  500F               	movf	eusart_rx_int@ptr^0,w,c
  1021   00243A  1010               	iorwf	(eusart_rx_int@ptr+1)^0,w,c
  1022   00243C  B4D8               	btfsc	status,2,c
  1023   00243E  EF23  F012         	goto	u4601
  1024   002442  EF25  F012         	goto	u4600
  1025   002446                     u4601:
  1026   002446  EF77  F012         	goto	l1287
  1027   00244A                     u4600:
  1028   00244A                     
  1029                           ;MCAL_Layer/EUSART/eusart.c: 144:         if((1)==ptr->euasrt_rx.euasrt_rx_enable){
  1030   00244A  EE20 F00E          	lfsr	2,14
  1031   00244E  500F               	movf	eusart_rx_int@ptr^0,w,c
  1032   002450  26D9               	addwf	fsr2l,f,c
  1033   002452  5010               	movf	(eusart_rx_int@ptr+1)^0,w,c
  1034   002454  22DA               	addwfc	fsr2h,f,c
  1035   002456  AADF               	btfss	indf2,5,c
  1036   002458  EF30  F012         	goto	u4611
  1037   00245C  EF32  F012         	goto	u4610
  1038   002460                     u4611:
  1039   002460  EF76  F012         	goto	l1281
  1040   002464                     u4610:
  1041   002464                     
  1042                           ;MCAL_Layer/EUSART/eusart.c: 145:             (RCSTAbits.CREN=1);
  1043   002464  88AB               	bsf	171,4,c	;volatile
  1044   002466                     
  1045                           ;MCAL_Layer/EUSART/eusart.c: 146:             if((1) ==ptr->euasrt_rx.euasrt_rx_9_bit_en
      +                          able){
  1046   002466  EE20 F00E          	lfsr	2,14
  1047   00246A  500F               	movf	eusart_rx_int@ptr^0,w,c
  1048   00246C  26D9               	addwf	fsr2l,f,c
  1049   00246E  5010               	movf	(eusart_rx_int@ptr+1)^0,w,c
  1050   002470  22DA               	addwfc	fsr2h,f,c
  1051   002472  AEDF               	btfss	indf2,7,c
  1052   002474  EF3E  F012         	goto	u4621
  1053   002478  EF40  F012         	goto	u4620
  1054   00247C                     u4621:
  1055   00247C  EF43  F012         	goto	l1282
  1056   002480                     u4620:
  1057   002480                     
  1058                           ;MCAL_Layer/EUSART/eusart.c: 147:                 (RCSTAbits.RX9=1);
  1059   002480  8CAB               	bsf	171,6,c	;volatile
  1060                           
  1061                           ;MCAL_Layer/EUSART/eusart.c: 149:             }
  1062   002482  EF44  F012         	goto	l5433
  1063   002486                     l1282:
  1064                           
  1065                           ;MCAL_Layer/EUSART/eusart.c: 151:                 (RCSTAbits.RX9=0);
  1066   002486  9CAB               	bcf	171,6,c	;volatile
  1067   002488                     l5433:
  1068                           
  1069                           ;MCAL_Layer/EUSART/eusart.c: 153:             if((1)==ptr->euasrt_rx.euasrt_interrupt_rx
      +                          _enable){
  1070   002488  EE20 F00E          	lfsr	2,14
  1071   00248C  500F               	movf	eusart_rx_int@ptr^0,w,c
  1072   00248E  26D9               	addwf	fsr2l,f,c
  1073   002490  5010               	movf	(eusart_rx_int@ptr+1)^0,w,c
  1074   002492  22DA               	addwfc	fsr2h,f,c
  1075   002494  ACDF               	btfss	indf2,6,c
  1076   002496  EF4F  F012         	goto	u4631
  1077   00249A  EF51  F012         	goto	u4630
  1078   00249E                     u4631:
  1079   00249E  EF73  F012         	goto	l1284
  1080   0024A2                     u4630:
  1081   0024A2                     
  1082                           ;MCAL_Layer/EUSART/eusart.c: 154:                 (PIE1bits.RCIE=0);
  1083   0024A2  9A9D               	bcf	157,5,c	;volatile
  1084   0024A4                     
  1085                           ;MCAL_Layer/EUSART/eusart.c: 155:                 eusart_rx_callback_ptr=ptr->EUASRT_RX_
      +                          INTERRUPT_PTR;
  1086   0024A4  EE20 F002          	lfsr	2,2
  1087   0024A8  500F               	movf	eusart_rx_int@ptr^0,w,c
  1088   0024AA  26D9               	addwf	fsr2l,f,c
  1089   0024AC  5010               	movf	(eusart_rx_int@ptr+1)^0,w,c
  1090   0024AE  22DA               	addwfc	fsr2h,f,c
  1091   0024B0  CFDE F046          	movff	postinc2,_eusart_rx_callback_ptr
  1092   0024B4  CFDD F047          	movff	postdec2,_eusart_rx_callback_ptr+1
  1093                           
  1094                           ;MCAL_Layer/EUSART/eusart.c: 156:                  eusart_framerr_callback_ptr=ptr->EUAS
      +                          RT_FRAMEERR_INTERRUPT_PTR;
  1095   0024B8  EE20 F004          	lfsr	2,4
  1096   0024BC  500F               	movf	eusart_rx_int@ptr^0,w,c
  1097   0024BE  26D9               	addwf	fsr2l,f,c
  1098   0024C0  5010               	movf	(eusart_rx_int@ptr+1)^0,w,c
  1099   0024C2  22DA               	addwfc	fsr2h,f,c
  1100   0024C4  CFDE F04C          	movff	postinc2,_eusart_framerr_callback_ptr
  1101   0024C8  CFDD F04D          	movff	postdec2,_eusart_framerr_callback_ptr+1
  1102                           
  1103                           ;MCAL_Layer/EUSART/eusart.c: 157:                  eusart_overerr_callback_ptr=ptr->EUAS
      +                          RT_OVERERR_INTERRUPT_PTR;
  1104   0024CC  EE20 F006          	lfsr	2,6
  1105   0024D0  500F               	movf	eusart_rx_int@ptr^0,w,c
  1106   0024D2  26D9               	addwf	fsr2l,f,c
  1107   0024D4  5010               	movf	(eusart_rx_int@ptr+1)^0,w,c
  1108   0024D6  22DA               	addwfc	fsr2h,f,c
  1109   0024D8  CFDE F04A          	movff	postinc2,_eusart_overerr_callback_ptr
  1110   0024DC  CFDD F04B          	movff	postdec2,_eusart_overerr_callback_ptr+1
  1111   0024E0                     
  1112                           ;MCAL_Layer/EUSART/eusart.c: 166:                         (PIE1bits.RCIE=1);
  1113   0024E0  8A9D               	bsf	157,5,c	;volatile
  1114                           
  1115                           ;MCAL_Layer/EUSART/eusart.c: 168:             }
  1116   0024E2  EF77  F012         	goto	l1287
  1117   0024E6                     l1284:
  1118                           
  1119                           ;MCAL_Layer/EUSART/eusart.c: 170:                 (PIE1bits.RCIE=0);
  1120   0024E6  9A9D               	bcf	157,5,c	;volatile
  1121   0024E8  EF77  F012         	goto	l1287
  1122   0024EC                     l1281:
  1123                           
  1124                           ;MCAL_Layer/EUSART/eusart.c: 174:             (RCSTAbits.CREN=0);
  1125   0024EC  98AB               	bcf	171,4,c	;volatile
  1126   0024EE                     l1287:
  1127   0024EE  0012               	return		;funcret
  1128   0024F0                     __end_of_eusart_rx_int:
  1129                           	callstack 0
  1130                           
  1131 ;; *************** function _buadrate_calculation *****************
  1132 ;; Defined at:
  1133 ;;		line 215 in file "MCAL_Layer/EUSART/eusart.c"
  1134 ;; Parameters:    Size  Location     Type
  1135 ;;  ptr             2    0[BANK0 ] PTR const struct .
  1136 ;;		 -> eusart(16), 
  1137 ;; Auto vars:     Size  Location     Type
  1138 ;;  baudrate_loc    4    0[BANK1 ] float 
  1139 ;; Return value:  Size  Location     Type
  1140 ;;                  1    wreg      void 
  1141 ;; Registers used:
  1142 ;;		wreg, fsr2l, fsr2h, status,2, status,0, cstack
  1143 ;; Tracked objects:
  1144 ;;		On entry : 0/0
  1145 ;;		On exit  : 0/0
  1146 ;;		Unchanged: 0/0
  1147 ;; Data sizes:     COMRAM   BANK0   BANK1   BANK2   BANK3   BANK4   BANK5   BANK6   BANK7   BANK8   BANK9  BANK10  BANK1
      +1  BANK12  BANK13  BANK14  BANK15
  1148 ;;      Params:         0       2       0       0       0       0       0       0       0       0       0       0       
      +0       0       0       0       0
  1149 ;;      Locals:         0       0       8       0       0       0       0       0       0       0       0       0       
      +0       0       0       0       0
  1150 ;;      Temps:          0       2       0       0       0       0       0       0       0       0       0       0       
      +0       0       0       0       0
  1151 ;;      Totals:         0       4       8       0       0       0       0       0       0       0       0       0       
      +0       0       0       0       0
  1152 ;;Total ram usage:       12 bytes
  1153 ;; Hardware stack levels used: 1
  1154 ;; Hardware stack levels required when called: 6
  1155 ;; This function calls:
  1156 ;;		___fladd
  1157 ;;		___fldiv
  1158 ;;		___fltol
  1159 ;;		___xxtofl
  1160 ;; This function is called by:
  1161 ;;		_eusart_ASYN_int
  1162 ;; This function uses a non-reentrant model
  1163 ;;
  1164                           
  1165                           	psect	text4
  1166   00101C                     __ptext4:
  1167                           	callstack 0
  1168   00101C                     _buadrate_calculation:
  1169                           	callstack 23
  1170   00101C                     
  1171                           ;MCAL_Layer/EUSART/eusart.c: 217:     if(((void*)0)!=ptr) {
  1172   00101C  0100               	movlb	0	; () banked
  1173   00101E  51F9               	movf	buadrate_calculation@ptr& (0+255),w,b
  1174   001020  11FA               	iorwf	(buadrate_calculation@ptr+1)& (0+255),w,b
  1175   001022  B4D8               	btfsc	status,2,c
  1176   001024  EF16  F008         	goto	u7541
  1177   001028  EF18  F008         	goto	u7540
  1178   00102C                     u7541:
  1179   00102C  EF96  F00A         	goto	l1310
  1180   001030                     u7540:
  1181   001030                     
  1182                           ; BSR set to: 0
  1183                           ;MCAL_Layer/EUSART/eusart.c: 219:         f32 baudrate_local=0.0;
  1184   001030  0E00               	movlw	0
  1185   001032  0101               	movlb	1	; () banked
  1186   001034  6F00               	movwf	buadrate_calculation@baudrate_local& (0+255),b
  1187   001036  0E00               	movlw	0
  1188   001038  6F01               	movwf	(buadrate_calculation@baudrate_local+1)& (0+255),b
  1189   00103A  0E00               	movlw	0
  1190   00103C  6F02               	movwf	(buadrate_calculation@baudrate_local+2)& (0+255),b
  1191   00103E  0E00               	movlw	0
  1192   001040  6F03               	movwf	(buadrate_calculation@baudrate_local+3)& (0+255),b
  1193                           
  1194                           ;MCAL_Layer/EUSART/eusart.c: 220:         switch(ptr->eusart_baudrate_formula){
  1195   001042  EF4B  F00A         	goto	l7563
  1196   001046                     l1302:
  1197                           
  1198                           ; BSR set to: 0
  1199                           ;MCAL_Layer/EUSART/eusart.c: 224:                 (TXSTAbits.BRGH=0);
  1200   001046  94AC               	bcf	172,2,c	;volatile
  1201                           
  1202                           ;MCAL_Layer/EUSART/eusart.c: 225:                 (BAUDCONbits.BRG16=0);
  1203   001048  96B8               	bcf	184,3,c	;volatile
  1204                           
  1205                           ;MCAL_Layer/EUSART/eusart.c: 226:                 (TXSTAbits.SYNC=0);
  1206   00104A  98AC               	bcf	172,4,c	;volatile
  1207   00104C                     
  1208                           ; BSR set to: 0
  1209                           ;MCAL_Layer/EUSART/eusart.c: 227:                 baudrate_local=((8000000UL/(f32)ptr->b
      +                          audrate)/64)-1;
  1210   00104C  EE20 F008          	lfsr	2,8
  1211   001050  51F9               	movf	buadrate_calculation@ptr& (0+255),w,b
  1212   001052  26D9               	addwf	fsr2l,f,c
  1213   001054  51FA               	movf	(buadrate_calculation@ptr+1)& (0+255),w,b
  1214   001056  22DA               	addwfc	fsr2h,f,c
  1215   001058  CFDE F00F          	movff	postinc2,___xxtofl@val
  1216   00105C  CFDE F010          	movff	postinc2,___xxtofl@val+1
  1217   001060  CFDE F011          	movff	postinc2,___xxtofl@val+2
  1218   001064  CFDE F012          	movff	postinc2,___xxtofl@val+3
  1219   001068  0E00               	movlw	0
  1220   00106A  ECBF  F010         	call	___xxtofl
  1221   00106E  C00F  F021         	movff	?___xxtofl,___fldiv@a
  1222   001072  C010  F022         	movff	?___xxtofl+1,___fldiv@a+1
  1223   001076  C011  F023         	movff	?___xxtofl+2,___fldiv@a+2
  1224   00107A  C012  F024         	movff	?___xxtofl+3,___fldiv@a+3
  1225   00107E  0E00               	movlw	0
  1226   001080  6E1D               	movwf	___fldiv@b^0,c
  1227   001082  0E24               	movlw	36
  1228   001084  6E1E               	movwf	(___fldiv@b+1)^0,c
  1229   001086  0EF4               	movlw	244
  1230   001088  6E1F               	movwf	(___fldiv@b+2)^0,c
  1231   00108A  0E4A               	movlw	74
  1232   00108C  6E20               	movwf	(___fldiv@b+3)^0,c
  1233   00108E  ECF2  F00E         	call	___fldiv	;wreg free
  1234   001092  C01D  F104         	movff	?___fldiv,_buadrate_calculation$4511
  1235   001096  C01E  F105         	movff	?___fldiv+1,_buadrate_calculation$4511+1
  1236   00109A  C01F  F106         	movff	?___fldiv+2,_buadrate_calculation$4511+2
  1237   00109E  C020  F107         	movff	?___fldiv+3,_buadrate_calculation$4511+3
  1238   0010A2                     
  1239                           ;MCAL_Layer/EUSART/eusart.c: 227:                 baudrate_local=((8000000UL/(f32)ptr->b
      +                          audrate)/64)-1;
  1240   0010A2  0E00               	movlw	0
  1241   0010A4  6E21               	movwf	___fldiv@a^0,c
  1242   0010A6  0E00               	movlw	0
  1243   0010A8  6E22               	movwf	(___fldiv@a+1)^0,c
  1244   0010AA  0E80               	movlw	128
  1245   0010AC  6E23               	movwf	(___fldiv@a+2)^0,c
  1246   0010AE  0E42               	movlw	66
  1247   0010B0  6E24               	movwf	(___fldiv@a+3)^0,c
  1248   0010B2  C104  F01D         	movff	_buadrate_calculation$4511,___fldiv@b
  1249   0010B6  C105  F01E         	movff	_buadrate_calculation$4511+1,___fldiv@b+1
  1250   0010BA  C106  F01F         	movff	_buadrate_calculation$4511+2,___fldiv@b+2
  1251   0010BE  C107  F020         	movff	_buadrate_calculation$4511+3,___fldiv@b+3
  1252   0010C2  ECF2  F00E         	call	___fldiv	;wreg free
  1253   0010C6  C01D  F036         	movff	?___fldiv,___fladd@b
  1254   0010CA  C01E  F037         	movff	?___fldiv+1,___fladd@b+1
  1255   0010CE  C01F  F038         	movff	?___fldiv+2,___fladd@b+2
  1256   0010D2  C020  F039         	movff	?___fldiv+3,___fladd@b+3
  1257   0010D6  0E00               	movlw	0
  1258   0010D8  6E3A               	movwf	___fladd@a^0,c
  1259   0010DA  0E00               	movlw	0
  1260   0010DC  6E3B               	movwf	(___fladd@a+1)^0,c
  1261   0010DE  0E80               	movlw	128
  1262   0010E0  6E3C               	movwf	(___fladd@a+2)^0,c
  1263   0010E2  0EBF               	movlw	191
  1264   0010E4  6E3D               	movwf	(___fladd@a+3)^0,c
  1265   0010E6  EC97  F00A         	call	___fladd	;wreg free
  1266   0010EA  C036  F100         	movff	?___fladd,buadrate_calculation@baudrate_local
  1267   0010EE  C037  F101         	movff	?___fladd+1,buadrate_calculation@baudrate_local+1
  1268   0010F2  C038  F102         	movff	?___fladd+2,buadrate_calculation@baudrate_local+2
  1269   0010F6  C039  F103         	movff	?___fladd+3,buadrate_calculation@baudrate_local+3
  1270                           
  1271                           ;MCAL_Layer/EUSART/eusart.c: 229:                 break;
  1272   0010FA  EF77  F00A         	goto	l7565
  1273   0010FE                     l1304:
  1274                           
  1275                           ; BSR set to: 0
  1276                           ;MCAL_Layer/EUSART/eusart.c: 233:                 (TXSTAbits.BRGH=1);
  1277   0010FE  84AC               	bsf	172,2,c	;volatile
  1278                           
  1279                           ;MCAL_Layer/EUSART/eusart.c: 234:                 (BAUDCONbits.BRG16=0);
  1280   001100  96B8               	bcf	184,3,c	;volatile
  1281                           
  1282                           ;MCAL_Layer/EUSART/eusart.c: 235:                 (TXSTAbits.SYNC=0);
  1283   001102  98AC               	bcf	172,4,c	;volatile
  1284   001104                     
  1285                           ; BSR set to: 0
  1286                           ;MCAL_Layer/EUSART/eusart.c: 236:                 baudrate_local=((8000000UL/(f32)ptr->b
      +                          audrate)/16)-1;
  1287   001104  EE20 F008          	lfsr	2,8
  1288   001108  51F9               	movf	buadrate_calculation@ptr& (0+255),w,b
  1289   00110A  26D9               	addwf	fsr2l,f,c
  1290   00110C  51FA               	movf	(buadrate_calculation@ptr+1)& (0+255),w,b
  1291   00110E  22DA               	addwfc	fsr2h,f,c
  1292   001110  CFDE F00F          	movff	postinc2,___xxtofl@val
  1293   001114  CFDE F010          	movff	postinc2,___xxtofl@val+1
  1294   001118  CFDE F011          	movff	postinc2,___xxtofl@val+2
  1295   00111C  CFDE F012          	movff	postinc2,___xxtofl@val+3
  1296   001120  0E00               	movlw	0
  1297   001122  ECBF  F010         	call	___xxtofl
  1298   001126  C00F  F021         	movff	?___xxtofl,___fldiv@a
  1299   00112A  C010  F022         	movff	?___xxtofl+1,___fldiv@a+1
  1300   00112E  C011  F023         	movff	?___xxtofl+2,___fldiv@a+2
  1301   001132  C012  F024         	movff	?___xxtofl+3,___fldiv@a+3
  1302   001136  0E00               	movlw	0
  1303   001138  6E1D               	movwf	___fldiv@b^0,c
  1304   00113A  0E24               	movlw	36
  1305   00113C  6E1E               	movwf	(___fldiv@b+1)^0,c
  1306   00113E  0EF4               	movlw	244
  1307   001140  6E1F               	movwf	(___fldiv@b+2)^0,c
  1308   001142  0E4A               	movlw	74
  1309   001144  6E20               	movwf	(___fldiv@b+3)^0,c
  1310   001146  ECF2  F00E         	call	___fldiv	;wreg free
  1311   00114A  C01D  F104         	movff	?___fldiv,_buadrate_calculation$4511
  1312   00114E  C01E  F105         	movff	?___fldiv+1,_buadrate_calculation$4511+1
  1313   001152  C01F  F106         	movff	?___fldiv+2,_buadrate_calculation$4511+2
  1314   001156  C020  F107         	movff	?___fldiv+3,_buadrate_calculation$4511+3
  1315   00115A                     
  1316                           ;MCAL_Layer/EUSART/eusart.c: 236:                 baudrate_local=((8000000UL/(f32)ptr->b
      +                          audrate)/16)-1;
  1317   00115A  0E00               	movlw	0
  1318   00115C  6E21               	movwf	___fldiv@a^0,c
  1319   00115E  0E00               	movlw	0
  1320   001160  6E22               	movwf	(___fldiv@a+1)^0,c
  1321   001162  0E80               	movlw	128
  1322   001164  6E23               	movwf	(___fldiv@a+2)^0,c
  1323   001166  0E41               	movlw	65
  1324   001168  6E24               	movwf	(___fldiv@a+3)^0,c
  1325   00116A  C104  F01D         	movff	_buadrate_calculation$4511,___fldiv@b
  1326   00116E  C105  F01E         	movff	_buadrate_calculation$4511+1,___fldiv@b+1
  1327   001172  C106  F01F         	movff	_buadrate_calculation$4511+2,___fldiv@b+2
  1328   001176  C107  F020         	movff	_buadrate_calculation$4511+3,___fldiv@b+3
  1329   00117A  ECF2  F00E         	call	___fldiv	;wreg free
  1330   00117E  C01D  F036         	movff	?___fldiv,___fladd@b
  1331   001182  C01E  F037         	movff	?___fldiv+1,___fladd@b+1
  1332   001186  C01F  F038         	movff	?___fldiv+2,___fladd@b+2
  1333   00118A  C020  F039         	movff	?___fldiv+3,___fladd@b+3
  1334   00118E  0E00               	movlw	0
  1335   001190  6E3A               	movwf	___fladd@a^0,c
  1336   001192  0E00               	movlw	0
  1337   001194  6E3B               	movwf	(___fladd@a+1)^0,c
  1338   001196  0E80               	movlw	128
  1339   001198  6E3C               	movwf	(___fladd@a+2)^0,c
  1340   00119A  0EBF               	movlw	191
  1341   00119C  6E3D               	movwf	(___fladd@a+3)^0,c
  1342   00119E  EC97  F00A         	call	___fladd	;wreg free
  1343   0011A2  C036  F100         	movff	?___fladd,buadrate_calculation@baudrate_local
  1344   0011A6  C037  F101         	movff	?___fladd+1,buadrate_calculation@baudrate_local+1
  1345   0011AA  C038  F102         	movff	?___fladd+2,buadrate_calculation@baudrate_local+2
  1346   0011AE  C039  F103         	movff	?___fladd+3,buadrate_calculation@baudrate_local+3
  1347                           
  1348                           ;MCAL_Layer/EUSART/eusart.c: 238:                 break;
  1349   0011B2  EF77  F00A         	goto	l7565
  1350   0011B6                     l1305:
  1351                           
  1352                           ; BSR set to: 0
  1353                           ;MCAL_Layer/EUSART/eusart.c: 242:                 (TXSTAbits.BRGH=0);
  1354   0011B6  94AC               	bcf	172,2,c	;volatile
  1355                           
  1356                           ;MCAL_Layer/EUSART/eusart.c: 243:                 (BAUDCONbits.BRG16=1);
  1357   0011B8  86B8               	bsf	184,3,c	;volatile
  1358                           
  1359                           ;MCAL_Layer/EUSART/eusart.c: 244:                 (TXSTAbits.SYNC=0);
  1360   0011BA  98AC               	bcf	172,4,c	;volatile
  1361   0011BC                     
  1362                           ; BSR set to: 0
  1363                           ;MCAL_Layer/EUSART/eusart.c: 245:                 baudrate_local=((8000000UL/(f32)ptr->b
      +                          audrate)/16.0)-1;
  1364   0011BC  EE20 F008          	lfsr	2,8
  1365   0011C0  51F9               	movf	buadrate_calculation@ptr& (0+255),w,b
  1366   0011C2  26D9               	addwf	fsr2l,f,c
  1367   0011C4  51FA               	movf	(buadrate_calculation@ptr+1)& (0+255),w,b
  1368   0011C6  22DA               	addwfc	fsr2h,f,c
  1369   0011C8  CFDE F00F          	movff	postinc2,___xxtofl@val
  1370   0011CC  CFDE F010          	movff	postinc2,___xxtofl@val+1
  1371   0011D0  CFDE F011          	movff	postinc2,___xxtofl@val+2
  1372   0011D4  CFDE F012          	movff	postinc2,___xxtofl@val+3
  1373   0011D8  0E00               	movlw	0
  1374   0011DA  ECBF  F010         	call	___xxtofl
  1375   0011DE  C00F  F021         	movff	?___xxtofl,___fldiv@a
  1376   0011E2  C010  F022         	movff	?___xxtofl+1,___fldiv@a+1
  1377   0011E6  C011  F023         	movff	?___xxtofl+2,___fldiv@a+2
  1378   0011EA  C012  F024         	movff	?___xxtofl+3,___fldiv@a+3
  1379   0011EE  0E00               	movlw	0
  1380   0011F0  6E1D               	movwf	___fldiv@b^0,c
  1381   0011F2  0E24               	movlw	36
  1382   0011F4  6E1E               	movwf	(___fldiv@b+1)^0,c
  1383   0011F6  0EF4               	movlw	244
  1384   0011F8  6E1F               	movwf	(___fldiv@b+2)^0,c
  1385   0011FA  0E4A               	movlw	74
  1386   0011FC  6E20               	movwf	(___fldiv@b+3)^0,c
  1387   0011FE  ECF2  F00E         	call	___fldiv	;wreg free
  1388   001202  C01D  F104         	movff	?___fldiv,_buadrate_calculation$4511
  1389   001206  C01E  F105         	movff	?___fldiv+1,_buadrate_calculation$4511+1
  1390   00120A  C01F  F106         	movff	?___fldiv+2,_buadrate_calculation$4511+2
  1391   00120E  C020  F107         	movff	?___fldiv+3,_buadrate_calculation$4511+3
  1392   001212                     
  1393                           ;MCAL_Layer/EUSART/eusart.c: 245:                 baudrate_local=((8000000UL/(f32)ptr->b
      +                          audrate)/16.0)-1;
  1394   001212  0E00               	movlw	0
  1395   001214  6E21               	movwf	___fldiv@a^0,c
  1396   001216  0E00               	movlw	0
  1397   001218  6E22               	movwf	(___fldiv@a+1)^0,c
  1398   00121A  0E80               	movlw	128
  1399   00121C  6E23               	movwf	(___fldiv@a+2)^0,c
  1400   00121E  0E41               	movlw	65
  1401   001220  6E24               	movwf	(___fldiv@a+3)^0,c
  1402   001222  C104  F01D         	movff	_buadrate_calculation$4511,___fldiv@b
  1403   001226  C105  F01E         	movff	_buadrate_calculation$4511+1,___fldiv@b+1
  1404   00122A  C106  F01F         	movff	_buadrate_calculation$4511+2,___fldiv@b+2
  1405   00122E  C107  F020         	movff	_buadrate_calculation$4511+3,___fldiv@b+3
  1406   001232  ECF2  F00E         	call	___fldiv	;wreg free
  1407   001236  C01D  F036         	movff	?___fldiv,___fladd@b
  1408   00123A  C01E  F037         	movff	?___fldiv+1,___fladd@b+1
  1409   00123E  C01F  F038         	movff	?___fldiv+2,___fladd@b+2
  1410   001242  C020  F039         	movff	?___fldiv+3,___fladd@b+3
  1411   001246  0E00               	movlw	0
  1412   001248  6E3A               	movwf	___fladd@a^0,c
  1413   00124A  0E00               	movlw	0
  1414   00124C  6E3B               	movwf	(___fladd@a+1)^0,c
  1415   00124E  0E80               	movlw	128
  1416   001250  6E3C               	movwf	(___fladd@a+2)^0,c
  1417   001252  0EBF               	movlw	191
  1418   001254  6E3D               	movwf	(___fladd@a+3)^0,c
  1419   001256  EC97  F00A         	call	___fladd	;wreg free
  1420   00125A  C036  F100         	movff	?___fladd,buadrate_calculation@baudrate_local
  1421   00125E  C037  F101         	movff	?___fladd+1,buadrate_calculation@baudrate_local+1
  1422   001262  C038  F102         	movff	?___fladd+2,buadrate_calculation@baudrate_local+2
  1423   001266  C039  F103         	movff	?___fladd+3,buadrate_calculation@baudrate_local+3
  1424                           
  1425                           ;MCAL_Layer/EUSART/eusart.c: 247:                 break;
  1426   00126A  EF77  F00A         	goto	l7565
  1427   00126E                     l1306:
  1428                           
  1429                           ; BSR set to: 0
  1430                           ;MCAL_Layer/EUSART/eusart.c: 251:                  (TXSTAbits.BRGH=1);
  1431   00126E  84AC               	bsf	172,2,c	;volatile
  1432                           
  1433                           ;MCAL_Layer/EUSART/eusart.c: 252:                 (BAUDCONbits.BRG16=1);
  1434   001270  86B8               	bsf	184,3,c	;volatile
  1435                           
  1436                           ;MCAL_Layer/EUSART/eusart.c: 253:                 (TXSTAbits.SYNC=0);
  1437   001272  98AC               	bcf	172,4,c	;volatile
  1438   001274                     
  1439                           ; BSR set to: 0
  1440                           ;MCAL_Layer/EUSART/eusart.c: 254:                 baudrate_local=((8000000UL/(f32)ptr->b
      +                          audrate)/4.0)-1;
  1441   001274  EE20 F008          	lfsr	2,8
  1442   001278  51F9               	movf	buadrate_calculation@ptr& (0+255),w,b
  1443   00127A  26D9               	addwf	fsr2l,f,c
  1444   00127C  51FA               	movf	(buadrate_calculation@ptr+1)& (0+255),w,b
  1445   00127E  22DA               	addwfc	fsr2h,f,c
  1446   001280  CFDE F00F          	movff	postinc2,___xxtofl@val
  1447   001284  CFDE F010          	movff	postinc2,___xxtofl@val+1
  1448   001288  CFDE F011          	movff	postinc2,___xxtofl@val+2
  1449   00128C  CFDE F012          	movff	postinc2,___xxtofl@val+3
  1450   001290  0E00               	movlw	0
  1451   001292  ECBF  F010         	call	___xxtofl
  1452   001296  C00F  F021         	movff	?___xxtofl,___fldiv@a
  1453   00129A  C010  F022         	movff	?___xxtofl+1,___fldiv@a+1
  1454   00129E  C011  F023         	movff	?___xxtofl+2,___fldiv@a+2
  1455   0012A2  C012  F024         	movff	?___xxtofl+3,___fldiv@a+3
  1456   0012A6  0E00               	movlw	0
  1457   0012A8  6E1D               	movwf	___fldiv@b^0,c
  1458   0012AA  0E24               	movlw	36
  1459   0012AC  6E1E               	movwf	(___fldiv@b+1)^0,c
  1460   0012AE  0EF4               	movlw	244
  1461   0012B0  6E1F               	movwf	(___fldiv@b+2)^0,c
  1462   0012B2  0E4A               	movlw	74
  1463   0012B4  6E20               	movwf	(___fldiv@b+3)^0,c
  1464   0012B6  ECF2  F00E         	call	___fldiv	;wreg free
  1465   0012BA  C01D  F104         	movff	?___fldiv,_buadrate_calculation$4511
  1466   0012BE  C01E  F105         	movff	?___fldiv+1,_buadrate_calculation$4511+1
  1467   0012C2  C01F  F106         	movff	?___fldiv+2,_buadrate_calculation$4511+2
  1468   0012C6  C020  F107         	movff	?___fldiv+3,_buadrate_calculation$4511+3
  1469   0012CA                     
  1470                           ;MCAL_Layer/EUSART/eusart.c: 254:                 baudrate_local=((8000000UL/(f32)ptr->b
      +                          audrate)/4.0)-1;
  1471   0012CA  0E00               	movlw	0
  1472   0012CC  6E21               	movwf	___fldiv@a^0,c
  1473   0012CE  0E00               	movlw	0
  1474   0012D0  6E22               	movwf	(___fldiv@a+1)^0,c
  1475   0012D2  0E80               	movlw	128
  1476   0012D4  6E23               	movwf	(___fldiv@a+2)^0,c
  1477   0012D6  0E40               	movlw	64
  1478   0012D8  6E24               	movwf	(___fldiv@a+3)^0,c
  1479   0012DA  C104  F01D         	movff	_buadrate_calculation$4511,___fldiv@b
  1480   0012DE  C105  F01E         	movff	_buadrate_calculation$4511+1,___fldiv@b+1
  1481   0012E2  C106  F01F         	movff	_buadrate_calculation$4511+2,___fldiv@b+2
  1482   0012E6  C107  F020         	movff	_buadrate_calculation$4511+3,___fldiv@b+3
  1483   0012EA  ECF2  F00E         	call	___fldiv	;wreg free
  1484   0012EE  C01D  F036         	movff	?___fldiv,___fladd@b
  1485   0012F2  C01E  F037         	movff	?___fldiv+1,___fladd@b+1
  1486   0012F6  C01F  F038         	movff	?___fldiv+2,___fladd@b+2
  1487   0012FA  C020  F039         	movff	?___fldiv+3,___fladd@b+3
  1488   0012FE  0E00               	movlw	0
  1489   001300  6E3A               	movwf	___fladd@a^0,c
  1490   001302  0E00               	movlw	0
  1491   001304  6E3B               	movwf	(___fladd@a+1)^0,c
  1492   001306  0E80               	movlw	128
  1493   001308  6E3C               	movwf	(___fladd@a+2)^0,c
  1494   00130A  0EBF               	movlw	191
  1495   00130C  6E3D               	movwf	(___fladd@a+3)^0,c
  1496   00130E  EC97  F00A         	call	___fladd	;wreg free
  1497   001312  C036  F100         	movff	?___fladd,buadrate_calculation@baudrate_local
  1498   001316  C037  F101         	movff	?___fladd+1,buadrate_calculation@baudrate_local+1
  1499   00131A  C038  F102         	movff	?___fladd+2,buadrate_calculation@baudrate_local+2
  1500   00131E  C039  F103         	movff	?___fladd+3,buadrate_calculation@baudrate_local+3
  1501                           
  1502                           ;MCAL_Layer/EUSART/eusart.c: 256:                 break;
  1503   001322  EF77  F00A         	goto	l7565
  1504   001326                     l1307:
  1505                           
  1506                           ; BSR set to: 0
  1507                           ;MCAL_Layer/EUSART/eusart.c: 258:                  (TXSTAbits.BRGH=1);
  1508   001326  84AC               	bsf	172,2,c	;volatile
  1509                           
  1510                           ;MCAL_Layer/EUSART/eusart.c: 259:                 (BAUDCONbits.BRG16=0);
  1511   001328  96B8               	bcf	184,3,c	;volatile
  1512                           
  1513                           ;MCAL_Layer/EUSART/eusart.c: 260:                 (TXSTAbits.SYNC=1);
  1514   00132A  88AC               	bsf	172,4,c	;volatile
  1515   00132C                     
  1516                           ; BSR set to: 0
  1517                           ;MCAL_Layer/EUSART/eusart.c: 261:                 baudrate_local=((8000000UL/(f32)ptr->b
      +                          audrate)/4.0)-1;
  1518   00132C  EE20 F008          	lfsr	2,8
  1519   001330  51F9               	movf	buadrate_calculation@ptr& (0+255),w,b
  1520   001332  26D9               	addwf	fsr2l,f,c
  1521   001334  51FA               	movf	(buadrate_calculation@ptr+1)& (0+255),w,b
  1522   001336  22DA               	addwfc	fsr2h,f,c
  1523   001338  CFDE F00F          	movff	postinc2,___xxtofl@val
  1524   00133C  CFDE F010          	movff	postinc2,___xxtofl@val+1
  1525   001340  CFDE F011          	movff	postinc2,___xxtofl@val+2
  1526   001344  CFDE F012          	movff	postinc2,___xxtofl@val+3
  1527   001348  0E00               	movlw	0
  1528   00134A  ECBF  F010         	call	___xxtofl
  1529   00134E  C00F  F021         	movff	?___xxtofl,___fldiv@a
  1530   001352  C010  F022         	movff	?___xxtofl+1,___fldiv@a+1
  1531   001356  C011  F023         	movff	?___xxtofl+2,___fldiv@a+2
  1532   00135A  C012  F024         	movff	?___xxtofl+3,___fldiv@a+3
  1533   00135E  0E00               	movlw	0
  1534   001360  6E1D               	movwf	___fldiv@b^0,c
  1535   001362  0E24               	movlw	36
  1536   001364  6E1E               	movwf	(___fldiv@b+1)^0,c
  1537   001366  0EF4               	movlw	244
  1538   001368  6E1F               	movwf	(___fldiv@b+2)^0,c
  1539   00136A  0E4A               	movlw	74
  1540   00136C  6E20               	movwf	(___fldiv@b+3)^0,c
  1541   00136E  ECF2  F00E         	call	___fldiv	;wreg free
  1542   001372  C01D  F104         	movff	?___fldiv,_buadrate_calculation$4511
  1543   001376  C01E  F105         	movff	?___fldiv+1,_buadrate_calculation$4511+1
  1544   00137A  C01F  F106         	movff	?___fldiv+2,_buadrate_calculation$4511+2
  1545   00137E  C020  F107         	movff	?___fldiv+3,_buadrate_calculation$4511+3
  1546   001382                     
  1547                           ;MCAL_Layer/EUSART/eusart.c: 261:                 baudrate_local=((8000000UL/(f32)ptr->b
      +                          audrate)/4.0)-1;
  1548   001382  0E00               	movlw	0
  1549   001384  6E21               	movwf	___fldiv@a^0,c
  1550   001386  0E00               	movlw	0
  1551   001388  6E22               	movwf	(___fldiv@a+1)^0,c
  1552   00138A  0E80               	movlw	128
  1553   00138C  6E23               	movwf	(___fldiv@a+2)^0,c
  1554   00138E  0E40               	movlw	64
  1555   001390  6E24               	movwf	(___fldiv@a+3)^0,c
  1556   001392  C104  F01D         	movff	_buadrate_calculation$4511,___fldiv@b
  1557   001396  C105  F01E         	movff	_buadrate_calculation$4511+1,___fldiv@b+1
  1558   00139A  C106  F01F         	movff	_buadrate_calculation$4511+2,___fldiv@b+2
  1559   00139E  C107  F020         	movff	_buadrate_calculation$4511+3,___fldiv@b+3
  1560   0013A2  ECF2  F00E         	call	___fldiv	;wreg free
  1561   0013A6  C01D  F036         	movff	?___fldiv,___fladd@b
  1562   0013AA  C01E  F037         	movff	?___fldiv+1,___fladd@b+1
  1563   0013AE  C01F  F038         	movff	?___fldiv+2,___fladd@b+2
  1564   0013B2  C020  F039         	movff	?___fldiv+3,___fladd@b+3
  1565   0013B6  0E00               	movlw	0
  1566   0013B8  6E3A               	movwf	___fladd@a^0,c
  1567   0013BA  0E00               	movlw	0
  1568   0013BC  6E3B               	movwf	(___fladd@a+1)^0,c
  1569   0013BE  0E80               	movlw	128
  1570   0013C0  6E3C               	movwf	(___fladd@a+2)^0,c
  1571   0013C2  0EBF               	movlw	191
  1572   0013C4  6E3D               	movwf	(___fladd@a+3)^0,c
  1573   0013C6  EC97  F00A         	call	___fladd	;wreg free
  1574   0013CA  C036  F100         	movff	?___fladd,buadrate_calculation@baudrate_local
  1575   0013CE  C037  F101         	movff	?___fladd+1,buadrate_calculation@baudrate_local+1
  1576   0013D2  C038  F102         	movff	?___fladd+2,buadrate_calculation@baudrate_local+2
  1577   0013D6  C039  F103         	movff	?___fladd+3,buadrate_calculation@baudrate_local+3
  1578                           
  1579                           ;MCAL_Layer/EUSART/eusart.c: 262:                 break;
  1580   0013DA  EF77  F00A         	goto	l7565
  1581   0013DE                     l1308:
  1582                           
  1583                           ; BSR set to: 0
  1584                           ;MCAL_Layer/EUSART/eusart.c: 265:                  (TXSTAbits.BRGH=1);
  1585   0013DE  84AC               	bsf	172,2,c	;volatile
  1586                           
  1587                           ;MCAL_Layer/EUSART/eusart.c: 266:                 (BAUDCONbits.BRG16=1);
  1588   0013E0  86B8               	bsf	184,3,c	;volatile
  1589                           
  1590                           ;MCAL_Layer/EUSART/eusart.c: 267:                 (TXSTAbits.SYNC=1);
  1591   0013E2  88AC               	bsf	172,4,c	;volatile
  1592   0013E4                     
  1593                           ; BSR set to: 0
  1594                           ;MCAL_Layer/EUSART/eusart.c: 268:                 baudrate_local=((8000000UL/(f32)ptr->b
      +                          audrate)/4.0)-1;
  1595   0013E4  EE20 F008          	lfsr	2,8
  1596   0013E8  51F9               	movf	buadrate_calculation@ptr& (0+255),w,b
  1597   0013EA  26D9               	addwf	fsr2l,f,c
  1598   0013EC  51FA               	movf	(buadrate_calculation@ptr+1)& (0+255),w,b
  1599   0013EE  22DA               	addwfc	fsr2h,f,c
  1600   0013F0  CFDE F00F          	movff	postinc2,___xxtofl@val
  1601   0013F4  CFDE F010          	movff	postinc2,___xxtofl@val+1
  1602   0013F8  CFDE F011          	movff	postinc2,___xxtofl@val+2
  1603   0013FC  CFDE F012          	movff	postinc2,___xxtofl@val+3
  1604   001400  0E00               	movlw	0
  1605   001402  ECBF  F010         	call	___xxtofl
  1606   001406  C00F  F021         	movff	?___xxtofl,___fldiv@a
  1607   00140A  C010  F022         	movff	?___xxtofl+1,___fldiv@a+1
  1608   00140E  C011  F023         	movff	?___xxtofl+2,___fldiv@a+2
  1609   001412  C012  F024         	movff	?___xxtofl+3,___fldiv@a+3
  1610   001416  0E00               	movlw	0
  1611   001418  6E1D               	movwf	___fldiv@b^0,c
  1612   00141A  0E24               	movlw	36
  1613   00141C  6E1E               	movwf	(___fldiv@b+1)^0,c
  1614   00141E  0EF4               	movlw	244
  1615   001420  6E1F               	movwf	(___fldiv@b+2)^0,c
  1616   001422  0E4A               	movlw	74
  1617   001424  6E20               	movwf	(___fldiv@b+3)^0,c
  1618   001426  ECF2  F00E         	call	___fldiv	;wreg free
  1619   00142A  C01D  F104         	movff	?___fldiv,_buadrate_calculation$4511
  1620   00142E  C01E  F105         	movff	?___fldiv+1,_buadrate_calculation$4511+1
  1621   001432  C01F  F106         	movff	?___fldiv+2,_buadrate_calculation$4511+2
  1622   001436  C020  F107         	movff	?___fldiv+3,_buadrate_calculation$4511+3
  1623   00143A                     
  1624                           ;MCAL_Layer/EUSART/eusart.c: 268:                 baudrate_local=((8000000UL/(f32)ptr->b
      +                          audrate)/4.0)-1;
  1625   00143A  0E00               	movlw	0
  1626   00143C  6E21               	movwf	___fldiv@a^0,c
  1627   00143E  0E00               	movlw	0
  1628   001440  6E22               	movwf	(___fldiv@a+1)^0,c
  1629   001442  0E80               	movlw	128
  1630   001444  6E23               	movwf	(___fldiv@a+2)^0,c
  1631   001446  0E40               	movlw	64
  1632   001448  6E24               	movwf	(___fldiv@a+3)^0,c
  1633   00144A  C104  F01D         	movff	_buadrate_calculation$4511,___fldiv@b
  1634   00144E  C105  F01E         	movff	_buadrate_calculation$4511+1,___fldiv@b+1
  1635   001452  C106  F01F         	movff	_buadrate_calculation$4511+2,___fldiv@b+2
  1636   001456  C107  F020         	movff	_buadrate_calculation$4511+3,___fldiv@b+3
  1637   00145A  ECF2  F00E         	call	___fldiv	;wreg free
  1638   00145E  C01D  F036         	movff	?___fldiv,___fladd@b
  1639   001462  C01E  F037         	movff	?___fldiv+1,___fladd@b+1
  1640   001466  C01F  F038         	movff	?___fldiv+2,___fladd@b+2
  1641   00146A  C020  F039         	movff	?___fldiv+3,___fladd@b+3
  1642   00146E  0E00               	movlw	0
  1643   001470  6E3A               	movwf	___fladd@a^0,c
  1644   001472  0E00               	movlw	0
  1645   001474  6E3B               	movwf	(___fladd@a+1)^0,c
  1646   001476  0E80               	movlw	128
  1647   001478  6E3C               	movwf	(___fladd@a+2)^0,c
  1648   00147A  0EBF               	movlw	191
  1649   00147C  6E3D               	movwf	(___fladd@a+3)^0,c
  1650   00147E  EC97  F00A         	call	___fladd	;wreg free
  1651   001482  C036  F100         	movff	?___fladd,buadrate_calculation@baudrate_local
  1652   001486  C037  F101         	movff	?___fladd+1,buadrate_calculation@baudrate_local+1
  1653   00148A  C038  F102         	movff	?___fladd+2,buadrate_calculation@baudrate_local+2
  1654   00148E  C039  F103         	movff	?___fladd+3,buadrate_calculation@baudrate_local+3
  1655                           
  1656                           ;MCAL_Layer/EUSART/eusart.c: 270:                 break;
  1657   001492  EF77  F00A         	goto	l7565
  1658   001496                     l7563:
  1659                           
  1660                           ; BSR set to: 1
  1661   001496  0100               	movlb	0	; () banked
  1662   001498  EE20 F00C          	lfsr	2,12
  1663   00149C  51F9               	movf	buadrate_calculation@ptr& (0+255),w,b
  1664   00149E  26D9               	addwf	fsr2l,f,c
  1665   0014A0  51FA               	movf	(buadrate_calculation@ptr+1)& (0+255),w,b
  1666   0014A2  22DA               	addwfc	fsr2h,f,c
  1667   0014A4  50DF               	movf	indf2,w,c
  1668   0014A6  6FFB               	movwf	??_buadrate_calculation& (0+255),b
  1669   0014A8  6BFC               	clrf	(??_buadrate_calculation+1)& (0+255),b
  1670                           
  1671                           ; Switch on 2 bytes has been partitioned into a top level switch of size 1, and 1 sub-sw
      +                          itches
  1672                           ; Switch size 1, requested type "simple"
  1673                           ; Number of cases is 1, Range of values is 0 to 0
  1674                           ; switch strategies available:
  1675                           ; Name         Instructions Cycles
  1676                           ; simple_byte            4     3 (average)
  1677                           ;	Chosen strategy is simple_byte
  1678   0014AA  51FC               	movf	(??_buadrate_calculation+1)& (0+255),w,b
  1679   0014AC  0A00               	xorlw	0	; case 0
  1680   0014AE  B4D8               	btfsc	status,2,c
  1681   0014B0  EF5C  F00A         	goto	l7761
  1682   0014B4  EF77  F00A         	goto	l7565
  1683   0014B8                     l7761:
  1684                           
  1685                           ; BSR set to: 0
  1686                           ; Switch size 1, requested type "simple"
  1687                           ; Number of cases is 6, Range of values is 0 to 5
  1688                           ; switch strategies available:
  1689                           ; Name         Instructions Cycles
  1690                           ; simple_byte           19    10 (average)
  1691                           ;	Chosen strategy is simple_byte
  1692   0014B8  51FB               	movf	??_buadrate_calculation& (0+255),w,b
  1693   0014BA  0A00               	xorlw	0	; case 0
  1694   0014BC  B4D8               	btfsc	status,2,c
  1695   0014BE  EF23  F008         	goto	l1302
  1696   0014C2  0A01               	xorlw	1	; case 1
  1697   0014C4  B4D8               	btfsc	status,2,c
  1698   0014C6  EF7F  F008         	goto	l1304
  1699   0014CA  0A03               	xorlw	3	; case 2
  1700   0014CC  B4D8               	btfsc	status,2,c
  1701   0014CE  EFDB  F008         	goto	l1305
  1702   0014D2  0A01               	xorlw	1	; case 3
  1703   0014D4  B4D8               	btfsc	status,2,c
  1704   0014D6  EF37  F009         	goto	l1306
  1705   0014DA  0A07               	xorlw	7	; case 4
  1706   0014DC  B4D8               	btfsc	status,2,c
  1707   0014DE  EF93  F009         	goto	l1307
  1708   0014E2  0A01               	xorlw	1	; case 5
  1709   0014E4  B4D8               	btfsc	status,2,c
  1710   0014E6  EFEF  F009         	goto	l1308
  1711   0014EA  EF77  F00A         	goto	l7565
  1712   0014EE                     l7565:
  1713                           
  1714                           ;MCAL_Layer/EUSART/eusart.c: 276:         SPBRG=(uint8)((uint32)(baudrate_local));
  1715   0014EE  C100  F00F         	movff	buadrate_calculation@baudrate_local,___fltol@f1
  1716   0014F2  C101  F010         	movff	buadrate_calculation@baudrate_local+1,___fltol@f1+1
  1717   0014F6  C102  F011         	movff	buadrate_calculation@baudrate_local+2,___fltol@f1+2
  1718   0014FA  C103  F012         	movff	buadrate_calculation@baudrate_local+3,___fltol@f1+3
  1719   0014FE  EC99  F011         	call	___fltol	;wreg free
  1720   001502  500F               	movf	?___fltol^0,w,c
  1721   001504  6EAF               	movwf	175,c	;volatile
  1722                           
  1723                           ;MCAL_Layer/EUSART/eusart.c: 277:         SPBRGH=(uint8)(((uint32)(baudrate_local))>>8);
  1724   001506  C100  F00F         	movff	buadrate_calculation@baudrate_local,___fltol@f1
  1725   00150A  C101  F010         	movff	buadrate_calculation@baudrate_local+1,___fltol@f1+1
  1726   00150E  C102  F011         	movff	buadrate_calculation@baudrate_local+2,___fltol@f1+2
  1727   001512  C103  F012         	movff	buadrate_calculation@baudrate_local+3,___fltol@f1+3
  1728   001516  EC99  F011         	call	___fltol	;wreg free
  1729   00151A  C010  F00F         	movff	?___fltol+1,?___fltol
  1730   00151E  C011  F010         	movff	?___fltol+2,?___fltol+1
  1731   001522  C012  F011         	movff	?___fltol+3,?___fltol+2
  1732   001526  6A12               	clrf	(?___fltol+3)^0,c
  1733   001528  500F               	movf	?___fltol^0,w,c
  1734   00152A  6EB0               	movwf	176,c	;volatile
  1735   00152C                     l1310:
  1736   00152C  0012               	return		;funcret
  1737   00152E                     __end_of_buadrate_calculation:
  1738                           	callstack 0
  1739                           
  1740 ;; *************** function ___xxtofl *****************
  1741 ;; Defined at:
  1742 ;;		line 10 in file "E:\Program Files\Microchip\xc8\v2.41\pic\sources\c99\common\xxtofl.c"
  1743 ;; Parameters:    Size  Location     Type
  1744 ;;  sign            1    wreg     unsigned char 
  1745 ;;  val             4   14[COMRAM] long 
  1746 ;; Auto vars:     Size  Location     Type
  1747 ;;  sign            1   22[COMRAM] unsigned char 
  1748 ;;  arg             4   24[COMRAM] unsigned long 
  1749 ;;  exp             1   23[COMRAM] unsigned char 
  1750 ;; Return value:  Size  Location     Type
  1751 ;;                  4   14[COMRAM] unsigned char 
  1752 ;; Registers used:
  1753 ;;		wreg, status,2, status,0
  1754 ;; Tracked objects:
  1755 ;;		On entry : 0/0
  1756 ;;		On exit  : 0/0
  1757 ;;		Unchanged: 0/0
  1758 ;; Data sizes:     COMRAM   BANK0   BANK1   BANK2   BANK3   BANK4   BANK5   BANK6   BANK7   BANK8   BANK9  BANK10  BANK1
      +1  BANK12  BANK13  BANK14  BANK15
  1759 ;;      Params:         4       0       0       0       0       0       0       0       0       0       0       0       
      +0       0       0       0       0
  1760 ;;      Locals:         6       0       0       0       0       0       0       0       0       0       0       0       
      +0       0       0       0       0
  1761 ;;      Temps:          4       0       0       0       0       0       0       0       0       0       0       0       
      +0       0       0       0       0
  1762 ;;      Totals:        14       0       0       0       0       0       0       0       0       0       0       0       
      +0       0       0       0       0
  1763 ;;Total ram usage:       14 bytes
  1764 ;; Hardware stack levels used: 1
  1765 ;; Hardware stack levels required when called: 5
  1766 ;; This function calls:
  1767 ;;		Nothing
  1768 ;; This function is called by:
  1769 ;;		_buadrate_calculation
  1770 ;;		_ccp2_int
  1771 ;;		_ccp2_pwm_set_duty
  1772 ;; This function uses a non-reentrant model
  1773 ;;
  1774                           
  1775                           	psect	text5
  1776   00217E                     __ptext5:
  1777                           	callstack 0
  1778   00217E                     ___xxtofl:
  1779                           	callstack 23
  1780                           
  1781                           ;incstack = 0
  1782                           ;___xxtofl@sign stored from wreg
  1783   00217E  6E17               	movwf	___xxtofl@sign^0,c
  1784   002180  5017               	movf	___xxtofl@sign^0,w,c
  1785   002182  B4D8               	btfsc	status,2,c
  1786   002184  EFC6  F010         	goto	u7441
  1787   002188  EFC8  F010         	goto	u7440
  1788   00218C                     u7441:
  1789   00218C  EFEA  F010         	goto	l1986
  1790   002190                     u7440:
  1791   002190  BE12               	btfsc	(___xxtofl@val+3)^0,7,c
  1792   002192  EFCF  F010         	goto	u7450
  1793   002196  EFCD  F010         	goto	u7451
  1794   00219A                     u7451:
  1795   00219A  EFEA  F010         	goto	l1986
  1796   00219E                     u7450:
  1797   00219E  C00F  F013         	movff	___xxtofl@val,??___xxtofl
  1798   0021A2  C010  F014         	movff	___xxtofl@val+1,??___xxtofl+1
  1799   0021A6  C011  F015         	movff	___xxtofl@val+2,??___xxtofl+2
  1800   0021AA  C012  F016         	movff	___xxtofl@val+3,??___xxtofl+3
  1801   0021AE  1E13               	comf	??___xxtofl^0,f,c
  1802   0021B0  1E14               	comf	(??___xxtofl+1)^0,f,c
  1803   0021B2  1E15               	comf	(??___xxtofl+2)^0,f,c
  1804   0021B4  1E16               	comf	(??___xxtofl+3)^0,f,c
  1805   0021B6  2A13               	incf	??___xxtofl^0,f,c
  1806   0021B8  0E00               	movlw	0
  1807   0021BA  2214               	addwfc	(??___xxtofl+1)^0,f,c
  1808   0021BC  2215               	addwfc	(??___xxtofl+2)^0,f,c
  1809   0021BE  2216               	addwfc	(??___xxtofl+3)^0,f,c
  1810   0021C0  C013  F019         	movff	??___xxtofl,___xxtofl@arg
  1811   0021C4  C014  F01A         	movff	??___xxtofl+1,___xxtofl@arg+1
  1812   0021C8  C015  F01B         	movff	??___xxtofl+2,___xxtofl@arg+2
  1813   0021CC  C016  F01C         	movff	??___xxtofl+3,___xxtofl@arg+3
  1814   0021D0  EFF2  F010         	goto	l7493
  1815   0021D4                     l1986:
  1816   0021D4  C00F  F019         	movff	___xxtofl@val,___xxtofl@arg
  1817   0021D8  C010  F01A         	movff	___xxtofl@val+1,___xxtofl@arg+1
  1818   0021DC  C011  F01B         	movff	___xxtofl@val+2,___xxtofl@arg+2
  1819   0021E0  C012  F01C         	movff	___xxtofl@val+3,___xxtofl@arg+3
  1820   0021E4                     l7493:
  1821   0021E4  500F               	movf	___xxtofl@val^0,w,c
  1822   0021E6  1010               	iorwf	(___xxtofl@val+1)^0,w,c
  1823   0021E8  1011               	iorwf	(___xxtofl@val+2)^0,w,c
  1824   0021EA  1012               	iorwf	(___xxtofl@val+3)^0,w,c
  1825   0021EC  A4D8               	btfss	status,2,c
  1826   0021EE  EFFB  F010         	goto	u7461
  1827   0021F2  EFFD  F010         	goto	u7460
  1828   0021F6                     u7461:
  1829   0021F6  EF07  F011         	goto	l7499
  1830   0021FA                     u7460:
  1831   0021FA  0E00               	movlw	0
  1832   0021FC  6E0F               	movwf	?___xxtofl^0,c
  1833   0021FE  0E00               	movlw	0
  1834   002200  6E10               	movwf	(?___xxtofl+1)^0,c
  1835   002202  0E00               	movlw	0
  1836   002204  6E11               	movwf	(?___xxtofl+2)^0,c
  1837   002206  0E00               	movlw	0
  1838   002208  6E12               	movwf	(?___xxtofl+3)^0,c
  1839   00220A  EF98  F011         	goto	l1989
  1840   00220E                     l7499:
  1841   00220E  0E96               	movlw	150
  1842   002210  6E18               	movwf	___xxtofl@exp^0,c
  1843   002212  EF11  F011         	goto	l7503
  1844   002216                     l7501:
  1845   002216  2A18               	incf	___xxtofl@exp^0,f,c
  1846   002218  90D8               	bcf	status,0,c
  1847   00221A  321C               	rrcf	(___xxtofl@arg+3)^0,f,c
  1848   00221C  321B               	rrcf	(___xxtofl@arg+2)^0,f,c
  1849   00221E  321A               	rrcf	(___xxtofl@arg+1)^0,f,c
  1850   002220  3219               	rrcf	___xxtofl@arg^0,f,c
  1851   002222                     l7503:
  1852   002222  0E00               	movlw	0
  1853   002224  1419               	andwf	___xxtofl@arg^0,w,c
  1854   002226  6E13               	movwf	??___xxtofl^0,c
  1855   002228  0E00               	movlw	0
  1856   00222A  141A               	andwf	(___xxtofl@arg+1)^0,w,c
  1857   00222C  6E14               	movwf	(??___xxtofl+1)^0,c
  1858   00222E  0E00               	movlw	0
  1859   002230  141B               	andwf	(___xxtofl@arg+2)^0,w,c
  1860   002232  6E15               	movwf	(??___xxtofl+2)^0,c
  1861   002234  0EFE               	movlw	254
  1862   002236  141C               	andwf	(___xxtofl@arg+3)^0,w,c
  1863   002238  6E16               	movwf	(??___xxtofl+3)^0,c
  1864   00223A  5013               	movf	??___xxtofl^0,w,c
  1865   00223C  1014               	iorwf	(??___xxtofl+1)^0,w,c
  1866   00223E  1015               	iorwf	(??___xxtofl+2)^0,w,c
  1867   002240  1016               	iorwf	(??___xxtofl+3)^0,w,c
  1868   002242  A4D8               	btfss	status,2,c
  1869   002244  EF26  F011         	goto	u7471
  1870   002248  EF28  F011         	goto	u7470
  1871   00224C                     u7471:
  1872   00224C  EF0B  F011         	goto	l7501
  1873   002250                     u7470:
  1874   002250  EF36  F011         	goto	l1993
  1875   002254                     l7505:
  1876   002254  2A18               	incf	___xxtofl@exp^0,f,c
  1877   002256  0E01               	movlw	1
  1878   002258  2619               	addwf	___xxtofl@arg^0,f,c
  1879   00225A  0E00               	movlw	0
  1880   00225C  221A               	addwfc	(___xxtofl@arg+1)^0,f,c
  1881   00225E  221B               	addwfc	(___xxtofl@arg+2)^0,f,c
  1882   002260  221C               	addwfc	(___xxtofl@arg+3)^0,f,c
  1883   002262  90D8               	bcf	status,0,c
  1884   002264  321C               	rrcf	(___xxtofl@arg+3)^0,f,c
  1885   002266  321B               	rrcf	(___xxtofl@arg+2)^0,f,c
  1886   002268  321A               	rrcf	(___xxtofl@arg+1)^0,f,c
  1887   00226A  3219               	rrcf	___xxtofl@arg^0,f,c
  1888   00226C                     l1993:
  1889   00226C  0E00               	movlw	0
  1890   00226E  1419               	andwf	___xxtofl@arg^0,w,c
  1891   002270  6E13               	movwf	??___xxtofl^0,c
  1892   002272  0E00               	movlw	0
  1893   002274  141A               	andwf	(___xxtofl@arg+1)^0,w,c
  1894   002276  6E14               	movwf	(??___xxtofl+1)^0,c
  1895   002278  0E00               	movlw	0
  1896   00227A  141B               	andwf	(___xxtofl@arg+2)^0,w,c
  1897   00227C  6E15               	movwf	(??___xxtofl+2)^0,c
  1898   00227E  0EFF               	movlw	255
  1899   002280  141C               	andwf	(___xxtofl@arg+3)^0,w,c
  1900   002282  6E16               	movwf	(??___xxtofl+3)^0,c
  1901   002284  5013               	movf	??___xxtofl^0,w,c
  1902   002286  1014               	iorwf	(??___xxtofl+1)^0,w,c
  1903   002288  1015               	iorwf	(??___xxtofl+2)^0,w,c
  1904   00228A  1016               	iorwf	(??___xxtofl+3)^0,w,c
  1905   00228C  A4D8               	btfss	status,2,c
  1906   00228E  EF4B  F011         	goto	u7481
  1907   002292  EF4D  F011         	goto	u7480
  1908   002296                     u7481:
  1909   002296  EF2A  F011         	goto	l7505
  1910   00229A                     u7480:
  1911   00229A  EF55  F011         	goto	l7513
  1912   00229E                     l7511:
  1913   00229E  0618               	decf	___xxtofl@exp^0,f,c
  1914   0022A0  90D8               	bcf	status,0,c
  1915   0022A2  3619               	rlcf	___xxtofl@arg^0,f,c
  1916   0022A4  361A               	rlcf	(___xxtofl@arg+1)^0,f,c
  1917   0022A6  361B               	rlcf	(___xxtofl@arg+2)^0,f,c
  1918   0022A8  361C               	rlcf	(___xxtofl@arg+3)^0,f,c
  1919   0022AA                     l7513:
  1920   0022AA  BE1B               	btfsc	(___xxtofl@arg+2)^0,7,c
  1921   0022AC  EF5A  F011         	goto	u7491
  1922   0022B0  EF5C  F011         	goto	u7490
  1923   0022B4                     u7491:
  1924   0022B4  EF64  F011         	goto	l2000
  1925   0022B8                     u7490:
  1926   0022B8  0E02               	movlw	2
  1927   0022BA  6018               	cpfslt	___xxtofl@exp^0,c
  1928   0022BC  EF62  F011         	goto	u7501
  1929   0022C0  EF64  F011         	goto	u7500
  1930   0022C4                     u7501:
  1931   0022C4  EF4F  F011         	goto	l7511
  1932   0022C8                     u7500:
  1933   0022C8                     l2000:
  1934   0022C8  B018               	btfsc	___xxtofl@exp^0,0,c
  1935   0022CA  EF69  F011         	goto	u7511
  1936   0022CE  EF6B  F011         	goto	u7510
  1937   0022D2                     u7511:
  1938   0022D2  EF6C  F011         	goto	l7519
  1939   0022D6                     u7510:
  1940   0022D6  9E1B               	bcf	(___xxtofl@arg+2)^0,7,c
  1941   0022D8                     l7519:
  1942   0022D8  90D8               	bcf	status,0,c
  1943   0022DA  3218               	rrcf	___xxtofl@exp^0,f,c
  1944   0022DC  C018  F013         	movff	___xxtofl@exp,??___xxtofl
  1945   0022E0  6A14               	clrf	(??___xxtofl+1)^0,c
  1946   0022E2  6A15               	clrf	(??___xxtofl+2)^0,c
  1947   0022E4  6A16               	clrf	(??___xxtofl+3)^0,c
  1948   0022E6  C013  F016         	movff	??___xxtofl,??___xxtofl+3
  1949   0022EA  6A15               	clrf	(??___xxtofl+2)^0,c
  1950   0022EC  6A14               	clrf	(??___xxtofl+1)^0,c
  1951   0022EE  6A13               	clrf	??___xxtofl^0,c
  1952   0022F0  5013               	movf	??___xxtofl^0,w,c
  1953   0022F2  1219               	iorwf	___xxtofl@arg^0,f,c
  1954   0022F4  5014               	movf	(??___xxtofl+1)^0,w,c
  1955   0022F6  121A               	iorwf	(___xxtofl@arg+1)^0,f,c
  1956   0022F8  5015               	movf	(??___xxtofl+2)^0,w,c
  1957   0022FA  121B               	iorwf	(___xxtofl@arg+2)^0,f,c
  1958   0022FC  5016               	movf	(??___xxtofl+3)^0,w,c
  1959   0022FE  121C               	iorwf	(___xxtofl@arg+3)^0,f,c
  1960   002300  5017               	movf	___xxtofl@sign^0,w,c
  1961   002302  B4D8               	btfsc	status,2,c
  1962   002304  EF86  F011         	goto	u7521
  1963   002308  EF88  F011         	goto	u7520
  1964   00230C                     u7521:
  1965   00230C  EF90  F011         	goto	l7529
  1966   002310                     u7520:
  1967   002310  BE12               	btfsc	(___xxtofl@val+3)^0,7,c
  1968   002312  EF8F  F011         	goto	u7530
  1969   002316  EF8D  F011         	goto	u7531
  1970   00231A                     u7531:
  1971   00231A  EF90  F011         	goto	l7529
  1972   00231E                     u7530:
  1973   00231E  8E1C               	bsf	(___xxtofl@arg+3)^0,7,c
  1974   002320                     l7529:
  1975   002320  C019  F00F         	movff	___xxtofl@arg,?___xxtofl
  1976   002324  C01A  F010         	movff	___xxtofl@arg+1,?___xxtofl+1
  1977   002328  C01B  F011         	movff	___xxtofl@arg+2,?___xxtofl+2
  1978   00232C  C01C  F012         	movff	___xxtofl@arg+3,?___xxtofl+3
  1979   002330                     l1989:
  1980   002330  0012               	return		;funcret
  1981   002332                     __end_of___xxtofl:
  1982                           	callstack 0
  1983                           
  1984 ;; *************** function ___fltol *****************
  1985 ;; Defined at:
  1986 ;;		line 43 in file "E:\Program Files\Microchip\xc8\v2.41\pic\sources\c99\common\fltol.c"
  1987 ;; Parameters:    Size  Location     Type
  1988 ;;  f1              4   14[COMRAM] unsigned char 
  1989 ;; Auto vars:     Size  Location     Type
  1990 ;;  exp1            1   23[COMRAM] unsigned char 
  1991 ;;  sign1           1   22[COMRAM] unsigned char 
  1992 ;; Return value:  Size  Location     Type
  1993 ;;                  4   14[COMRAM] long 
  1994 ;; Registers used:
  1995 ;;		wreg, status,2, status,0
  1996 ;; Tracked objects:
  1997 ;;		On entry : 0/0
  1998 ;;		On exit  : 0/0
  1999 ;;		Unchanged: 0/0
  2000 ;; Data sizes:     COMRAM   BANK0   BANK1   BANK2   BANK3   BANK4   BANK5   BANK6   BANK7   BANK8   BANK9  BANK10  BANK1
      +1  BANK12  BANK13  BANK14  BANK15
  2001 ;;      Params:         4       0       0       0       0       0       0       0       0       0       0       0       
      +0       0       0       0       0
  2002 ;;      Locals:         2       0       0       0       0       0       0       0       0       0       0       0       
      +0       0       0       0       0
  2003 ;;      Temps:          4       0       0       0       0       0       0       0       0       0       0       0       
      +0       0       0       0       0
  2004 ;;      Totals:        10       0       0       0       0       0       0       0       0       0       0       0       
      +0       0       0       0       0
  2005 ;;Total ram usage:       10 bytes
  2006 ;; Hardware stack levels used: 1
  2007 ;; Hardware stack levels required when called: 5
  2008 ;; This function calls:
  2009 ;;		Nothing
  2010 ;; This function is called by:
  2011 ;;		_buadrate_calculation
  2012 ;;		_ccp2_int
  2013 ;;		_ccp2_pwm_set_duty
  2014 ;; This function uses a non-reentrant model
  2015 ;;
  2016                           
  2017                           	psect	text6
  2018   002332                     __ptext6:
  2019                           	callstack 0
  2020   002332                     ___fltol:
  2021                           	callstack 23
  2022   002332  3411               	rlcf	(___fltol@f1+2)^0,w,c
  2023   002334  3412               	rlcf	(___fltol@f1+3)^0,w,c
  2024   002336  6E18               	movwf	___fltol@exp1^0,c
  2025   002338  5018               	movf	___fltol@exp1^0,w,c
  2026   00233A  A4D8               	btfss	status,2,c
  2027   00233C  EFA2  F011         	goto	u7371
  2028   002340  EFA4  F011         	goto	u7370
  2029   002344                     u7371:
  2030   002344  EFAE  F011         	goto	l7449
  2031   002348                     u7370:
  2032   002348                     l7445:
  2033   002348  0E00               	movlw	0
  2034   00234A  6E0F               	movwf	?___fltol^0,c
  2035   00234C  0E00               	movlw	0
  2036   00234E  6E10               	movwf	(?___fltol+1)^0,c
  2037   002350  0E00               	movlw	0
  2038   002352  6E11               	movwf	(?___fltol+2)^0,c
  2039   002354  0E00               	movlw	0
  2040   002356  6E12               	movwf	(?___fltol+3)^0,c
  2041   002358  EF1B  F012         	goto	l1628
  2042   00235C                     l7449:
  2043   00235C  C00F  F013         	movff	___fltol@f1,??___fltol
  2044   002360  C010  F014         	movff	___fltol@f1+1,??___fltol+1
  2045   002364  C011  F015         	movff	___fltol@f1+2,??___fltol+2
  2046   002368  C012  F016         	movff	___fltol@f1+3,??___fltol+3
  2047   00236C  0E20               	movlw	32
  2048   00236E  EFBE  F011         	goto	u7380
  2049   002372                     u7385:
  2050   002372  90D8               	bcf	status,0,c
  2051   002374  3216               	rrcf	(??___fltol+3)^0,f,c
  2052   002376  3215               	rrcf	(??___fltol+2)^0,f,c
  2053   002378  3214               	rrcf	(??___fltol+1)^0,f,c
  2054   00237A  3213               	rrcf	??___fltol^0,f,c
  2055   00237C                     u7380:
  2056   00237C  2EE8               	decfsz	wreg,f,c
  2057   00237E  EFB9  F011         	goto	u7385
  2058   002382  5013               	movf	??___fltol^0,w,c
  2059   002384  6E17               	movwf	___fltol@sign1^0,c
  2060   002386  8E11               	bsf	(___fltol@f1+2)^0,7,c
  2061   002388  0EFF               	movlw	255
  2062   00238A  160F               	andwf	___fltol@f1^0,f,c
  2063   00238C  0EFF               	movlw	255
  2064   00238E  1610               	andwf	(___fltol@f1+1)^0,f,c
  2065   002390  0EFF               	movlw	255
  2066   002392  1611               	andwf	(___fltol@f1+2)^0,f,c
  2067   002394  0E00               	movlw	0
  2068   002396  1612               	andwf	(___fltol@f1+3)^0,f,c
  2069   002398  0E96               	movlw	150
  2070   00239A  5E18               	subwf	___fltol@exp1^0,f,c
  2071   00239C  BE18               	btfsc	___fltol@exp1^0,7,c
  2072   00239E  EFD5  F011         	goto	u7390
  2073   0023A2  EFD3  F011         	goto	u7391
  2074   0023A6                     u7391:
  2075   0023A6  EFEB  F011         	goto	l7469
  2076   0023AA                     u7390:
  2077   0023AA  5018               	movf	___fltol@exp1^0,w,c
  2078   0023AC  0A80               	xorlw	128
  2079   0023AE  0F97               	addlw	151
  2080   0023B0  B0D8               	btfsc	status,0,c
  2081   0023B2  EFDD  F011         	goto	u7401
  2082   0023B6  EFDF  F011         	goto	u7400
  2083   0023BA                     u7401:
  2084   0023BA  EFE1  F011         	goto	l7465
  2085   0023BE                     u7400:
  2086   0023BE  EFA4  F011         	goto	l7445
  2087   0023C2                     l7465:
  2088   0023C2  90D8               	bcf	status,0,c
  2089   0023C4  3212               	rrcf	(___fltol@f1+3)^0,f,c
  2090   0023C6  3211               	rrcf	(___fltol@f1+2)^0,f,c
  2091   0023C8  3210               	rrcf	(___fltol@f1+1)^0,f,c
  2092   0023CA  320F               	rrcf	___fltol@f1^0,f,c
  2093   0023CC  3E18               	incfsz	___fltol@exp1^0,f,c
  2094   0023CE  EFE1  F011         	goto	l7465
  2095   0023D2  EF03  F012         	goto	l7479
  2096   0023D6                     l7469:
  2097   0023D6  0E1F               	movlw	31
  2098   0023D8  6418               	cpfsgt	___fltol@exp1^0,c
  2099   0023DA  EFF1  F011         	goto	u7411
  2100   0023DE  EFF3  F011         	goto	u7410
  2101   0023E2                     u7411:
  2102   0023E2  EFFB  F011         	goto	l7477
  2103   0023E6                     u7410:
  2104   0023E6  EFA4  F011         	goto	l7445
  2105   0023EA                     l7475:
  2106   0023EA  90D8               	bcf	status,0,c
  2107   0023EC  360F               	rlcf	___fltol@f1^0,f,c
  2108   0023EE  3610               	rlcf	(___fltol@f1+1)^0,f,c
  2109   0023F0  3611               	rlcf	(___fltol@f1+2)^0,f,c
  2110   0023F2  3612               	rlcf	(___fltol@f1+3)^0,f,c
  2111   0023F4  0618               	decf	___fltol@exp1^0,f,c
  2112   0023F6                     l7477:
  2113   0023F6  5018               	movf	___fltol@exp1^0,w,c
  2114   0023F8  A4D8               	btfss	status,2,c
  2115   0023FA  EF01  F012         	goto	u7421
  2116   0023FE  EF03  F012         	goto	u7420
  2117   002402                     u7421:
  2118   002402  EFF5  F011         	goto	l7475
  2119   002406                     u7420:
  2120   002406                     l7479:
  2121   002406  5017               	movf	___fltol@sign1^0,w,c
  2122   002408  B4D8               	btfsc	status,2,c
  2123   00240A  EF09  F012         	goto	u7431
  2124   00240E  EF0B  F012         	goto	u7430
  2125   002412                     u7431:
  2126   002412  EF13  F012         	goto	l7483
  2127   002416                     u7430:
  2128   002416  1E12               	comf	(___fltol@f1+3)^0,f,c
  2129   002418  1E11               	comf	(___fltol@f1+2)^0,f,c
  2130   00241A  1E10               	comf	(___fltol@f1+1)^0,f,c
  2131   00241C  6C0F               	negf	___fltol@f1^0,c
  2132   00241E  0E00               	movlw	0
  2133   002420  2210               	addwfc	(___fltol@f1+1)^0,f,c
  2134   002422  2211               	addwfc	(___fltol@f1+2)^0,f,c
  2135   002424  2212               	addwfc	(___fltol@f1+3)^0,f,c
  2136   002426                     l7483:
  2137   002426  C00F  F00F         	movff	___fltol@f1,?___fltol
  2138   00242A  C010  F010         	movff	___fltol@f1+1,?___fltol+1
  2139   00242E  C011  F011         	movff	___fltol@f1+2,?___fltol+2
  2140   002432  C012  F012         	movff	___fltol@f1+3,?___fltol+3
  2141   002436                     l1628:
  2142   002436  0012               	return		;funcret
  2143   002438                     __end_of___fltol:
  2144                           	callstack 0
  2145                           
  2146 ;; *************** function ___fldiv *****************
  2147 ;; Defined at:
  2148 ;;		line 11 in file "E:\Program Files\Microchip\xc8\v2.41\pic\sources\c99\common\sprcdiv.c"
  2149 ;; Parameters:    Size  Location     Type
  2150 ;;  b               4   28[COMRAM] long 
  2151 ;;  a               4   32[COMRAM] long 
  2152 ;; Auto vars:     Size  Location     Type
  2153 ;;  grs             4   47[COMRAM] unsigned long 
  2154 ;;  rem             4   40[COMRAM] unsigned long 
  2155 ;;  new_exp         2   45[COMRAM] short 
  2156 ;;  aexp            1   52[COMRAM] unsigned char 
  2157 ;;  bexp            1   51[COMRAM] unsigned char 
  2158 ;;  sign            1   44[COMRAM] unsigned char 
  2159 ;; Return value:  Size  Location     Type
  2160 ;;                  4   28[COMRAM] unsigned char 
  2161 ;; Registers used:
  2162 ;;		wreg, status,2, status,0
  2163 ;; Tracked objects:
  2164 ;;		On entry : 0/0
  2165 ;;		On exit  : 0/0
  2166 ;;		Unchanged: 0/0
  2167 ;; Data sizes:     COMRAM   BANK0   BANK1   BANK2   BANK3   BANK4   BANK5   BANK6   BANK7   BANK8   BANK9  BANK10  BANK1
      +1  BANK12  BANK13  BANK14  BANK15
  2168 ;;      Params:         8       0       0       0       0       0       0       0       0       0       0       0       
      +0       0       0       0       0
  2169 ;;      Locals:        13       0       0       0       0       0       0       0       0       0       0       0       
      +0       0       0       0       0
  2170 ;;      Temps:          4       0       0       0       0       0       0       0       0       0       0       0       
      +0       0       0       0       0
  2171 ;;      Totals:        25       0       0       0       0       0       0       0       0       0       0       0       
      +0       0       0       0       0
  2172 ;;Total ram usage:       25 bytes
  2173 ;; Hardware stack levels used: 1
  2174 ;; Hardware stack levels required when called: 5
  2175 ;; This function calls:
  2176 ;;		Nothing
  2177 ;; This function is called by:
  2178 ;;		_buadrate_calculation
  2179 ;;		_ccp2_int
  2180 ;;		_ccp2_pwm_set_duty
  2181 ;; This function uses a non-reentrant model
  2182 ;;
  2183                           
  2184                           	psect	text7
  2185   001DE4                     __ptext7:
  2186                           	callstack 0
  2187   001DE4                     ___fldiv:
  2188                           	callstack 23
  2189   001DE4  5020               	movf	(___fldiv@b+3)^0,w,c
  2190   001DE6  0B80               	andlw	128
  2191   001DE8  6E2D               	movwf	___fldiv@sign^0,c
  2192   001DEA  5020               	movf	(___fldiv@b+3)^0,w,c
  2193   001DEC  2420               	addwf	(___fldiv@b+3)^0,w,c
  2194   001DEE  6E34               	movwf	___fldiv@bexp^0,c
  2195   001DF0  AE1F               	btfss	(___fldiv@b+2)^0,7,c
  2196   001DF2  EFFD  F00E         	goto	u7141
  2197   001DF6  EFFF  F00E         	goto	u7140
  2198   001DFA                     u7141:
  2199   001DFA  EF00  F00F         	goto	l7311
  2200   001DFE                     u7140:
  2201   001DFE  8034               	bsf	___fldiv@bexp^0,0,c
  2202   001E00                     l7311:
  2203   001E00  5034               	movf	___fldiv@bexp^0,w,c
  2204   001E02  B4D8               	btfsc	status,2,c
  2205   001E04  EF06  F00F         	goto	u7151
  2206   001E08  EF08  F00F         	goto	u7150
  2207   001E0C                     u7151:
  2208   001E0C  EF1D  F00F         	goto	l7321
  2209   001E10                     u7150:
  2210   001E10  2834               	incf	___fldiv@bexp^0,w,c
  2211   001E12  A4D8               	btfss	status,2,c
  2212   001E14  EF0E  F00F         	goto	u7161
  2213   001E18  EF10  F00F         	goto	u7160
  2214   001E1C                     u7161:
  2215   001E1C  EF18  F00F         	goto	l7317
  2216   001E20                     u7160:
  2217   001E20  0E00               	movlw	0
  2218   001E22  6E1D               	movwf	___fldiv@b^0,c
  2219   001E24  0E00               	movlw	0
  2220   001E26  6E1E               	movwf	(___fldiv@b+1)^0,c
  2221   001E28  0E00               	movlw	0
  2222   001E2A  6E1F               	movwf	(___fldiv@b+2)^0,c
  2223   001E2C  0E00               	movlw	0
  2224   001E2E  6E20               	movwf	(___fldiv@b+3)^0,c
  2225   001E30                     l7317:
  2226   001E30  8E1F               	bsf	(___fldiv@b+2)^0,7,c
  2227   001E32  0E00               	movlw	0
  2228   001E34  6E20               	movwf	(___fldiv@b+3)^0,c
  2229   001E36  EF25  F00F         	goto	l7323
  2230   001E3A                     l7321:
  2231   001E3A  0E00               	movlw	0
  2232   001E3C  6E1D               	movwf	___fldiv@b^0,c
  2233   001E3E  0E00               	movlw	0
  2234   001E40  6E1E               	movwf	(___fldiv@b+1)^0,c
  2235   001E42  0E00               	movlw	0
  2236   001E44  6E1F               	movwf	(___fldiv@b+2)^0,c
  2237   001E46  0E00               	movlw	0
  2238   001E48  6E20               	movwf	(___fldiv@b+3)^0,c
  2239   001E4A                     l7323:
  2240   001E4A  5024               	movf	(___fldiv@a+3)^0,w,c
  2241   001E4C  0B80               	andlw	128
  2242   001E4E  1A2D               	xorwf	___fldiv@sign^0,f,c
  2243   001E50  5024               	movf	(___fldiv@a+3)^0,w,c
  2244   001E52  2424               	addwf	(___fldiv@a+3)^0,w,c
  2245   001E54  6E35               	movwf	___fldiv@aexp^0,c
  2246   001E56  AE23               	btfss	(___fldiv@a+2)^0,7,c
  2247   001E58  EF30  F00F         	goto	u7171
  2248   001E5C  EF32  F00F         	goto	u7170
  2249   001E60                     u7171:
  2250   001E60  EF33  F00F         	goto	l7331
  2251   001E64                     u7170:
  2252   001E64  8035               	bsf	___fldiv@aexp^0,0,c
  2253   001E66                     l7331:
  2254   001E66  5035               	movf	___fldiv@aexp^0,w,c
  2255   001E68  B4D8               	btfsc	status,2,c
  2256   001E6A  EF39  F00F         	goto	u7181
  2257   001E6E  EF3B  F00F         	goto	u7180
  2258   001E72                     u7181:
  2259   001E72  EF50  F00F         	goto	l7341
  2260   001E76                     u7180:
  2261   001E76  2835               	incf	___fldiv@aexp^0,w,c
  2262   001E78  A4D8               	btfss	status,2,c
  2263   001E7A  EF41  F00F         	goto	u7191
  2264   001E7E  EF43  F00F         	goto	u7190
  2265   001E82                     u7191:
  2266   001E82  EF4B  F00F         	goto	l7337
  2267   001E86                     u7190:
  2268   001E86  0E00               	movlw	0
  2269   001E88  6E21               	movwf	___fldiv@a^0,c
  2270   001E8A  0E00               	movlw	0
  2271   001E8C  6E22               	movwf	(___fldiv@a+1)^0,c
  2272   001E8E  0E00               	movlw	0
  2273   001E90  6E23               	movwf	(___fldiv@a+2)^0,c
  2274   001E92  0E00               	movlw	0
  2275   001E94  6E24               	movwf	(___fldiv@a+3)^0,c
  2276   001E96                     l7337:
  2277   001E96  8E23               	bsf	(___fldiv@a+2)^0,7,c
  2278   001E98  0E00               	movlw	0
  2279   001E9A  6E24               	movwf	(___fldiv@a+3)^0,c
  2280   001E9C  EF58  F00F         	goto	l7343
  2281   001EA0                     l7341:
  2282   001EA0  0E00               	movlw	0
  2283   001EA2  6E21               	movwf	___fldiv@a^0,c
  2284   001EA4  0E00               	movlw	0
  2285   001EA6  6E22               	movwf	(___fldiv@a+1)^0,c
  2286   001EA8  0E00               	movlw	0
  2287   001EAA  6E23               	movwf	(___fldiv@a+2)^0,c
  2288   001EAC  0E00               	movlw	0
  2289   001EAE  6E24               	movwf	(___fldiv@a+3)^0,c
  2290   001EB0                     l7343:
  2291   001EB0  5021               	movf	___fldiv@a^0,w,c
  2292   001EB2  1022               	iorwf	(___fldiv@a+1)^0,w,c
  2293   001EB4  1023               	iorwf	(___fldiv@a+2)^0,w,c
  2294   001EB6  1024               	iorwf	(___fldiv@a+3)^0,w,c
  2295   001EB8  A4D8               	btfss	status,2,c
  2296   001EBA  EF61  F00F         	goto	u7201
  2297   001EBE  EF63  F00F         	goto	u7200
  2298   001EC2                     u7201:
  2299   001EC2  EF7B  F00F         	goto	l7355
  2300   001EC6                     u7200:
  2301   001EC6  0E00               	movlw	0
  2302   001EC8  6E1D               	movwf	___fldiv@b^0,c
  2303   001ECA  0E00               	movlw	0
  2304   001ECC  6E1E               	movwf	(___fldiv@b+1)^0,c
  2305   001ECE  0E00               	movlw	0
  2306   001ED0  6E1F               	movwf	(___fldiv@b+2)^0,c
  2307   001ED2  0E00               	movlw	0
  2308   001ED4  6E20               	movwf	(___fldiv@b+3)^0,c
  2309   001ED6  0E80               	movlw	128
  2310   001ED8  121F               	iorwf	(___fldiv@b+2)^0,f,c
  2311   001EDA  0E7F               	movlw	127
  2312   001EDC  1220               	iorwf	(___fldiv@b+3)^0,f,c
  2313   001EDE                     l7349:
  2314   001EDE  502D               	movf	___fldiv@sign^0,w,c
  2315   001EE0  1220               	iorwf	(___fldiv@b+3)^0,f,c
  2316   001EE2  C01D  F01D         	movff	___fldiv@b,?___fldiv
  2317   001EE6  C01E  F01E         	movff	___fldiv@b+1,?___fldiv+1
  2318   001EEA  C01F  F01F         	movff	___fldiv@b+2,?___fldiv+2
  2319   001EEE  C020  F020         	movff	___fldiv@b+3,?___fldiv+3
  2320   001EF2  EFBE  F010         	goto	l1913
  2321   001EF6                     l7355:
  2322   001EF6  5034               	movf	___fldiv@bexp^0,w,c
  2323   001EF8  A4D8               	btfss	status,2,c
  2324   001EFA  EF81  F00F         	goto	u7211
  2325   001EFE  EF83  F00F         	goto	u7210
  2326   001F02                     u7211:
  2327   001F02  EF8D  F00F         	goto	l7363
  2328   001F06                     u7210:
  2329   001F06  0E00               	movlw	0
  2330   001F08  6E1D               	movwf	?___fldiv^0,c
  2331   001F0A  0E00               	movlw	0
  2332   001F0C  6E1E               	movwf	(?___fldiv+1)^0,c
  2333   001F0E  0E00               	movlw	0
  2334   001F10  6E1F               	movwf	(?___fldiv+2)^0,c
  2335   001F12  0E00               	movlw	0
  2336   001F14  6E20               	movwf	(?___fldiv+3)^0,c
  2337   001F16  EFBE  F010         	goto	l1913
  2338   001F1A                     l7363:
  2339   001F1A  5035               	movf	___fldiv@aexp^0,w,c
  2340   001F1C  C034  F025         	movff	___fldiv@bexp,??___fldiv
  2341   001F20  6A26               	clrf	(??___fldiv+1)^0,c
  2342   001F22  5E25               	subwf	??___fldiv^0,f,c
  2343   001F24  0E00               	movlw	0
  2344   001F26  5A26               	subwfb	(??___fldiv+1)^0,f,c
  2345   001F28  0E7F               	movlw	127
  2346   001F2A  2425               	addwf	??___fldiv^0,w,c
  2347   001F2C  6E2E               	movwf	___fldiv@new_exp^0,c
  2348   001F2E  0E00               	movlw	0
  2349   001F30  2026               	addwfc	(??___fldiv+1)^0,w,c
  2350   001F32  6E2F               	movwf	(___fldiv@new_exp+1)^0,c
  2351   001F34  C01D  F029         	movff	___fldiv@b,___fldiv@rem
  2352   001F38  C01E  F02A         	movff	___fldiv@b+1,___fldiv@rem+1
  2353   001F3C  C01F  F02B         	movff	___fldiv@b+2,___fldiv@rem+2
  2354   001F40  C020  F02C         	movff	___fldiv@b+3,___fldiv@rem+3
  2355   001F44  0E00               	movlw	0
  2356   001F46  6E1D               	movwf	___fldiv@b^0,c
  2357   001F48  0E00               	movlw	0
  2358   001F4A  6E1E               	movwf	(___fldiv@b+1)^0,c
  2359   001F4C  0E00               	movlw	0
  2360   001F4E  6E1F               	movwf	(___fldiv@b+2)^0,c
  2361   001F50  0E00               	movlw	0
  2362   001F52  6E20               	movwf	(___fldiv@b+3)^0,c
  2363   001F54  0E00               	movlw	0
  2364   001F56  6E30               	movwf	___fldiv@grs^0,c
  2365   001F58  0E00               	movlw	0
  2366   001F5A  6E31               	movwf	(___fldiv@grs+1)^0,c
  2367   001F5C  0E00               	movlw	0
  2368   001F5E  6E32               	movwf	(___fldiv@grs+2)^0,c
  2369   001F60  0E00               	movlw	0
  2370   001F62  6E33               	movwf	(___fldiv@grs+3)^0,c
  2371   001F64  0E00               	movlw	0
  2372   001F66  6E35               	movwf	___fldiv@aexp^0,c
  2373   001F68  EFEE  F00F         	goto	l1915
  2374   001F6C                     l7373:
  2375   001F6C  5035               	movf	___fldiv@aexp^0,w,c
  2376   001F6E  B4D8               	btfsc	status,2,c
  2377   001F70  EFBC  F00F         	goto	u7221
  2378   001F74  EFBE  F00F         	goto	u7220
  2379   001F78                     u7221:
  2380   001F78  EFD5  F00F         	goto	l7381
  2381   001F7C                     u7220:
  2382   001F7C  90D8               	bcf	status,0,c
  2383   001F7E  3629               	rlcf	___fldiv@rem^0,f,c
  2384   001F80  362A               	rlcf	(___fldiv@rem+1)^0,f,c
  2385   001F82  362B               	rlcf	(___fldiv@rem+2)^0,f,c
  2386   001F84  362C               	rlcf	(___fldiv@rem+3)^0,f,c
  2387   001F86  90D8               	bcf	status,0,c
  2388   001F88  361D               	rlcf	___fldiv@b^0,f,c
  2389   001F8A  361E               	rlcf	(___fldiv@b+1)^0,f,c
  2390   001F8C  361F               	rlcf	(___fldiv@b+2)^0,f,c
  2391   001F8E  3620               	rlcf	(___fldiv@b+3)^0,f,c
  2392   001F90  AE33               	btfss	(___fldiv@grs+3)^0,7,c
  2393   001F92  EFCD  F00F         	goto	u7231
  2394   001F96  EFCF  F00F         	goto	u7230
  2395   001F9A                     u7231:
  2396   001F9A  EFD0  F00F         	goto	l1918
  2397   001F9E                     u7230:
  2398   001F9E  801D               	bsf	___fldiv@b^0,0,c
  2399   001FA0                     l1918:
  2400   001FA0  90D8               	bcf	status,0,c
  2401   001FA2  3630               	rlcf	___fldiv@grs^0,f,c
  2402   001FA4  3631               	rlcf	(___fldiv@grs+1)^0,f,c
  2403   001FA6  3632               	rlcf	(___fldiv@grs+2)^0,f,c
  2404   001FA8  3633               	rlcf	(___fldiv@grs+3)^0,f,c
  2405   001FAA                     l7381:
  2406   001FAA  5021               	movf	___fldiv@a^0,w,c
  2407   001FAC  5C29               	subwf	___fldiv@rem^0,w,c
  2408   001FAE  5022               	movf	(___fldiv@a+1)^0,w,c
  2409   001FB0  582A               	subwfb	(___fldiv@rem+1)^0,w,c
  2410   001FB2  5023               	movf	(___fldiv@a+2)^0,w,c
  2411   001FB4  582B               	subwfb	(___fldiv@rem+2)^0,w,c
  2412   001FB6  5024               	movf	(___fldiv@a+3)^0,w,c
  2413   001FB8  582C               	subwfb	(___fldiv@rem+3)^0,w,c
  2414   001FBA  A0D8               	btfss	status,0,c
  2415   001FBC  EFE2  F00F         	goto	u7241
  2416   001FC0  EFE4  F00F         	goto	u7240
  2417   001FC4                     u7241:
  2418   001FC4  EFED  F00F         	goto	l7387
  2419   001FC8                     u7240:
  2420   001FC8  8C33               	bsf	(___fldiv@grs+3)^0,6,c
  2421   001FCA  5021               	movf	___fldiv@a^0,w,c
  2422   001FCC  5E29               	subwf	___fldiv@rem^0,f,c
  2423   001FCE  5022               	movf	(___fldiv@a+1)^0,w,c
  2424   001FD0  5A2A               	subwfb	(___fldiv@rem+1)^0,f,c
  2425   001FD2  5023               	movf	(___fldiv@a+2)^0,w,c
  2426   001FD4  5A2B               	subwfb	(___fldiv@rem+2)^0,f,c
  2427   001FD6  5024               	movf	(___fldiv@a+3)^0,w,c
  2428   001FD8  5A2C               	subwfb	(___fldiv@rem+3)^0,f,c
  2429   001FDA                     l7387:
  2430   001FDA  2A35               	incf	___fldiv@aexp^0,f,c
  2431   001FDC                     l1915:
  2432   001FDC  0E19               	movlw	25
  2433   001FDE  6435               	cpfsgt	___fldiv@aexp^0,c
  2434   001FE0  EFF4  F00F         	goto	u7251
  2435   001FE4  EFF6  F00F         	goto	u7250
  2436   001FE8                     u7251:
  2437   001FE8  EFB6  F00F         	goto	l7373
  2438   001FEC                     u7250:
  2439   001FEC  5029               	movf	___fldiv@rem^0,w,c
  2440   001FEE  102A               	iorwf	(___fldiv@rem+1)^0,w,c
  2441   001FF0  102B               	iorwf	(___fldiv@rem+2)^0,w,c
  2442   001FF2  102C               	iorwf	(___fldiv@rem+3)^0,w,c
  2443   001FF4  B4D8               	btfsc	status,2,c
  2444   001FF6  EFFF  F00F         	goto	u7261
  2445   001FFA  EF01  F010         	goto	u7260
  2446   001FFE                     u7261:
  2447   001FFE  EF19  F010         	goto	l7399
  2448   002002                     u7260:
  2449   002002  8030               	bsf	___fldiv@grs^0,0,c
  2450   002004  EF19  F010         	goto	l7399
  2451   002008                     l7393:
  2452   002008  90D8               	bcf	status,0,c
  2453   00200A  361D               	rlcf	___fldiv@b^0,f,c
  2454   00200C  361E               	rlcf	(___fldiv@b+1)^0,f,c
  2455   00200E  361F               	rlcf	(___fldiv@b+2)^0,f,c
  2456   002010  3620               	rlcf	(___fldiv@b+3)^0,f,c
  2457   002012  AE33               	btfss	(___fldiv@grs+3)^0,7,c
  2458   002014  EF0E  F010         	goto	u7271
  2459   002018  EF10  F010         	goto	u7270
  2460   00201C                     u7271:
  2461   00201C  EF11  F010         	goto	l1924
  2462   002020                     u7270:
  2463   002020  801D               	bsf	___fldiv@b^0,0,c
  2464   002022                     l1924:
  2465   002022  90D8               	bcf	status,0,c
  2466   002024  3630               	rlcf	___fldiv@grs^0,f,c
  2467   002026  3631               	rlcf	(___fldiv@grs+1)^0,f,c
  2468   002028  3632               	rlcf	(___fldiv@grs+2)^0,f,c
  2469   00202A  3633               	rlcf	(___fldiv@grs+3)^0,f,c
  2470   00202C  062E               	decf	___fldiv@new_exp^0,f,c
  2471   00202E  A0D8               	btfss	status,0,c
  2472   002030  062F               	decf	(___fldiv@new_exp+1)^0,f,c
  2473   002032                     l7399:
  2474   002032  AE1F               	btfss	(___fldiv@b+2)^0,7,c
  2475   002034  EF1E  F010         	goto	u7281
  2476   002038  EF20  F010         	goto	u7280
  2477   00203C                     u7281:
  2478   00203C  EF04  F010         	goto	l7393
  2479   002040                     u7280:
  2480   002040  0E00               	movlw	0
  2481   002042  6E35               	movwf	___fldiv@aexp^0,c
  2482   002044  AE33               	btfss	(___fldiv@grs+3)^0,7,c
  2483   002046  EF27  F010         	goto	u7291
  2484   00204A  EF29  F010         	goto	u7290
  2485   00204E                     u7291:
  2486   00204E  EF4D  F010         	goto	l1926
  2487   002052                     u7290:
  2488   002052  0EFF               	movlw	255
  2489   002054  1430               	andwf	___fldiv@grs^0,w,c
  2490   002056  6E25               	movwf	??___fldiv^0,c
  2491   002058  0EFF               	movlw	255
  2492   00205A  1431               	andwf	(___fldiv@grs+1)^0,w,c
  2493   00205C  6E26               	movwf	(??___fldiv+1)^0,c
  2494   00205E  0EFF               	movlw	255
  2495   002060  1432               	andwf	(___fldiv@grs+2)^0,w,c
  2496   002062  6E27               	movwf	(??___fldiv+2)^0,c
  2497   002064  0E7F               	movlw	127
  2498   002066  1433               	andwf	(___fldiv@grs+3)^0,w,c
  2499   002068  6E28               	movwf	(??___fldiv+3)^0,c
  2500   00206A  5025               	movf	??___fldiv^0,w,c
  2501   00206C  1026               	iorwf	(??___fldiv+1)^0,w,c
  2502   00206E  1027               	iorwf	(??___fldiv+2)^0,w,c
  2503   002070  1028               	iorwf	(??___fldiv+3)^0,w,c
  2504   002072  B4D8               	btfsc	status,2,c
  2505   002074  EF3E  F010         	goto	u7301
  2506   002078  EF40  F010         	goto	u7300
  2507   00207C                     u7301:
  2508   00207C  EF44  F010         	goto	l1927
  2509   002080                     u7300:
  2510   002080                     l7407:
  2511   002080  0E01               	movlw	1
  2512   002082  6E35               	movwf	___fldiv@aexp^0,c
  2513   002084  EF4D  F010         	goto	l1926
  2514   002088                     l1927:
  2515   002088  A01D               	btfss	___fldiv@b^0,0,c
  2516   00208A  EF49  F010         	goto	u7311
  2517   00208E  EF4B  F010         	goto	u7310
  2518   002092                     u7311:
  2519   002092  EF4D  F010         	goto	l1926
  2520   002096                     u7310:
  2521   002096  EF40  F010         	goto	l7407
  2522   00209A                     l1926:
  2523   00209A  5035               	movf	___fldiv@aexp^0,w,c
  2524   00209C  B4D8               	btfsc	status,2,c
  2525   00209E  EF53  F010         	goto	u7321
  2526   0020A2  EF55  F010         	goto	u7320
  2527   0020A6                     u7321:
  2528   0020A6  EF79  F010         	goto	l7419
  2529   0020AA                     u7320:
  2530   0020AA  0E01               	movlw	1
  2531   0020AC  261D               	addwf	___fldiv@b^0,f,c
  2532   0020AE  0E00               	movlw	0
  2533   0020B0  221E               	addwfc	(___fldiv@b+1)^0,f,c
  2534   0020B2  221F               	addwfc	(___fldiv@b+2)^0,f,c
  2535   0020B4  2220               	addwfc	(___fldiv@b+3)^0,f,c
  2536   0020B6  A020               	btfss	(___fldiv@b+3)^0,0,c
  2537   0020B8  EF60  F010         	goto	u7331
  2538   0020BC  EF62  F010         	goto	u7330
  2539   0020C0                     u7331:
  2540   0020C0  EF79  F010         	goto	l7419
  2541   0020C4                     u7330:
  2542   0020C4  C01D  F025         	movff	___fldiv@b,??___fldiv
  2543   0020C8  C01E  F026         	movff	___fldiv@b+1,??___fldiv+1
  2544   0020CC  C01F  F027         	movff	___fldiv@b+2,??___fldiv+2
  2545   0020D0  C020  F028         	movff	___fldiv@b+3,??___fldiv+3
  2546   0020D4  3428               	rlcf	(??___fldiv+3)^0,w,c
  2547   0020D6  3228               	rrcf	(??___fldiv+3)^0,f,c
  2548   0020D8  3227               	rrcf	(??___fldiv+2)^0,f,c
  2549   0020DA  3226               	rrcf	(??___fldiv+1)^0,f,c
  2550   0020DC  3225               	rrcf	??___fldiv^0,f,c
  2551   0020DE  C025  F01D         	movff	??___fldiv,___fldiv@b
  2552   0020E2  C026  F01E         	movff	??___fldiv+1,___fldiv@b+1
  2553   0020E6  C027  F01F         	movff	??___fldiv+2,___fldiv@b+2
  2554   0020EA  C028  F020         	movff	??___fldiv+3,___fldiv@b+3
  2555   0020EE  4A2E               	infsnz	___fldiv@new_exp^0,f,c
  2556   0020F0  2A2F               	incf	(___fldiv@new_exp+1)^0,f,c
  2557   0020F2                     l7419:
  2558   0020F2  BE2F               	btfsc	(___fldiv@new_exp+1)^0,7,c
  2559   0020F4  EF84  F010         	goto	u7341
  2560   0020F8  502F               	movf	(___fldiv@new_exp+1)^0,w,c
  2561   0020FA  E108               	bnz	u7340
  2562   0020FC  282E               	incf	___fldiv@new_exp^0,w,c
  2563   0020FE  A0D8               	btfss	status,0,c
  2564   002100  EF84  F010         	goto	u7341
  2565   002104  EF86  F010         	goto	u7340
  2566   002108                     u7341:
  2567   002108  EF91  F010         	goto	l7423
  2568   00210C                     u7340:
  2569   00210C  0E00               	movlw	0
  2570   00210E  6E2F               	movwf	(___fldiv@new_exp+1)^0,c
  2571   002110  682E               	setf	___fldiv@new_exp^0,c
  2572   002112  0E00               	movlw	0
  2573   002114  6E1D               	movwf	___fldiv@b^0,c
  2574   002116  0E00               	movlw	0
  2575   002118  6E1E               	movwf	(___fldiv@b+1)^0,c
  2576   00211A  0E00               	movlw	0
  2577   00211C  6E1F               	movwf	(___fldiv@b+2)^0,c
  2578   00211E  0E00               	movlw	0
  2579   002120  6E20               	movwf	(___fldiv@b+3)^0,c
  2580   002122                     l7423:
  2581   002122  BE2F               	btfsc	(___fldiv@new_exp+1)^0,7,c
  2582   002124  EF9E  F010         	goto	u7350
  2583   002128  502F               	movf	(___fldiv@new_exp+1)^0,w,c
  2584   00212A  E106               	bnz	u7351
  2585   00212C  042E               	decf	___fldiv@new_exp^0,w,c
  2586   00212E  B0D8               	btfsc	status,0,c
  2587   002130  EF9C  F010         	goto	u7351
  2588   002134  EF9E  F010         	goto	u7350
  2589   002138                     u7351:
  2590   002138  EFAC  F010         	goto	l7427
  2591   00213C                     u7350:
  2592   00213C  0E00               	movlw	0
  2593   00213E  6E2F               	movwf	(___fldiv@new_exp+1)^0,c
  2594   002140  0E00               	movlw	0
  2595   002142  6E2E               	movwf	___fldiv@new_exp^0,c
  2596   002144  0E00               	movlw	0
  2597   002146  6E1D               	movwf	___fldiv@b^0,c
  2598   002148  0E00               	movlw	0
  2599   00214A  6E1E               	movwf	(___fldiv@b+1)^0,c
  2600   00214C  0E00               	movlw	0
  2601   00214E  6E1F               	movwf	(___fldiv@b+2)^0,c
  2602   002150  0E00               	movlw	0
  2603   002152  6E20               	movwf	(___fldiv@b+3)^0,c
  2604   002154  0E00               	movlw	0
  2605   002156  6E2D               	movwf	___fldiv@sign^0,c
  2606   002158                     l7427:
  2607   002158  C02E  F034         	movff	___fldiv@new_exp,___fldiv@bexp
  2608   00215C  A034               	btfss	___fldiv@bexp^0,0,c
  2609   00215E  EFB3  F010         	goto	u7361
  2610   002162  EFB5  F010         	goto	u7360
  2611   002166                     u7361:
  2612   002166  EFB8  F010         	goto	l7433
  2613   00216A                     u7360:
  2614   00216A  8E1F               	bsf	(___fldiv@b+2)^0,7,c
  2615   00216C  EFB9  F010         	goto	l7435
  2616   002170                     l7433:
  2617   002170  9E1F               	bcf	(___fldiv@b+2)^0,7,c
  2618   002172                     l7435:
  2619   002172  90D8               	bcf	status,0,c
  2620   002174  3034               	rrcf	___fldiv@bexp^0,w,c
  2621   002176  6E20               	movwf	(___fldiv@b+3)^0,c
  2622   002178  EF6F  F00F         	goto	l7349
  2623   00217C                     l1913:
  2624   00217C  0012               	return		;funcret
  2625   00217E                     __end_of___fldiv:
  2626                           	callstack 0
  2627                           
  2628 ;; *************** function ___fladd *****************
  2629 ;; Defined at:
  2630 ;;		line 10 in file "E:\Program Files\Microchip\xc8\v2.41\pic\sources\c99\common\sprcadd.c"
  2631 ;; Parameters:    Size  Location     Type
  2632 ;;  b               4   53[COMRAM] unsigned char 
  2633 ;;  a               4   57[COMRAM] unsigned char 
  2634 ;; Auto vars:     Size  Location     Type
  2635 ;;  grs             1   68[COMRAM] unsigned char 
  2636 ;;  bexp            1   67[COMRAM] unsigned char 
  2637 ;;  aexp            1   66[COMRAM] unsigned char 
  2638 ;;  signs           1   65[COMRAM] unsigned char 
  2639 ;; Return value:  Size  Location     Type
  2640 ;;                  4   53[COMRAM] unsigned char 
  2641 ;; Registers used:
  2642 ;;		wreg, status,2, status,0
  2643 ;; Tracked objects:
  2644 ;;		On entry : 0/0
  2645 ;;		On exit  : 0/0
  2646 ;;		Unchanged: 0/0
  2647 ;; Data sizes:     COMRAM   BANK0   BANK1   BANK2   BANK3   BANK4   BANK5   BANK6   BANK7   BANK8   BANK9  BANK10  BANK1
      +1  BANK12  BANK13  BANK14  BANK15
  2648 ;;      Params:         8       0       0       0       0       0       0       0       0       0       0       0       
      +0       0       0       0       0
  2649 ;;      Locals:         4       0       0       0       0       0       0       0       0       0       0       0       
      +0       0       0       0       0
  2650 ;;      Temps:          4       0       0       0       0       0       0       0       0       0       0       0       
      +0       0       0       0       0
  2651 ;;      Totals:        16       0       0       0       0       0       0       0       0       0       0       0       
      +0       0       0       0       0
  2652 ;;Total ram usage:       16 bytes
  2653 ;; Hardware stack levels used: 1
  2654 ;; Hardware stack levels required when called: 5
  2655 ;; This function calls:
  2656 ;;		Nothing
  2657 ;; This function is called by:
  2658 ;;		_buadrate_calculation
  2659 ;;		_ccp2_int
  2660 ;; This function uses a non-reentrant model
  2661 ;;
  2662                           
  2663                           	psect	text8
  2664   00152E                     __ptext8:
  2665                           	callstack 0
  2666   00152E                     ___fladd:
  2667                           	callstack 23
  2668   00152E  5039               	movf	(___fladd@b+3)^0,w,c
  2669   001530  0B80               	andlw	128
  2670   001532  6E42               	movwf	___fladd@signs^0,c
  2671   001534  5039               	movf	(___fladd@b+3)^0,w,c
  2672   001536  2439               	addwf	(___fladd@b+3)^0,w,c
  2673   001538  6E44               	movwf	___fladd@bexp^0,c
  2674   00153A  AE38               	btfss	(___fladd@b+2)^0,7,c
  2675   00153C  EFA2  F00A         	goto	u6751
  2676   001540  EFA4  F00A         	goto	u6750
  2677   001544                     u6751:
  2678   001544  EFA5  F00A         	goto	l7109
  2679   001548                     u6750:
  2680   001548  8044               	bsf	___fladd@bexp^0,0,c
  2681   00154A                     l7109:
  2682   00154A  5044               	movf	___fladd@bexp^0,w,c
  2683   00154C  B4D8               	btfsc	status,2,c
  2684   00154E  EFAB  F00A         	goto	u6761
  2685   001552  EFAD  F00A         	goto	u6760
  2686   001556                     u6761:
  2687   001556  EFC2  F00A         	goto	l7119
  2688   00155A                     u6760:
  2689   00155A  2844               	incf	___fladd@bexp^0,w,c
  2690   00155C  A4D8               	btfss	status,2,c
  2691   00155E  EFB3  F00A         	goto	u6771
  2692   001562  EFB5  F00A         	goto	u6770
  2693   001566                     u6771:
  2694   001566  EFBD  F00A         	goto	l7115
  2695   00156A                     u6770:
  2696   00156A  0E00               	movlw	0
  2697   00156C  6E36               	movwf	___fladd@b^0,c
  2698   00156E  0E00               	movlw	0
  2699   001570  6E37               	movwf	(___fladd@b+1)^0,c
  2700   001572  0E00               	movlw	0
  2701   001574  6E38               	movwf	(___fladd@b+2)^0,c
  2702   001576  0E00               	movlw	0
  2703   001578  6E39               	movwf	(___fladd@b+3)^0,c
  2704   00157A                     l7115:
  2705   00157A  8E38               	bsf	(___fladd@b+2)^0,7,c
  2706   00157C  0E00               	movlw	0
  2707   00157E  6E39               	movwf	(___fladd@b+3)^0,c
  2708   001580  EFCA  F00A         	goto	l7121
  2709   001584                     l7119:
  2710   001584  0E00               	movlw	0
  2711   001586  6E36               	movwf	___fladd@b^0,c
  2712   001588  0E00               	movlw	0
  2713   00158A  6E37               	movwf	(___fladd@b+1)^0,c
  2714   00158C  0E00               	movlw	0
  2715   00158E  6E38               	movwf	(___fladd@b+2)^0,c
  2716   001590  0E00               	movlw	0
  2717   001592  6E39               	movwf	(___fladd@b+3)^0,c
  2718   001594                     l7121:
  2719   001594  503D               	movf	(___fladd@a+3)^0,w,c
  2720   001596  0B80               	andlw	128
  2721   001598  6E43               	movwf	___fladd@aexp^0,c
  2722   00159A  5042               	movf	___fladd@signs^0,w,c
  2723   00159C  1843               	xorwf	___fladd@aexp^0,w,c
  2724   00159E  B4D8               	btfsc	status,2,c
  2725   0015A0  EFD4  F00A         	goto	u6781
  2726   0015A4  EFD6  F00A         	goto	u6780
  2727   0015A8                     u6781:
  2728   0015A8  EFD7  F00A         	goto	l7127
  2729   0015AC                     u6780:
  2730   0015AC  8C42               	bsf	___fladd@signs^0,6,c
  2731   0015AE                     l7127:
  2732   0015AE  503D               	movf	(___fladd@a+3)^0,w,c
  2733   0015B0  243D               	addwf	(___fladd@a+3)^0,w,c
  2734   0015B2  6E43               	movwf	___fladd@aexp^0,c
  2735   0015B4  AE3C               	btfss	(___fladd@a+2)^0,7,c
  2736   0015B6  EFDF  F00A         	goto	u6791
  2737   0015BA  EFE1  F00A         	goto	u6790
  2738   0015BE                     u6791:
  2739   0015BE  EFE2  F00A         	goto	l7133
  2740   0015C2                     u6790:
  2741   0015C2  8043               	bsf	___fladd@aexp^0,0,c
  2742   0015C4                     l7133:
  2743   0015C4  5043               	movf	___fladd@aexp^0,w,c
  2744   0015C6  B4D8               	btfsc	status,2,c
  2745   0015C8  EFE8  F00A         	goto	u6801
  2746   0015CC  EFEA  F00A         	goto	u6800
  2747   0015D0                     u6801:
  2748   0015D0  EFFF  F00A         	goto	l7143
  2749   0015D4                     u6800:
  2750   0015D4  2843               	incf	___fladd@aexp^0,w,c
  2751   0015D6  A4D8               	btfss	status,2,c
  2752   0015D8  EFF0  F00A         	goto	u6811
  2753   0015DC  EFF2  F00A         	goto	u6810
  2754   0015E0                     u6811:
  2755   0015E0  EFFA  F00A         	goto	l7139
  2756   0015E4                     u6810:
  2757   0015E4  0E00               	movlw	0
  2758   0015E6  6E3A               	movwf	___fladd@a^0,c
  2759   0015E8  0E00               	movlw	0
  2760   0015EA  6E3B               	movwf	(___fladd@a+1)^0,c
  2761   0015EC  0E00               	movlw	0
  2762   0015EE  6E3C               	movwf	(___fladd@a+2)^0,c
  2763   0015F0  0E00               	movlw	0
  2764   0015F2  6E3D               	movwf	(___fladd@a+3)^0,c
  2765   0015F4                     l7139:
  2766   0015F4  8E3C               	bsf	(___fladd@a+2)^0,7,c
  2767   0015F6  0E00               	movlw	0
  2768   0015F8  6E3D               	movwf	(___fladd@a+3)^0,c
  2769   0015FA  EF07  F00B         	goto	l7145
  2770   0015FE                     l7143:
  2771   0015FE  0E00               	movlw	0
  2772   001600  6E3A               	movwf	___fladd@a^0,c
  2773   001602  0E00               	movlw	0
  2774   001604  6E3B               	movwf	(___fladd@a+1)^0,c
  2775   001606  0E00               	movlw	0
  2776   001608  6E3C               	movwf	(___fladd@a+2)^0,c
  2777   00160A  0E00               	movlw	0
  2778   00160C  6E3D               	movwf	(___fladd@a+3)^0,c
  2779   00160E                     l7145:
  2780   00160E  5044               	movf	___fladd@bexp^0,w,c
  2781   001610  5C43               	subwf	___fladd@aexp^0,w,c
  2782   001612  B0D8               	btfsc	status,0,c
  2783   001614  EF0E  F00B         	goto	u6821
  2784   001618  EF10  F00B         	goto	u6820
  2785   00161C                     u6821:
  2786   00161C  EF37  F00B         	goto	l7181
  2787   001620                     u6820:
  2788   001620  AC42               	btfss	___fladd@signs^0,6,c
  2789   001622  EF15  F00B         	goto	u6831
  2790   001626  EF17  F00B         	goto	u6830
  2791   00162A                     u6831:
  2792   00162A  EF19  F00B         	goto	l7151
  2793   00162E                     u6830:
  2794   00162E  0E80               	movlw	128
  2795   001630  1A42               	xorwf	___fladd@signs^0,f,c
  2796   001632                     l7151:
  2797   001632  C044  F045         	movff	___fladd@bexp,___fladd@grs
  2798   001636  C043  F044         	movff	___fladd@aexp,___fladd@bexp
  2799   00163A  C045  F043         	movff	___fladd@grs,___fladd@aexp
  2800   00163E  C036  F045         	movff	___fladd@b,___fladd@grs
  2801   001642  C03A  F036         	movff	___fladd@a,___fladd@b
  2802   001646  C045  F03A         	movff	___fladd@grs,___fladd@a
  2803   00164A  C037  F045         	movff	___fladd@b+1,___fladd@grs
  2804   00164E  C03B  F037         	movff	___fladd@a+1,___fladd@b+1
  2805   001652  C045  F03B         	movff	___fladd@grs,___fladd@a+1
  2806   001656  C038  F045         	movff	___fladd@b+2,___fladd@grs
  2807   00165A  C03C  F038         	movff	___fladd@a+2,___fladd@b+2
  2808   00165E  C045  F03C         	movff	___fladd@grs,___fladd@a+2
  2809   001662  C039  F045         	movff	___fladd@b+3,___fladd@grs
  2810   001666  C03D  F039         	movff	___fladd@a+3,___fladd@b+3
  2811   00166A  C045  F03D         	movff	___fladd@grs,___fladd@a+3
  2812   00166E                     l7181:
  2813   00166E  0E00               	movlw	0
  2814   001670  6E45               	movwf	___fladd@grs^0,c
  2815   001672  5044               	movf	___fladd@bexp^0,w,c
  2816   001674  C043  F03E         	movff	___fladd@aexp,??___fladd
  2817   001678  6A3F               	clrf	(??___fladd+1)^0,c
  2818   00167A  5E3E               	subwf	??___fladd^0,f,c
  2819   00167C  0E00               	movlw	0
  2820   00167E  5A3F               	subwfb	(??___fladd+1)^0,f,c
  2821   001680  BE3F               	btfsc	(??___fladd+1)^0,7,c
  2822   001682  EF4C  F00B         	goto	u6841
  2823   001686  503F               	movf	(??___fladd+1)^0,w,c
  2824   001688  E109               	bnz	u6840
  2825   00168A  0E1A               	movlw	26
  2826   00168C  5C3E               	subwf	??___fladd^0,w,c
  2827   00168E  A0D8               	btfss	status,0,c
  2828   001690  EF4C  F00B         	goto	u6841
  2829   001694  EF4E  F00B         	goto	u6840
  2830   001698                     u6841:
  2831   001698  EF85  F00B         	goto	l1860
  2832   00169C                     u6840:
  2833   00169C  5036               	movf	___fladd@b^0,w,c
  2834   00169E  1037               	iorwf	(___fladd@b+1)^0,w,c
  2835   0016A0  1038               	iorwf	(___fladd@b+2)^0,w,c
  2836   0016A2  1039               	iorwf	(___fladd@b+3)^0,w,c
  2837   0016A4  A4D8               	btfss	status,2,c
  2838   0016A6  EF57  F00B         	goto	u6851
  2839   0016AA  EF5A  F00B         	goto	u6850
  2840   0016AE                     u6851:
  2841   0016AE  0E01               	movlw	1
  2842   0016B0  EF5B  F00B         	goto	u6860
  2843   0016B4                     u6850:
  2844   0016B4  0E00               	movlw	0
  2845   0016B6                     u6860:
  2846   0016B6  6E45               	movwf	___fladd@grs^0,c
  2847   0016B8  0E00               	movlw	0
  2848   0016BA  6E36               	movwf	___fladd@b^0,c
  2849   0016BC  0E00               	movlw	0
  2850   0016BE  6E37               	movwf	(___fladd@b+1)^0,c
  2851   0016C0  0E00               	movlw	0
  2852   0016C2  6E38               	movwf	(___fladd@b+2)^0,c
  2853   0016C4  0E00               	movlw	0
  2854   0016C6  6E39               	movwf	(___fladd@b+3)^0,c
  2855   0016C8  C043  F044         	movff	___fladd@aexp,___fladd@bexp
  2856   0016CC  EF8E  F00B         	goto	l1859
  2857   0016D0                     l1861:
  2858   0016D0  A045               	btfss	___fladd@grs^0,0,c
  2859   0016D2  EF6D  F00B         	goto	u6871
  2860   0016D6  EF6F  F00B         	goto	u6870
  2861   0016DA                     u6871:
  2862   0016DA  EF75  F00B         	goto	l7193
  2863   0016DE                     u6870:
  2864   0016DE  90D8               	bcf	status,0,c
  2865   0016E0  3045               	rrcf	___fladd@grs^0,w,c
  2866   0016E2  0901               	iorlw	1
  2867   0016E4  6E45               	movwf	___fladd@grs^0,c
  2868   0016E6  EF77  F00B         	goto	l7195
  2869   0016EA                     l7193:
  2870   0016EA  90D8               	bcf	status,0,c
  2871   0016EC  3245               	rrcf	___fladd@grs^0,f,c
  2872   0016EE                     l7195:
  2873   0016EE  A036               	btfss	___fladd@b^0,0,c
  2874   0016F0  EF7C  F00B         	goto	u6881
  2875   0016F4  EF7E  F00B         	goto	u6880
  2876   0016F8                     u6881:
  2877   0016F8  EF7F  F00B         	goto	l7199
  2878   0016FC                     u6880:
  2879   0016FC  8E45               	bsf	___fladd@grs^0,7,c
  2880   0016FE                     l7199:
  2881   0016FE  3439               	rlcf	(___fladd@b+3)^0,w,c
  2882   001700  3239               	rrcf	(___fladd@b+3)^0,f,c
  2883   001702  3238               	rrcf	(___fladd@b+2)^0,f,c
  2884   001704  3237               	rrcf	(___fladd@b+1)^0,f,c
  2885   001706  3236               	rrcf	___fladd@b^0,f,c
  2886   001708  2A44               	incf	___fladd@bexp^0,f,c
  2887   00170A                     l1860:
  2888   00170A  5043               	movf	___fladd@aexp^0,w,c
  2889   00170C  5C44               	subwf	___fladd@bexp^0,w,c
  2890   00170E  A0D8               	btfss	status,0,c
  2891   001710  EF8C  F00B         	goto	u6891
  2892   001714  EF8E  F00B         	goto	u6890
  2893   001718                     u6891:
  2894   001718  EF68  F00B         	goto	l1861
  2895   00171C                     u6890:
  2896   00171C                     l1859:
  2897   00171C  BC42               	btfsc	___fladd@signs^0,6,c
  2898   00171E  EF93  F00B         	goto	u6901
  2899   001722  EF95  F00B         	goto	u6900
  2900   001726                     u6901:
  2901   001726  EFD5  F00B         	goto	l7227
  2902   00172A                     u6900:
  2903   00172A  5044               	movf	___fladd@bexp^0,w,c
  2904   00172C  A4D8               	btfss	status,2,c
  2905   00172E  EF9B  F00B         	goto	u6911
  2906   001732  EF9D  F00B         	goto	u6910
  2907   001736                     u6911:
  2908   001736  EFA7  F00B         	goto	l7209
  2909   00173A                     u6910:
  2910   00173A  0E00               	movlw	0
  2911   00173C  6E36               	movwf	?___fladd^0,c
  2912   00173E  0E00               	movlw	0
  2913   001740  6E37               	movwf	(?___fladd+1)^0,c
  2914   001742  0E00               	movlw	0
  2915   001744  6E38               	movwf	(?___fladd+2)^0,c
  2916   001746  0E00               	movlw	0
  2917   001748  6E39               	movwf	(?___fladd+3)^0,c
  2918   00174A  EFF6  F00C         	goto	l1868
  2919   00174E                     l7209:
  2920   00174E  503A               	movf	___fladd@a^0,w,c
  2921   001750  2636               	addwf	___fladd@b^0,f,c
  2922   001752  503B               	movf	(___fladd@a+1)^0,w,c
  2923   001754  2237               	addwfc	(___fladd@b+1)^0,f,c
  2924   001756  503C               	movf	(___fladd@a+2)^0,w,c
  2925   001758  2238               	addwfc	(___fladd@b+2)^0,f,c
  2926   00175A  503D               	movf	(___fladd@a+3)^0,w,c
  2927   00175C  2239               	addwfc	(___fladd@b+3)^0,f,c
  2928   00175E  A039               	btfss	(___fladd@b+3)^0,0,c
  2929   001760  EFB4  F00B         	goto	u6921
  2930   001764  EFB6  F00B         	goto	u6920
  2931   001768                     u6921:
  2932   001768  EF62  F00C         	goto	l7263
  2933   00176C                     u6920:
  2934   00176C  A045               	btfss	___fladd@grs^0,0,c
  2935   00176E  EFBB  F00B         	goto	u6931
  2936   001772  EFBD  F00B         	goto	u6930
  2937   001776                     u6931:
  2938   001776  EFC3  F00B         	goto	l7217
  2939   00177A                     u6930:
  2940   00177A  90D8               	bcf	status,0,c
  2941   00177C  3045               	rrcf	___fladd@grs^0,w,c
  2942   00177E  0901               	iorlw	1
  2943   001780  6E45               	movwf	___fladd@grs^0,c
  2944   001782  EFC5  F00B         	goto	l7219
  2945   001786                     l7217:
  2946   001786  90D8               	bcf	status,0,c
  2947   001788  3245               	rrcf	___fladd@grs^0,f,c
  2948   00178A                     l7219:
  2949   00178A  A036               	btfss	___fladd@b^0,0,c
  2950   00178C  EFCA  F00B         	goto	u6941
  2951   001790  EFCC  F00B         	goto	u6940
  2952   001794                     u6941:
  2953   001794  EFCD  F00B         	goto	l7223
  2954   001798                     u6940:
  2955   001798  8E45               	bsf	___fladd@grs^0,7,c
  2956   00179A                     l7223:
  2957   00179A  3439               	rlcf	(___fladd@b+3)^0,w,c
  2958   00179C  3239               	rrcf	(___fladd@b+3)^0,f,c
  2959   00179E  3238               	rrcf	(___fladd@b+2)^0,f,c
  2960   0017A0  3237               	rrcf	(___fladd@b+1)^0,f,c
  2961   0017A2  3236               	rrcf	___fladd@b^0,f,c
  2962   0017A4  2A44               	incf	___fladd@bexp^0,f,c
  2963   0017A6  EF62  F00C         	goto	l7263
  2964   0017AA                     l7227:
  2965   0017AA  503A               	movf	___fladd@a^0,w,c
  2966   0017AC  5C36               	subwf	___fladd@b^0,w,c
  2967   0017AE  503B               	movf	(___fladd@a+1)^0,w,c
  2968   0017B0  5837               	subwfb	(___fladd@b+1)^0,w,c
  2969   0017B2  503C               	movf	(___fladd@a+2)^0,w,c
  2970   0017B4  5838               	subwfb	(___fladd@b+2)^0,w,c
  2971   0017B6  5039               	movf	(___fladd@b+3)^0,w,c
  2972   0017B8  0A80               	xorlw	128
  2973   0017BA  6E3E               	movwf	??___fladd^0,c
  2974   0017BC  503D               	movf	(___fladd@a+3)^0,w,c
  2975   0017BE  0A80               	xorlw	128
  2976   0017C0  583E               	subwfb	??___fladd^0,w,c
  2977   0017C2  B0D8               	btfsc	status,0,c
  2978   0017C4  EFE6  F00B         	goto	u6951
  2979   0017C8  EFE8  F00B         	goto	u6950
  2980   0017CC                     u6951:
  2981   0017CC  EF13  F00C         	goto	l7237
  2982   0017D0                     u6950:
  2983   0017D0  5036               	movf	___fladd@b^0,w,c
  2984   0017D2  5C3A               	subwf	___fladd@a^0,w,c
  2985   0017D4  6E3E               	movwf	??___fladd^0,c
  2986   0017D6  5037               	movf	(___fladd@b+1)^0,w,c
  2987   0017D8  583B               	subwfb	(___fladd@a+1)^0,w,c
  2988   0017DA  6E3F               	movwf	(??___fladd+1)^0,c
  2989   0017DC  5038               	movf	(___fladd@b+2)^0,w,c
  2990   0017DE  583C               	subwfb	(___fladd@a+2)^0,w,c
  2991   0017E0  6E40               	movwf	(??___fladd+2)^0,c
  2992   0017E2  5039               	movf	(___fladd@b+3)^0,w,c
  2993   0017E4  583D               	subwfb	(___fladd@a+3)^0,w,c
  2994   0017E6  6E41               	movwf	(??___fladd+3)^0,c
  2995   0017E8  0EFF               	movlw	255
  2996   0017EA  243E               	addwf	??___fladd^0,w,c
  2997   0017EC  6E36               	movwf	___fladd@b^0,c
  2998   0017EE  0EFF               	movlw	255
  2999   0017F0  203F               	addwfc	(??___fladd+1)^0,w,c
  3000   0017F2  6E37               	movwf	(___fladd@b+1)^0,c
  3001   0017F4  0EFF               	movlw	255
  3002   0017F6  2040               	addwfc	(??___fladd+2)^0,w,c
  3003   0017F8  6E38               	movwf	(___fladd@b+2)^0,c
  3004   0017FA  0EFF               	movlw	255
  3005   0017FC  2041               	addwfc	(??___fladd+3)^0,w,c
  3006   0017FE  6E39               	movwf	(___fladd@b+3)^0,c
  3007   001800  0E80               	movlw	128
  3008   001802  1A42               	xorwf	___fladd@signs^0,f,c
  3009   001804  6C45               	negf	___fladd@grs^0,c
  3010   001806  5045               	movf	___fladd@grs^0,w,c
  3011   001808  A4D8               	btfss	status,2,c
  3012   00180A  EF09  F00C         	goto	u6961
  3013   00180E  EF0B  F00C         	goto	u6960
  3014   001812                     u6961:
  3015   001812  EF1B  F00C         	goto	l1876
  3016   001816                     u6960:
  3017   001816  0E01               	movlw	1
  3018   001818  2636               	addwf	___fladd@b^0,f,c
  3019   00181A  0E00               	movlw	0
  3020   00181C  2237               	addwfc	(___fladd@b+1)^0,f,c
  3021   00181E  2238               	addwfc	(___fladd@b+2)^0,f,c
  3022   001820  2239               	addwfc	(___fladd@b+3)^0,f,c
  3023   001822  EF1B  F00C         	goto	l1876
  3024   001826                     l7237:
  3025   001826  503A               	movf	___fladd@a^0,w,c
  3026   001828  5E36               	subwf	___fladd@b^0,f,c
  3027   00182A  503B               	movf	(___fladd@a+1)^0,w,c
  3028   00182C  5A37               	subwfb	(___fladd@b+1)^0,f,c
  3029   00182E  503C               	movf	(___fladd@a+2)^0,w,c
  3030   001830  5A38               	subwfb	(___fladd@b+2)^0,f,c
  3031   001832  503D               	movf	(___fladd@a+3)^0,w,c
  3032   001834  5A39               	subwfb	(___fladd@b+3)^0,f,c
  3033   001836                     l1876:
  3034   001836  5036               	movf	___fladd@b^0,w,c
  3035   001838  1037               	iorwf	(___fladd@b+1)^0,w,c
  3036   00183A  1038               	iorwf	(___fladd@b+2)^0,w,c
  3037   00183C  1039               	iorwf	(___fladd@b+3)^0,w,c
  3038   00183E  A4D8               	btfss	status,2,c
  3039   001840  EF24  F00C         	goto	u6971
  3040   001844  EF26  F00C         	goto	u6970
  3041   001848                     u6971:
  3042   001848  EF5B  F00C         	goto	l7261
  3043   00184C                     u6970:
  3044   00184C  5045               	movf	___fladd@grs^0,w,c
  3045   00184E  A4D8               	btfss	status,2,c
  3046   001850  EF2C  F00C         	goto	u6981
  3047   001854  EF2E  F00C         	goto	u6980
  3048   001858                     u6981:
  3049   001858  EF5B  F00C         	goto	l7261
  3050   00185C                     u6980:
  3051   00185C  0E00               	movlw	0
  3052   00185E  6E36               	movwf	?___fladd^0,c
  3053   001860  0E00               	movlw	0
  3054   001862  6E37               	movwf	(?___fladd+1)^0,c
  3055   001864  0E00               	movlw	0
  3056   001866  6E38               	movwf	(?___fladd+2)^0,c
  3057   001868  0E00               	movlw	0
  3058   00186A  6E39               	movwf	(?___fladd+3)^0,c
  3059   00186C  EFF6  F00C         	goto	l1868
  3060   001870                     l7245:
  3061   001870  90D8               	bcf	status,0,c
  3062   001872  3636               	rlcf	___fladd@b^0,f,c
  3063   001874  3637               	rlcf	(___fladd@b+1)^0,f,c
  3064   001876  3638               	rlcf	(___fladd@b+2)^0,f,c
  3065   001878  3639               	rlcf	(___fladd@b+3)^0,f,c
  3066   00187A  AE45               	btfss	___fladd@grs^0,7,c
  3067   00187C  EF42  F00C         	goto	u6991
  3068   001880  EF44  F00C         	goto	u6990
  3069   001884                     u6991:
  3070   001884  EF45  F00C         	goto	l7251
  3071   001888                     u6990:
  3072   001888  8036               	bsf	___fladd@b^0,0,c
  3073   00188A                     l7251:
  3074   00188A  A045               	btfss	___fladd@grs^0,0,c
  3075   00188C  EF4A  F00C         	goto	u7001
  3076   001890  EF4C  F00C         	goto	u7000
  3077   001894                     u7001:
  3078   001894  EF50  F00C         	goto	l7255
  3079   001898                     u7000:
  3080   001898  80D8               	bsf	status,0,c
  3081   00189A  3645               	rlcf	___fladd@grs^0,f,c
  3082   00189C  EF52  F00C         	goto	l7257
  3083   0018A0                     l7255:
  3084   0018A0  90D8               	bcf	status,0,c
  3085   0018A2  3645               	rlcf	___fladd@grs^0,f,c
  3086   0018A4                     l7257:
  3087   0018A4  5044               	movf	___fladd@bexp^0,w,c
  3088   0018A6  B4D8               	btfsc	status,2,c
  3089   0018A8  EF58  F00C         	goto	u7011
  3090   0018AC  EF5A  F00C         	goto	u7010
  3091   0018B0                     u7011:
  3092   0018B0  EF5B  F00C         	goto	l7261
  3093   0018B4                     u7010:
  3094   0018B4  0644               	decf	___fladd@bexp^0,f,c
  3095   0018B6                     l7261:
  3096   0018B6  AE38               	btfss	(___fladd@b+2)^0,7,c
  3097   0018B8  EF60  F00C         	goto	u7021
  3098   0018BC  EF62  F00C         	goto	u7020
  3099   0018C0                     u7021:
  3100   0018C0  EF38  F00C         	goto	l7245
  3101   0018C4                     u7020:
  3102   0018C4                     l7263:
  3103   0018C4  0E00               	movlw	0
  3104   0018C6  6E43               	movwf	___fladd@aexp^0,c
  3105   0018C8  AE45               	btfss	___fladd@grs^0,7,c
  3106   0018CA  EF69  F00C         	goto	u7031
  3107   0018CE  EF6B  F00C         	goto	u7030
  3108   0018D2                     u7031:
  3109   0018D2  EF83  F00C         	goto	l1885
  3110   0018D6                     u7030:
  3111   0018D6  C045  F03E         	movff	___fladd@grs,??___fladd
  3112   0018DA  0E7F               	movlw	127
  3113   0018DC  163E               	andwf	??___fladd^0,f,c
  3114   0018DE  B4D8               	btfsc	status,2,c
  3115   0018E0  EF74  F00C         	goto	u7041
  3116   0018E4  EF76  F00C         	goto	u7040
  3117   0018E8                     u7041:
  3118   0018E8  EF7A  F00C         	goto	l1886
  3119   0018EC                     u7040:
  3120   0018EC                     l7269:
  3121   0018EC  0E01               	movlw	1
  3122   0018EE  6E43               	movwf	___fladd@aexp^0,c
  3123   0018F0  EF83  F00C         	goto	l1885
  3124   0018F4                     l1886:
  3125   0018F4  A036               	btfss	___fladd@b^0,0,c
  3126   0018F6  EF7F  F00C         	goto	u7051
  3127   0018FA  EF81  F00C         	goto	u7050
  3128   0018FE                     u7051:
  3129   0018FE  EF83  F00C         	goto	l1885
  3130   001902                     u7050:
  3131   001902  EF76  F00C         	goto	l7269
  3132   001906                     l1885:
  3133   001906  5043               	movf	___fladd@aexp^0,w,c
  3134   001908  B4D8               	btfsc	status,2,c
  3135   00190A  EF89  F00C         	goto	u7061
  3136   00190E  EF8B  F00C         	goto	u7060
  3137   001912                     u7061:
  3138   001912  EFB6  F00C         	goto	l7281
  3139   001916                     u7060:
  3140   001916  0E01               	movlw	1
  3141   001918  2636               	addwf	___fladd@b^0,f,c
  3142   00191A  0E00               	movlw	0
  3143   00191C  2237               	addwfc	(___fladd@b+1)^0,f,c
  3144   00191E  2238               	addwfc	(___fladd@b+2)^0,f,c
  3145   001920  2239               	addwfc	(___fladd@b+3)^0,f,c
  3146   001922  A039               	btfss	(___fladd@b+3)^0,0,c
  3147   001924  EF96  F00C         	goto	u7071
  3148   001928  EF98  F00C         	goto	u7070
  3149   00192C                     u7071:
  3150   00192C  EFB6  F00C         	goto	l7281
  3151   001930                     u7070:
  3152   001930  C036  F03E         	movff	___fladd@b,??___fladd
  3153   001934  C037  F03F         	movff	___fladd@b+1,??___fladd+1
  3154   001938  C038  F040         	movff	___fladd@b+2,??___fladd+2
  3155   00193C  C039  F041         	movff	___fladd@b+3,??___fladd+3
  3156   001940  3441               	rlcf	(??___fladd+3)^0,w,c
  3157   001942  3241               	rrcf	(??___fladd+3)^0,f,c
  3158   001944  3240               	rrcf	(??___fladd+2)^0,f,c
  3159   001946  323F               	rrcf	(??___fladd+1)^0,f,c
  3160   001948  323E               	rrcf	??___fladd^0,f,c
  3161   00194A  C03E  F036         	movff	??___fladd,___fladd@b
  3162   00194E  C03F  F037         	movff	??___fladd+1,___fladd@b+1
  3163   001952  C040  F038         	movff	??___fladd+2,___fladd@b+2
  3164   001956  C041  F039         	movff	??___fladd+3,___fladd@b+3
  3165   00195A  2844               	incf	___fladd@bexp^0,w,c
  3166   00195C  B4D8               	btfsc	status,2,c
  3167   00195E  EFB3  F00C         	goto	u7081
  3168   001962  EFB5  F00C         	goto	u7080
  3169   001966                     u7081:
  3170   001966  EFB6  F00C         	goto	l7281
  3171   00196A                     u7080:
  3172   00196A  2A44               	incf	___fladd@bexp^0,f,c
  3173   00196C                     l7281:
  3174   00196C  2844               	incf	___fladd@bexp^0,w,c
  3175   00196E  B4D8               	btfsc	status,2,c
  3176   001970  EFBC  F00C         	goto	u7091
  3177   001974  EFBE  F00C         	goto	u7090
  3178   001978                     u7091:
  3179   001978  EFC6  F00C         	goto	l7285
  3180   00197C                     u7090:
  3181   00197C  5044               	movf	___fladd@bexp^0,w,c
  3182   00197E  A4D8               	btfss	status,2,c
  3183   001980  EFC4  F00C         	goto	u7101
  3184   001984  EFC6  F00C         	goto	u7100
  3185   001988                     u7101:
  3186   001988  EFD8  F00C         	goto	l7289
  3187   00198C                     u7100:
  3188   00198C                     l7285:
  3189   00198C  0E00               	movlw	0
  3190   00198E  6E36               	movwf	___fladd@b^0,c
  3191   001990  0E00               	movlw	0
  3192   001992  6E37               	movwf	(___fladd@b+1)^0,c
  3193   001994  0E00               	movlw	0
  3194   001996  6E38               	movwf	(___fladd@b+2)^0,c
  3195   001998  0E00               	movlw	0
  3196   00199A  6E39               	movwf	(___fladd@b+3)^0,c
  3197   00199C  5044               	movf	___fladd@bexp^0,w,c
  3198   00199E  A4D8               	btfss	status,2,c
  3199   0019A0  EFD4  F00C         	goto	u7111
  3200   0019A4  EFD6  F00C         	goto	u7110
  3201   0019A8                     u7111:
  3202   0019A8  EFD8  F00C         	goto	l7289
  3203   0019AC                     u7110:
  3204   0019AC  0E00               	movlw	0
  3205   0019AE  6E42               	movwf	___fladd@signs^0,c
  3206   0019B0                     l7289:
  3207   0019B0  A044               	btfss	___fladd@bexp^0,0,c
  3208   0019B2  EFDD  F00C         	goto	u7121
  3209   0019B6  EFDF  F00C         	goto	u7120
  3210   0019BA                     u7121:
  3211   0019BA  EFE2  F00C         	goto	l7293
  3212   0019BE                     u7120:
  3213   0019BE  8E38               	bsf	(___fladd@b+2)^0,7,c
  3214   0019C0  EFE3  F00C         	goto	l7295
  3215   0019C4                     l7293:
  3216   0019C4  9E38               	bcf	(___fladd@b+2)^0,7,c
  3217   0019C6                     l7295:
  3218   0019C6  90D8               	bcf	status,0,c
  3219   0019C8  3044               	rrcf	___fladd@bexp^0,w,c
  3220   0019CA  6E39               	movwf	(___fladd@b+3)^0,c
  3221   0019CC  AE42               	btfss	___fladd@signs^0,7,c
  3222   0019CE  EFEB  F00C         	goto	u7131
  3223   0019D2  EFED  F00C         	goto	u7130
  3224   0019D6                     u7131:
  3225   0019D6  EFEE  F00C         	goto	l7301
  3226   0019DA                     u7130:
  3227   0019DA  8E39               	bsf	(___fladd@b+3)^0,7,c
  3228   0019DC                     l7301:
  3229   0019DC  C036  F036         	movff	___fladd@b,?___fladd
  3230   0019E0  C037  F037         	movff	___fladd@b+1,?___fladd+1
  3231   0019E4  C038  F038         	movff	___fladd@b+2,?___fladd+2
  3232   0019E8  C039  F039         	movff	___fladd@b+3,?___fladd+3
  3233   0019EC                     l1868:
  3234   0019EC  0012               	return		;funcret
  3235   0019EE                     __end_of___fladd:
  3236                           	callstack 0
  3237                           
  3238 ;; *************** function _InterruptManagmentHigh *****************
  3239 ;; Defined at:
  3240 ;;		line 69 in file "MCAL_Layer/Interrupt/Interrupt_managment.c"
  3241 ;; Parameters:    Size  Location     Type
  3242 ;;		None
  3243 ;; Auto vars:     Size  Location     Type
  3244 ;;		None
  3245 ;; Return value:  Size  Location     Type
  3246 ;;                  1    wreg      void 
  3247 ;; Registers used:
  3248 ;;		wreg, status,2, status,0, pcl, pclath, pclatu, tosl, tblptrl, tblptrh, tblptru, cstack
  3249 ;; Tracked objects:
  3250 ;;		On entry : 0/0
  3251 ;;		On exit  : 0/0
  3252 ;;		Unchanged: 0/0
  3253 ;; Data sizes:     COMRAM   BANK0   BANK1   BANK2   BANK3   BANK4   BANK5   BANK6   BANK7   BANK8   BANK9  BANK10  BANK1
      +1  BANK12  BANK13  BANK14  BANK15
  3254 ;;      Params:         0       0       0       0       0       0       0       0       0       0       0       0       
      +0       0       0       0       0
  3255 ;;      Locals:         0       0       0       0       0       0       0       0       0       0       0       0       
      +0       0       0       0       0
  3256 ;;      Temps:          6       0       0       0       0       0       0       0       0       0       0       0       
      +0       0       0       0       0
  3257 ;;      Totals:         6       0       0       0       0       0       0       0       0       0       0       0       
      +0       0       0       0       0
  3258 ;;Total ram usage:        6 bytes
  3259 ;; Hardware stack levels used: 1
  3260 ;; Hardware stack levels required when called: 4
  3261 ;; This function calls:
  3262 ;;		_ADC_ISR
  3263 ;;		_CCP1_ISR
  3264 ;;		_CCP2_ISR
  3265 ;;		_EUSART_RX_ISR
  3266 ;;		_EUSART_TX_ISR
  3267 ;;		_INT0_ISR
  3268 ;;		_INT1_ISR
  3269 ;;		_INT2_ISR
  3270 ;;		_RB4_ISR
  3271 ;;		_RB5_ISR
  3272 ;;		_RB6_ISR
  3273 ;;		_RB7_ISR
  3274 ;;		_TIMER0_ISR
  3275 ;;		_TIMER1_ISR
  3276 ;;		_TIMER2_ISR
  3277 ;;		_TIMER3_ISR
  3278 ;; This function is called by:
  3279 ;;		Interrupt level 2
  3280 ;; This function uses a non-reentrant model
  3281 ;;
  3282                           
  3283                           	psect	intcode
  3284   000008                     __pintcode:
  3285                           	callstack 0
  3286   000008                     _InterruptManagmentHigh:
  3287                           	callstack 23
  3288                           
  3289                           ;incstack = 0
  3290   000008  8271               	bsf	int$flags,1,c	;set compiler interrupt flag (level 2)
  3291   00000A  EDF7  F00C         	call	int_func,f	;refresh shadow registers
  3292                           
  3293                           	psect	intcode_body
  3294   0019EE                     __pintcode_body:
  3295                           	callstack 23
  3296   0019EE                     int_func:
  3297                           	callstack 23
  3298   0019EE  0006               	pop		; remove dummy address from shadow register refresh
  3299   0019F0  CFFA F009          	movff	pclath,??_InterruptManagmentHigh
  3300   0019F4  CFFB F00A          	movff	pclatu,??_InterruptManagmentHigh+1
  3301   0019F8  CFF6 F00B          	movff	tblptrl,??_InterruptManagmentHigh+2
  3302   0019FC  CFF7 F00C          	movff	tblptrh,??_InterruptManagmentHigh+3
  3303   001A00  CFF8 F00D          	movff	tblptru,??_InterruptManagmentHigh+4
  3304   001A04  CFF5 F00E          	movff	tablat,??_InterruptManagmentHigh+5
  3305   001A08                     
  3306                           ;MCAL_Layer/Interrupt/Interrupt_managment.c: 76: if(INTCONbits.INT0IE==1 && INTCONbits.I
      +                          NT0IF==1){
  3307   001A08  A8F2               	btfss	242,4,c	;volatile
  3308   001A0A  EF09  F00D         	goto	i2u599_41
  3309   001A0E  EF0B  F00D         	goto	i2u599_40
  3310   001A12                     i2u599_41:
  3311   001A12  EF14  F00D         	goto	i2l6649
  3312   001A16                     i2u599_40:
  3313   001A16  A2F2               	btfss	242,1,c	;volatile
  3314   001A18  EF10  F00D         	goto	i2u600_41
  3315   001A1C  EF12  F00D         	goto	i2u600_40
  3316   001A20                     i2u600_41:
  3317   001A20  EF14  F00D         	goto	i2l6649
  3318   001A24                     i2u600_40:
  3319   001A24                     
  3320                           ;MCAL_Layer/Interrupt/Interrupt_managment.c: 77:         INT0_ISR();
  3321   001A24  EC67  F014         	call	_INT0_ISR	;wreg free
  3322   001A28                     i2l6649:
  3323                           
  3324                           ;MCAL_Layer/Interrupt/Interrupt_managment.c: 79:      if(INTCON3bits.INT1IE==1 && INTCON
      +                          3bits.INT1IF==1){
  3325   001A28  A6F0               	btfss	240,3,c	;volatile
  3326   001A2A  EF19  F00D         	goto	i2u601_41
  3327   001A2E  EF1B  F00D         	goto	i2u601_40
  3328   001A32                     i2u601_41:
  3329   001A32  EF24  F00D         	goto	i2l6655
  3330   001A36                     i2u601_40:
  3331   001A36  A0F0               	btfss	240,0,c	;volatile
  3332   001A38  EF20  F00D         	goto	i2u602_41
  3333   001A3C  EF22  F00D         	goto	i2u602_40
  3334   001A40                     i2u602_41:
  3335   001A40  EF24  F00D         	goto	i2l6655
  3336   001A44                     i2u602_40:
  3337   001A44                     
  3338                           ;MCAL_Layer/Interrupt/Interrupt_managment.c: 80:         INT1_ISR();
  3339   001A44  EC65  F014         	call	_INT1_ISR	;wreg free
  3340   001A48                     i2l6655:
  3341                           
  3342                           ;MCAL_Layer/Interrupt/Interrupt_managment.c: 82:      if(INTCON3bits.INT2IE==1 && INTCON
      +                          3bits.INT2IF==1){
  3343   001A48  A8F0               	btfss	240,4,c	;volatile
  3344   001A4A  EF29  F00D         	goto	i2u603_41
  3345   001A4E  EF2B  F00D         	goto	i2u603_40
  3346   001A52                     i2u603_41:
  3347   001A52  EF34  F00D         	goto	i2l6661
  3348   001A56                     i2u603_40:
  3349   001A56  A2F0               	btfss	240,1,c	;volatile
  3350   001A58  EF30  F00D         	goto	i2u604_41
  3351   001A5C  EF32  F00D         	goto	i2u604_40
  3352   001A60                     i2u604_41:
  3353   001A60  EF34  F00D         	goto	i2l6661
  3354   001A64                     i2u604_40:
  3355   001A64                     
  3356                           ;MCAL_Layer/Interrupt/Interrupt_managment.c: 83:     INT2_ISR();
  3357   001A64  EC63  F014         	call	_INT2_ISR	;wreg free
  3358   001A68                     i2l6661:
  3359                           
  3360                           ;MCAL_Layer/Interrupt/Interrupt_managment.c: 86:     if((INTCONbits.RBIE==1 && INTCONbit
      +                          s.RBIF==1)&& (PORTBbits.RB4==1)&&(flage_4==1)){
  3361   001A68  A6F2               	btfss	242,3,c	;volatile
  3362   001A6A  EF39  F00D         	goto	i2u605_41
  3363   001A6E  EF3B  F00D         	goto	i2u605_40
  3364   001A72                     i2u605_41:
  3365   001A72  EF56  F00D         	goto	i2l6673
  3366   001A76                     i2u605_40:
  3367   001A76  A0F2               	btfss	242,0,c	;volatile
  3368   001A78  EF40  F00D         	goto	i2u606_41
  3369   001A7C  EF42  F00D         	goto	i2u606_40
  3370   001A80                     i2u606_41:
  3371   001A80  EF56  F00D         	goto	i2l6673
  3372   001A84                     i2u606_40:
  3373   001A84  A881               	btfss	129,4,c	;volatile
  3374   001A86  EF47  F00D         	goto	i2u607_41
  3375   001A8A  EF49  F00D         	goto	i2u607_40
  3376   001A8E                     i2u607_41:
  3377   001A8E  EF56  F00D         	goto	i2l6673
  3378   001A92                     i2u607_40:
  3379   001A92  0470               	decf	_flage_4^0,w,c	;volatile
  3380   001A94  A4D8               	btfss	status,2,c
  3381   001A96  EF4F  F00D         	goto	i2u608_41
  3382   001A9A  EF51  F00D         	goto	i2u608_40
  3383   001A9E                     i2u608_41:
  3384   001A9E  EF56  F00D         	goto	i2l6673
  3385   001AA2                     i2u608_40:
  3386   001AA2                     
  3387                           ;MCAL_Layer/Interrupt/Interrupt_managment.c: 87:         flage_4=0;
  3388   001AA2  0E00               	movlw	0
  3389   001AA4  6E70               	movwf	_flage_4^0,c	;volatile
  3390   001AA6                     
  3391                           ;MCAL_Layer/Interrupt/Interrupt_managment.c: 88:     RB4_ISR(1);
  3392   001AA6  0E01               	movlw	1
  3393   001AA8  EC14  F014         	call	_RB4_ISR
  3394   001AAC                     i2l6673:
  3395                           
  3396                           ;MCAL_Layer/Interrupt/Interrupt_managment.c: 90:     if((INTCONbits.RBIE==1 && INTCONbit
      +                          s.RBIF==1)&& (PORTBbits.RB4==0)&&(flage_4==0)){
  3397   001AAC  A6F2               	btfss	242,3,c	;volatile
  3398   001AAE  EF5B  F00D         	goto	i2u609_41
  3399   001AB2  EF5D  F00D         	goto	i2u609_40
  3400   001AB6                     i2u609_41:
  3401   001AB6  EF78  F00D         	goto	i2l6685
  3402   001ABA                     i2u609_40:
  3403   001ABA  A0F2               	btfss	242,0,c	;volatile
  3404   001ABC  EF62  F00D         	goto	i2u610_41
  3405   001AC0  EF64  F00D         	goto	i2u610_40
  3406   001AC4                     i2u610_41:
  3407   001AC4  EF78  F00D         	goto	i2l6685
  3408   001AC8                     i2u610_40:
  3409   001AC8  B881               	btfsc	129,4,c	;volatile
  3410   001ACA  EF69  F00D         	goto	i2u611_41
  3411   001ACE  EF6B  F00D         	goto	i2u611_40
  3412   001AD2                     i2u611_41:
  3413   001AD2  EF78  F00D         	goto	i2l6685
  3414   001AD6                     i2u611_40:
  3415   001AD6  5070               	movf	_flage_4^0,w,c	;volatile
  3416   001AD8  A4D8               	btfss	status,2,c
  3417   001ADA  EF71  F00D         	goto	i2u612_41
  3418   001ADE  EF73  F00D         	goto	i2u612_40
  3419   001AE2                     i2u612_41:
  3420   001AE2  EF78  F00D         	goto	i2l6685
  3421   001AE6                     i2u612_40:
  3422   001AE6                     
  3423                           ;MCAL_Layer/Interrupt/Interrupt_managment.c: 91:         flage_4=1;
  3424   001AE6  0E01               	movlw	1
  3425   001AE8  6E70               	movwf	_flage_4^0,c	;volatile
  3426   001AEA                     
  3427                           ;MCAL_Layer/Interrupt/Interrupt_managment.c: 92:     RB4_ISR(0);
  3428   001AEA  0E00               	movlw	0
  3429   001AEC  EC14  F014         	call	_RB4_ISR
  3430   001AF0                     i2l6685:
  3431                           
  3432                           ;MCAL_Layer/Interrupt/Interrupt_managment.c: 95:     if((INTCONbits.RBIE==1 && INTCONbit
      +                          s.RBIF==1)&& (PORTBbits.RB5==1)&&(flage_5==1)){
  3433   001AF0  A6F2               	btfss	242,3,c	;volatile
  3434   001AF2  EF7D  F00D         	goto	i2u613_41
  3435   001AF6  EF7F  F00D         	goto	i2u613_40
  3436   001AFA                     i2u613_41:
  3437   001AFA  EF9A  F00D         	goto	i2l6697
  3438   001AFE                     i2u613_40:
  3439   001AFE  A0F2               	btfss	242,0,c	;volatile
  3440   001B00  EF84  F00D         	goto	i2u614_41
  3441   001B04  EF86  F00D         	goto	i2u614_40
  3442   001B08                     i2u614_41:
  3443   001B08  EF9A  F00D         	goto	i2l6697
  3444   001B0C                     i2u614_40:
  3445   001B0C  AA81               	btfss	129,5,c	;volatile
  3446   001B0E  EF8B  F00D         	goto	i2u615_41
  3447   001B12  EF8D  F00D         	goto	i2u615_40
  3448   001B16                     i2u615_41:
  3449   001B16  EF9A  F00D         	goto	i2l6697
  3450   001B1A                     i2u615_40:
  3451   001B1A  046F               	decf	_flage_5^0,w,c	;volatile
  3452   001B1C  A4D8               	btfss	status,2,c
  3453   001B1E  EF93  F00D         	goto	i2u616_41
  3454   001B22  EF95  F00D         	goto	i2u616_40
  3455   001B26                     i2u616_41:
  3456   001B26  EF9A  F00D         	goto	i2l6697
  3457   001B2A                     i2u616_40:
  3458   001B2A                     
  3459                           ;MCAL_Layer/Interrupt/Interrupt_managment.c: 96:         flage_5=0;
  3460   001B2A  0E00               	movlw	0
  3461   001B2C  6E6F               	movwf	_flage_5^0,c	;volatile
  3462   001B2E                     
  3463                           ;MCAL_Layer/Interrupt/Interrupt_managment.c: 97:     RB5_ISR(1);
  3464   001B2E  0E01               	movlw	1
  3465   001B30  EC07  F014         	call	_RB5_ISR
  3466   001B34                     i2l6697:
  3467                           
  3468                           ;MCAL_Layer/Interrupt/Interrupt_managment.c: 99:     if((INTCONbits.RBIE==1 && INTCONbit
      +                          s.RBIF==1)&& (PORTBbits.RB5==0)&&(flage_5==0)){
  3469   001B34  A6F2               	btfss	242,3,c	;volatile
  3470   001B36  EF9F  F00D         	goto	i2u617_41
  3471   001B3A  EFA1  F00D         	goto	i2u617_40
  3472   001B3E                     i2u617_41:
  3473   001B3E  EFBC  F00D         	goto	i2l6709
  3474   001B42                     i2u617_40:
  3475   001B42  A0F2               	btfss	242,0,c	;volatile
  3476   001B44  EFA6  F00D         	goto	i2u618_41
  3477   001B48  EFA8  F00D         	goto	i2u618_40
  3478   001B4C                     i2u618_41:
  3479   001B4C  EFBC  F00D         	goto	i2l6709
  3480   001B50                     i2u618_40:
  3481   001B50  BA81               	btfsc	129,5,c	;volatile
  3482   001B52  EFAD  F00D         	goto	i2u619_41
  3483   001B56  EFAF  F00D         	goto	i2u619_40
  3484   001B5A                     i2u619_41:
  3485   001B5A  EFBC  F00D         	goto	i2l6709
  3486   001B5E                     i2u619_40:
  3487   001B5E  506F               	movf	_flage_5^0,w,c	;volatile
  3488   001B60  A4D8               	btfss	status,2,c
  3489   001B62  EFB5  F00D         	goto	i2u620_41
  3490   001B66  EFB7  F00D         	goto	i2u620_40
  3491   001B6A                     i2u620_41:
  3492   001B6A  EFBC  F00D         	goto	i2l6709
  3493   001B6E                     i2u620_40:
  3494   001B6E                     
  3495                           ;MCAL_Layer/Interrupt/Interrupt_managment.c: 100:         flage_5=1;
  3496   001B6E  0E01               	movlw	1
  3497   001B70  6E6F               	movwf	_flage_5^0,c	;volatile
  3498   001B72                     
  3499                           ;MCAL_Layer/Interrupt/Interrupt_managment.c: 101:     RB5_ISR(0);
  3500   001B72  0E00               	movlw	0
  3501   001B74  EC07  F014         	call	_RB5_ISR
  3502   001B78                     i2l6709:
  3503                           
  3504                           ;MCAL_Layer/Interrupt/Interrupt_managment.c: 104: if((INTCONbits.RBIE==1 && INTCONbits.R
      +                          BIF==1)&& (PORTBbits.RB6==1)&&(flage_6==1)){
  3505   001B78  A6F2               	btfss	242,3,c	;volatile
  3506   001B7A  EFC1  F00D         	goto	i2u621_41
  3507   001B7E  EFC3  F00D         	goto	i2u621_40
  3508   001B82                     i2u621_41:
  3509   001B82  EFDE  F00D         	goto	i2l6721
  3510   001B86                     i2u621_40:
  3511   001B86  A0F2               	btfss	242,0,c	;volatile
  3512   001B88  EFC8  F00D         	goto	i2u622_41
  3513   001B8C  EFCA  F00D         	goto	i2u622_40
  3514   001B90                     i2u622_41:
  3515   001B90  EFDE  F00D         	goto	i2l6721
  3516   001B94                     i2u622_40:
  3517   001B94  AC81               	btfss	129,6,c	;volatile
  3518   001B96  EFCF  F00D         	goto	i2u623_41
  3519   001B9A  EFD1  F00D         	goto	i2u623_40
  3520   001B9E                     i2u623_41:
  3521   001B9E  EFDE  F00D         	goto	i2l6721
  3522   001BA2                     i2u623_40:
  3523   001BA2  046E               	decf	_flage_6^0,w,c	;volatile
  3524   001BA4  A4D8               	btfss	status,2,c
  3525   001BA6  EFD7  F00D         	goto	i2u624_41
  3526   001BAA  EFD9  F00D         	goto	i2u624_40
  3527   001BAE                     i2u624_41:
  3528   001BAE  EFDE  F00D         	goto	i2l6721
  3529   001BB2                     i2u624_40:
  3530   001BB2                     
  3531                           ;MCAL_Layer/Interrupt/Interrupt_managment.c: 105:         flage_6=0;
  3532   001BB2  0E00               	movlw	0
  3533   001BB4  6E6E               	movwf	_flage_6^0,c	;volatile
  3534   001BB6                     
  3535                           ;MCAL_Layer/Interrupt/Interrupt_managment.c: 106:     RB6_ISR(1);
  3536   001BB6  0E01               	movlw	1
  3537   001BB8  ECFA  F013         	call	_RB6_ISR
  3538   001BBC                     i2l6721:
  3539                           
  3540                           ;MCAL_Layer/Interrupt/Interrupt_managment.c: 108:     if((INTCONbits.RBIE==1 && INTCONbi
      +                          ts.RBIF==1)&& (PORTBbits.RB6==0)&&(flage_6==0)){
  3541   001BBC  A6F2               	btfss	242,3,c	;volatile
  3542   001BBE  EFE3  F00D         	goto	i2u625_41
  3543   001BC2  EFE5  F00D         	goto	i2u625_40
  3544   001BC6                     i2u625_41:
  3545   001BC6  EF00  F00E         	goto	i2l6733
  3546   001BCA                     i2u625_40:
  3547   001BCA  A0F2               	btfss	242,0,c	;volatile
  3548   001BCC  EFEA  F00D         	goto	i2u626_41
  3549   001BD0  EFEC  F00D         	goto	i2u626_40
  3550   001BD4                     i2u626_41:
  3551   001BD4  EF00  F00E         	goto	i2l6733
  3552   001BD8                     i2u626_40:
  3553   001BD8  BC81               	btfsc	129,6,c	;volatile
  3554   001BDA  EFF1  F00D         	goto	i2u627_41
  3555   001BDE  EFF3  F00D         	goto	i2u627_40
  3556   001BE2                     i2u627_41:
  3557   001BE2  EF00  F00E         	goto	i2l6733
  3558   001BE6                     i2u627_40:
  3559   001BE6  506E               	movf	_flage_6^0,w,c	;volatile
  3560   001BE8  A4D8               	btfss	status,2,c
  3561   001BEA  EFF9  F00D         	goto	i2u628_41
  3562   001BEE  EFFB  F00D         	goto	i2u628_40
  3563   001BF2                     i2u628_41:
  3564   001BF2  EF00  F00E         	goto	i2l6733
  3565   001BF6                     i2u628_40:
  3566   001BF6                     
  3567                           ;MCAL_Layer/Interrupt/Interrupt_managment.c: 109:         flage_6=1;
  3568   001BF6  0E01               	movlw	1
  3569   001BF8  6E6E               	movwf	_flage_6^0,c	;volatile
  3570   001BFA                     
  3571                           ;MCAL_Layer/Interrupt/Interrupt_managment.c: 110:     RB6_ISR(0);
  3572   001BFA  0E00               	movlw	0
  3573   001BFC  ECFA  F013         	call	_RB6_ISR
  3574   001C00                     i2l6733:
  3575                           
  3576                           ;MCAL_Layer/Interrupt/Interrupt_managment.c: 113: if((INTCONbits.RBIE==1 && INTCONbits.R
      +                          BIF==1)&& (PORTBbits.RB7==1)&&(flage_7==1)){
  3577   001C00  A6F2               	btfss	242,3,c	;volatile
  3578   001C02  EF05  F00E         	goto	i2u629_41
  3579   001C06  EF07  F00E         	goto	i2u629_40
  3580   001C0A                     i2u629_41:
  3581   001C0A  EF22  F00E         	goto	i2l6745
  3582   001C0E                     i2u629_40:
  3583   001C0E  A0F2               	btfss	242,0,c	;volatile
  3584   001C10  EF0C  F00E         	goto	i2u630_41
  3585   001C14  EF0E  F00E         	goto	i2u630_40
  3586   001C18                     i2u630_41:
  3587   001C18  EF22  F00E         	goto	i2l6745
  3588   001C1C                     i2u630_40:
  3589   001C1C  AE81               	btfss	129,7,c	;volatile
  3590   001C1E  EF13  F00E         	goto	i2u631_41
  3591   001C22  EF15  F00E         	goto	i2u631_40
  3592   001C26                     i2u631_41:
  3593   001C26  EF22  F00E         	goto	i2l6745
  3594   001C2A                     i2u631_40:
  3595   001C2A  046D               	decf	_flage_7^0,w,c	;volatile
  3596   001C2C  A4D8               	btfss	status,2,c
  3597   001C2E  EF1B  F00E         	goto	i2u632_41
  3598   001C32  EF1D  F00E         	goto	i2u632_40
  3599   001C36                     i2u632_41:
  3600   001C36  EF22  F00E         	goto	i2l6745
  3601   001C3A                     i2u632_40:
  3602   001C3A                     
  3603                           ;MCAL_Layer/Interrupt/Interrupt_managment.c: 114:         flage_7=0;
  3604   001C3A  0E00               	movlw	0
  3605   001C3C  6E6D               	movwf	_flage_7^0,c	;volatile
  3606   001C3E                     
  3607                           ;MCAL_Layer/Interrupt/Interrupt_managment.c: 115:     RB7_ISR(1);
  3608   001C3E  0E01               	movlw	1
  3609   001C40  ECED  F013         	call	_RB7_ISR
  3610   001C44                     i2l6745:
  3611                           
  3612                           ;MCAL_Layer/Interrupt/Interrupt_managment.c: 117:     if((INTCONbits.RBIE==1 && INTCONbi
      +                          ts.RBIF==1)&& (PORTBbits.RB7==0)&&(flage_7==0)){
  3613   001C44  A6F2               	btfss	242,3,c	;volatile
  3614   001C46  EF27  F00E         	goto	i2u633_41
  3615   001C4A  EF29  F00E         	goto	i2u633_40
  3616   001C4E                     i2u633_41:
  3617   001C4E  EF44  F00E         	goto	i2l6757
  3618   001C52                     i2u633_40:
  3619   001C52  A0F2               	btfss	242,0,c	;volatile
  3620   001C54  EF2E  F00E         	goto	i2u634_41
  3621   001C58  EF30  F00E         	goto	i2u634_40
  3622   001C5C                     i2u634_41:
  3623   001C5C  EF44  F00E         	goto	i2l6757
  3624   001C60                     i2u634_40:
  3625   001C60  BE81               	btfsc	129,7,c	;volatile
  3626   001C62  EF35  F00E         	goto	i2u635_41
  3627   001C66  EF37  F00E         	goto	i2u635_40
  3628   001C6A                     i2u635_41:
  3629   001C6A  EF44  F00E         	goto	i2l6757
  3630   001C6E                     i2u635_40:
  3631   001C6E  506D               	movf	_flage_7^0,w,c	;volatile
  3632   001C70  A4D8               	btfss	status,2,c
  3633   001C72  EF3D  F00E         	goto	i2u636_41
  3634   001C76  EF3F  F00E         	goto	i2u636_40
  3635   001C7A                     i2u636_41:
  3636   001C7A  EF44  F00E         	goto	i2l6757
  3637   001C7E                     i2u636_40:
  3638   001C7E                     
  3639                           ;MCAL_Layer/Interrupt/Interrupt_managment.c: 118:         flage_7=1;
  3640   001C7E  0E01               	movlw	1
  3641   001C80  6E6D               	movwf	_flage_7^0,c	;volatile
  3642   001C82                     
  3643                           ;MCAL_Layer/Interrupt/Interrupt_managment.c: 119:     RB7_ISR(0);
  3644   001C82  0E00               	movlw	0
  3645   001C84  ECED  F013         	call	_RB7_ISR
  3646   001C88                     i2l6757:
  3647                           
  3648                           ;MCAL_Layer/Interrupt/Interrupt_managment.c: 123:     if((PIE1bits.ADIE==1) && (PIR1bits
      +                          .ADIF==1)){
  3649   001C88  AC9D               	btfss	157,6,c	;volatile
  3650   001C8A  EF49  F00E         	goto	i2u637_41
  3651   001C8E  EF4B  F00E         	goto	i2u637_40
  3652   001C92                     i2u637_41:
  3653   001C92  EF54  F00E         	goto	i2l6763
  3654   001C96                     i2u637_40:
  3655   001C96  AC9E               	btfss	158,6,c	;volatile
  3656   001C98  EF50  F00E         	goto	i2u638_41
  3657   001C9C  EF52  F00E         	goto	i2u638_40
  3658   001CA0                     i2u638_41:
  3659   001CA0  EF54  F00E         	goto	i2l6763
  3660   001CA4                     i2u638_40:
  3661   001CA4                     
  3662                           ;MCAL_Layer/Interrupt/Interrupt_managment.c: 124:         ADC_ISR();
  3663   001CA4  EC71  F014         	call	_ADC_ISR	;wreg free
  3664   001CA8                     i2l6763:
  3665                           
  3666                           ;MCAL_Layer/Interrupt/Interrupt_managment.c: 129:     if((INTCONbits.TMR0IE==1) && (INTC
      +                          ONbits.TMR0IF==1)){
  3667   001CA8  AAF2               	btfss	242,5,c	;volatile
  3668   001CAA  EF59  F00E         	goto	i2u639_41
  3669   001CAE  EF5B  F00E         	goto	i2u639_40
  3670   001CB2                     i2u639_41:
  3671   001CB2  EF64  F00E         	goto	i2l6769
  3672   001CB6                     i2u639_40:
  3673   001CB6  A4F2               	btfss	242,2,c	;volatile
  3674   001CB8  EF60  F00E         	goto	i2u640_41
  3675   001CBC  EF62  F00E         	goto	i2u640_40
  3676   001CC0                     i2u640_41:
  3677   001CC0  EF64  F00E         	goto	i2l6769
  3678   001CC4                     i2u640_40:
  3679   001CC4                     
  3680                           ;MCAL_Layer/Interrupt/Interrupt_managment.c: 130:         TIMER0_ISR();
  3681   001CC4  EC4C  F014         	call	_TIMER0_ISR	;wreg free
  3682   001CC8                     i2l6769:
  3683                           
  3684                           ;MCAL_Layer/Interrupt/Interrupt_managment.c: 135:     if((PIE1bits.TMR1IE==1) && (PIR1bi
      +                          ts.TMR1IF==1)){
  3685   001CC8  A09D               	btfss	157,0,c	;volatile
  3686   001CCA  EF69  F00E         	goto	i2u641_41
  3687   001CCE  EF6B  F00E         	goto	i2u641_40
  3688   001CD2                     i2u641_41:
  3689   001CD2  EF74  F00E         	goto	i2l6775
  3690   001CD6                     i2u641_40:
  3691   001CD6  A09E               	btfss	158,0,c	;volatile
  3692   001CD8  EF70  F00E         	goto	i2u642_41
  3693   001CDC  EF72  F00E         	goto	i2u642_40
  3694   001CE0                     i2u642_41:
  3695   001CE0  EF74  F00E         	goto	i2l6775
  3696   001CE4                     i2u642_40:
  3697   001CE4                     
  3698                           ;MCAL_Layer/Interrupt/Interrupt_managment.c: 136:         TIMER1_ISR();
  3699   001CE4  EC46  F014         	call	_TIMER1_ISR	;wreg free
  3700   001CE8                     i2l6775:
  3701                           
  3702                           ;MCAL_Layer/Interrupt/Interrupt_managment.c: 141:     if((PIE1bits.TMR2IE==1) && (PIR1bi
      +                          ts.TMR2IF==1)){
  3703   001CE8  A29D               	btfss	157,1,c	;volatile
  3704   001CEA  EF79  F00E         	goto	i2u643_41
  3705   001CEE  EF7B  F00E         	goto	i2u643_40
  3706   001CF2                     i2u643_41:
  3707   001CF2  EF84  F00E         	goto	i2l6781
  3708   001CF6                     i2u643_40:
  3709   001CF6  A29E               	btfss	158,1,c	;volatile
  3710   001CF8  EF80  F00E         	goto	i2u644_41
  3711   001CFC  EF82  F00E         	goto	i2u644_40
  3712   001D00                     i2u644_41:
  3713   001D00  EF84  F00E         	goto	i2l6781
  3714   001D04                     i2u644_40:
  3715   001D04                     
  3716                           ;MCAL_Layer/Interrupt/Interrupt_managment.c: 142:         TIMER2_ISR();
  3717   001D04  EC52  F014         	call	_TIMER2_ISR	;wreg free
  3718   001D08                     i2l6781:
  3719                           
  3720                           ;MCAL_Layer/Interrupt/Interrupt_managment.c: 147:     if((PIE2bits.TMR3IE==1) && (PIR2bi
      +                          ts.TMR3IF==1)){
  3721   001D08  A2A0               	btfss	160,1,c	;volatile
  3722   001D0A  EF89  F00E         	goto	i2u645_41
  3723   001D0E  EF8B  F00E         	goto	i2u645_40
  3724   001D12                     i2u645_41:
  3725   001D12  EF94  F00E         	goto	i2l6787
  3726   001D16                     i2u645_40:
  3727   001D16  A2A1               	btfss	161,1,c	;volatile
  3728   001D18  EF90  F00E         	goto	i2u646_41
  3729   001D1C  EF92  F00E         	goto	i2u646_40
  3730   001D20                     i2u646_41:
  3731   001D20  EF94  F00E         	goto	i2l6787
  3732   001D24                     i2u646_40:
  3733   001D24                     
  3734                           ;MCAL_Layer/Interrupt/Interrupt_managment.c: 148:         TIMER3_ISR();
  3735   001D24  EC40  F014         	call	_TIMER3_ISR	;wreg free
  3736   001D28                     i2l6787:
  3737                           
  3738                           ;MCAL_Layer/Interrupt/Interrupt_managment.c: 152:     if((PIE1bits.CCP1IE==1) && (PIR1bi
      +                          ts.CCP1IF==1)){
  3739   001D28  A49D               	btfss	157,2,c	;volatile
  3740   001D2A  EF99  F00E         	goto	i2u647_41
  3741   001D2E  EF9B  F00E         	goto	i2u647_40
  3742   001D32                     i2u647_41:
  3743   001D32  EFA4  F00E         	goto	i2l6793
  3744   001D36                     i2u647_40:
  3745   001D36  A49E               	btfss	158,2,c	;volatile
  3746   001D38  EFA0  F00E         	goto	i2u648_41
  3747   001D3C  EFA2  F00E         	goto	i2u648_40
  3748   001D40                     i2u648_41:
  3749   001D40  EFA4  F00E         	goto	i2l6793
  3750   001D44                     i2u648_40:
  3751   001D44                     
  3752                           ;MCAL_Layer/Interrupt/Interrupt_managment.c: 153:         CCP1_ISR();
  3753   001D44  EC6F  F014         	call	_CCP1_ISR	;wreg free
  3754   001D48                     i2l6793:
  3755                           
  3756                           ;MCAL_Layer/Interrupt/Interrupt_managment.c: 157:     if((PIE2bits.CCP2IE==1) && (PIR2bi
      +                          ts.CCP2IF==1)){
  3757   001D48  A0A0               	btfss	160,0,c	;volatile
  3758   001D4A  EFA9  F00E         	goto	i2u649_41
  3759   001D4E  EFAB  F00E         	goto	i2u649_40
  3760   001D52                     i2u649_41:
  3761   001D52  EFB4  F00E         	goto	i2l6799
  3762   001D56                     i2u649_40:
  3763   001D56  A0A1               	btfss	161,0,c	;volatile
  3764   001D58  EFB0  F00E         	goto	i2u650_41
  3765   001D5C  EFB2  F00E         	goto	i2u650_40
  3766   001D60                     i2u650_41:
  3767   001D60  EFB4  F00E         	goto	i2l6799
  3768   001D64                     i2u650_40:
  3769   001D64                     
  3770                           ;MCAL_Layer/Interrupt/Interrupt_managment.c: 158:         CCP2_ISR();
  3771   001D64  EC6D  F014         	call	_CCP2_ISR	;wreg free
  3772   001D68                     i2l6799:
  3773                           
  3774                           ;MCAL_Layer/Interrupt/Interrupt_managment.c: 163:     if((PIE1bits.TXIE==1) && (PIR1bits
      +                          .TXIF==1)){
  3775   001D68  A89D               	btfss	157,4,c	;volatile
  3776   001D6A  EFB9  F00E         	goto	i2u651_41
  3777   001D6E  EFBB  F00E         	goto	i2u651_40
  3778   001D72                     i2u651_41:
  3779   001D72  EFC4  F00E         	goto	i2l6805
  3780   001D76                     i2u651_40:
  3781   001D76  A89E               	btfss	158,4,c	;volatile
  3782   001D78  EFC0  F00E         	goto	i2u652_41
  3783   001D7C  EFC2  F00E         	goto	i2u652_40
  3784   001D80                     i2u652_41:
  3785   001D80  EFC4  F00E         	goto	i2l6805
  3786   001D84                     i2u652_40:
  3787   001D84                     
  3788                           ;MCAL_Layer/Interrupt/Interrupt_managment.c: 164:         EUSART_TX_ISR();
  3789   001D84  ECD6  F013         	call	_EUSART_TX_ISR	;wreg free
  3790   001D88                     i2l6805:
  3791                           
  3792                           ;MCAL_Layer/Interrupt/Interrupt_managment.c: 168:     if((PIE1bits.RCIE==1) && (PIR1bits
      +                          .RCIF==1)){
  3793   001D88  AA9D               	btfss	157,5,c	;volatile
  3794   001D8A  EFC9  F00E         	goto	i2u653_41
  3795   001D8E  EFCB  F00E         	goto	i2u653_40
  3796   001D92                     i2u653_41:
  3797   001D92  EFD4  F00E         	goto	i2l6811
  3798   001D96                     i2u653_40:
  3799   001D96  AA9E               	btfss	158,5,c	;volatile
  3800   001D98  EFD0  F00E         	goto	i2u654_41
  3801   001D9C  EFD2  F00E         	goto	i2u654_40
  3802   001DA0                     i2u654_41:
  3803   001DA0  EFD4  F00E         	goto	i2l6811
  3804   001DA4                     i2u654_40:
  3805   001DA4                     
  3806                           ;MCAL_Layer/Interrupt/Interrupt_managment.c: 169:         EUSART_RX_ISR();
  3807   001DA4  ECBE  F012         	call	_EUSART_RX_ISR	;wreg free
  3808   001DA8                     i2l6811:
  3809                           
  3810                           ;MCAL_Layer/Interrupt/Interrupt_managment.c: 173:     if((PIE1bits.PSPIE==1) && (PIR1bit
      +                          s.PSPIF==1)){
  3811   001DA8  AE9D               	btfss	157,7,c	;volatile
  3812   001DAA  EFD9  F00E         	goto	i2u655_41
  3813   001DAE  EFDB  F00E         	goto	i2u655_40
  3814   001DB2                     i2u655_41:
  3815   001DB2  EFDC  F00E         	goto	i2l775
  3816   001DB6                     i2u655_40:
  3817   001DB6  509E               	movf	158,w,c	;volatile
  3818   001DB8                     i2l775:
  3819                           
  3820                           ;MCAL_Layer/Interrupt/Interrupt_managment.c: 178:     if((PIE1bits.SSPIE==1) && (PIR1bit
      +                          s.SSPIF==1)){
  3821   001DB8  A69D               	btfss	157,3,c	;volatile
  3822   001DBA  EFE1  F00E         	goto	i2u656_41
  3823   001DBE  EFE3  F00E         	goto	i2u656_40
  3824   001DC2                     i2u656_41:
  3825   001DC2  EFE4  F00E         	goto	i2l777
  3826   001DC6                     i2u656_40:
  3827   001DC6  509E               	movf	158,w,c	;volatile
  3828   001DC8                     i2l777:
  3829   001DC8  C00E  FFF5         	movff	??_InterruptManagmentHigh+5,tablat
  3830   001DCC  C00D  FFF8         	movff	??_InterruptManagmentHigh+4,tblptru
  3831   001DD0  C00C  FFF7         	movff	??_InterruptManagmentHigh+3,tblptrh
  3832   001DD4  C00B  FFF6         	movff	??_InterruptManagmentHigh+2,tblptrl
  3833   001DD8  C00A  FFFB         	movff	??_InterruptManagmentHigh+1,pclatu
  3834   001DDC  C009  FFFA         	movff	??_InterruptManagmentHigh,pclath
  3835   001DE0  9271               	bcf	int$flags,1,c	;clear compiler interrupt flag (level 2)
  3836   001DE2  0011               	retfie		f
  3837   001DE4                     __end_of_InterruptManagmentHigh:
  3838                           	callstack 0
  3839                           
  3840 ;; *************** function _TIMER3_ISR *****************
  3841 ;; Defined at:
  3842 ;;		line 109 in file "MCAL_Layer/Timer3/timer3.c"
  3843 ;; Parameters:    Size  Location     Type
  3844 ;;		None
  3845 ;; Auto vars:     Size  Location     Type
  3846 ;;		None
  3847 ;; Return value:  Size  Location     Type
  3848 ;;                  1    wreg      void 
  3849 ;; Registers used:
  3850 ;;		wreg, status,2
  3851 ;; Tracked objects:
  3852 ;;		On entry : 0/0
  3853 ;;		On exit  : 0/0
  3854 ;;		Unchanged: 0/0
  3855 ;; Data sizes:     COMRAM   BANK0   BANK1   BANK2   BANK3   BANK4   BANK5   BANK6   BANK7   BANK8   BANK9  BANK10  BANK1
      +1  BANK12  BANK13  BANK14  BANK15
  3856 ;;      Params:         0       0       0       0       0       0       0       0       0       0       0       0       
      +0       0       0       0       0
  3857 ;;      Locals:         0       0       0       0       0       0       0       0       0       0       0       0       
      +0       0       0       0       0
  3858 ;;      Temps:          0       0       0       0       0       0       0       0       0       0       0       0       
      +0       0       0       0       0
  3859 ;;      Totals:         0       0       0       0       0       0       0       0       0       0       0       0       
      +0       0       0       0       0
  3860 ;;Total ram usage:        0 bytes
  3861 ;; Hardware stack levels used: 1
  3862 ;; This function calls:
  3863 ;;		Nothing
  3864 ;; This function is called by:
  3865 ;;		_InterruptManagmentHigh
  3866 ;; This function uses a non-reentrant model
  3867 ;;
  3868                           
  3869                           	psect	text10
  3870   002880                     __ptext10:
  3871                           	callstack 0
  3872   002880                     _TIMER3_ISR:
  3873                           	callstack 26
  3874   002880                     
  3875                           ;MCAL_Layer/Timer3/timer3.c: 110:     (PIR2bits.TMR3IF=0);
  3876   002880  92A1               	bcf	161,1,c	;volatile
  3877   002882                     
  3878                           ;MCAL_Layer/Timer3/timer3.c: 111:     TMR3H=timer3_preload>>8;
  3879   002882  504F               	movf	(_timer3_preload+1)^0,w,c
  3880   002884  6EB3               	movwf	179,c	;volatile
  3881   002886                     
  3882                           ;MCAL_Layer/Timer3/timer3.c: 112:             TMR3L =(uint8)timer3_preload;
  3883   002886  C04E  FFB2         	movff	_timer3_preload,4018	;volatile
  3884   00288A  0012               	return		;funcret
  3885   00288C                     __end_of_TIMER3_ISR:
  3886                           	callstack 0
  3887                           
  3888 ;; *************** function _TIMER2_ISR *****************
  3889 ;; Defined at:
  3890 ;;		line 99 in file "MCAL_Layer/Timer2/timer2.c"
  3891 ;; Parameters:    Size  Location     Type
  3892 ;;		None
  3893 ;; Auto vars:     Size  Location     Type
  3894 ;;		None
  3895 ;; Return value:  Size  Location     Type
  3896 ;;                  1    wreg      void 
  3897 ;; Registers used:
  3898 ;;		None
  3899 ;; Tracked objects:
  3900 ;;		On entry : 0/0
  3901 ;;		On exit  : 0/0
  3902 ;;		Unchanged: 0/0
  3903 ;; Data sizes:     COMRAM   BANK0   BANK1   BANK2   BANK3   BANK4   BANK5   BANK6   BANK7   BANK8   BANK9  BANK10  BANK1
      +1  BANK12  BANK13  BANK14  BANK15
  3904 ;;      Params:         0       0       0       0       0       0       0       0       0       0       0       0       
      +0       0       0       0       0
  3905 ;;      Locals:         0       0       0       0       0       0       0       0       0       0       0       0       
      +0       0       0       0       0
  3906 ;;      Temps:          0       0       0       0       0       0       0       0       0       0       0       0       
      +0       0       0       0       0
  3907 ;;      Totals:         0       0       0       0       0       0       0       0       0       0       0       0       
      +0       0       0       0       0
  3908 ;;Total ram usage:        0 bytes
  3909 ;; Hardware stack levels used: 1
  3910 ;; This function calls:
  3911 ;;		Nothing
  3912 ;; This function is called by:
  3913 ;;		_InterruptManagmentHigh
  3914 ;; This function uses a non-reentrant model
  3915 ;;
  3916                           
  3917                           	psect	text11
  3918   0028A4                     __ptext11:
  3919                           	callstack 0
  3920   0028A4                     _TIMER2_ISR:
  3921                           	callstack 26
  3922   0028A4  929E               	bcf	158,1,c	;volatile
  3923   0028A6  C064  FFCC         	movff	_timer2_preload,4044	;volatile
  3924   0028AA  0012               	return		;funcret
  3925   0028AC                     __end_of_TIMER2_ISR:
  3926                           	callstack 0
  3927                           
  3928 ;; *************** function _TIMER1_ISR *****************
  3929 ;; Defined at:
  3930 ;;		line 161 in file "MCAL_Layer/Timer1/timer1.c"
  3931 ;; Parameters:    Size  Location     Type
  3932 ;;		None
  3933 ;; Auto vars:     Size  Location     Type
  3934 ;;		None
  3935 ;; Return value:  Size  Location     Type
  3936 ;;                  1    wreg      void 
  3937 ;; Registers used:
  3938 ;;		wreg, status,2
  3939 ;; Tracked objects:
  3940 ;;		On entry : 0/0
  3941 ;;		On exit  : 0/0
  3942 ;;		Unchanged: 0/0
  3943 ;; Data sizes:     COMRAM   BANK0   BANK1   BANK2   BANK3   BANK4   BANK5   BANK6   BANK7   BANK8   BANK9  BANK10  BANK1
      +1  BANK12  BANK13  BANK14  BANK15
  3944 ;;      Params:         0       0       0       0       0       0       0       0       0       0       0       0       
      +0       0       0       0       0
  3945 ;;      Locals:         0       0       0       0       0       0       0       0       0       0       0       0       
      +0       0       0       0       0
  3946 ;;      Temps:          0       0       0       0       0       0       0       0       0       0       0       0       
      +0       0       0       0       0
  3947 ;;      Totals:         0       0       0       0       0       0       0       0       0       0       0       0       
      +0       0       0       0       0
  3948 ;;Total ram usage:        0 bytes
  3949 ;; Hardware stack levels used: 1
  3950 ;; This function calls:
  3951 ;;		Nothing
  3952 ;; This function is called by:
  3953 ;;		_InterruptManagmentHigh
  3954 ;; This function uses a non-reentrant model
  3955 ;;
  3956                           
  3957                           	psect	text12
  3958   00288C                     __ptext12:
  3959                           	callstack 0
  3960   00288C                     _TIMER1_ISR:
  3961                           	callstack 26
  3962   00288C                     
  3963                           ;MCAL_Layer/Timer1/timer1.c: 162:     (PIR1bits.TMR1IF=0);
  3964   00288C  909E               	bcf	158,0,c	;volatile
  3965   00288E                     
  3966                           ;MCAL_Layer/Timer1/timer1.c: 163:     TMR1H=timer1_preload>>8;
  3967   00288E  5051               	movf	(_timer1_preload+1)^0,w,c
  3968   002890  6ECF               	movwf	207,c	;volatile
  3969   002892                     
  3970                           ;MCAL_Layer/Timer1/timer1.c: 164:     TMR1L =(uint8)timer1_preload;
  3971   002892  C050  FFCE         	movff	_timer1_preload,4046	;volatile
  3972   002896  0012               	return		;funcret
  3973   002898                     __end_of_TIMER1_ISR:
  3974                           	callstack 0
  3975                           
  3976 ;; *************** function _TIMER0_ISR *****************
  3977 ;; Defined at:
  3978 ;;		line 162 in file "MCAL_Layer/Timer/timer0.c"
  3979 ;; Parameters:    Size  Location     Type
  3980 ;;		None
  3981 ;; Auto vars:     Size  Location     Type
  3982 ;;		None
  3983 ;; Return value:  Size  Location     Type
  3984 ;;                  1    wreg      void 
  3985 ;; Registers used:
  3986 ;;		wreg, status,2
  3987 ;; Tracked objects:
  3988 ;;		On entry : 0/0
  3989 ;;		On exit  : 0/0
  3990 ;;		Unchanged: 0/0
  3991 ;; Data sizes:     COMRAM   BANK0   BANK1   BANK2   BANK3   BANK4   BANK5   BANK6   BANK7   BANK8   BANK9  BANK10  BANK1
      +1  BANK12  BANK13  BANK14  BANK15
  3992 ;;      Params:         0       0       0       0       0       0       0       0       0       0       0       0       
      +0       0       0       0       0
  3993 ;;      Locals:         0       0       0       0       0       0       0       0       0       0       0       0       
      +0       0       0       0       0
  3994 ;;      Temps:          0       0       0       0       0       0       0       0       0       0       0       0       
      +0       0       0       0       0
  3995 ;;      Totals:         0       0       0       0       0       0       0       0       0       0       0       0       
      +0       0       0       0       0
  3996 ;;Total ram usage:        0 bytes
  3997 ;; Hardware stack levels used: 1
  3998 ;; This function calls:
  3999 ;;		Nothing
  4000 ;; This function is called by:
  4001 ;;		_InterruptManagmentHigh
  4002 ;; This function uses a non-reentrant model
  4003 ;;
  4004                           
  4005                           	psect	text13
  4006   002898                     __ptext13:
  4007                           	callstack 0
  4008   002898                     _TIMER0_ISR:
  4009                           	callstack 26
  4010   002898                     
  4011                           ;MCAL_Layer/Timer/timer0.c: 163:     (INTCONbits.TMR0IF=0);
  4012   002898  94F2               	bcf	242,2,c	;volatile
  4013   00289A                     
  4014                           ;MCAL_Layer/Timer/timer0.c: 164:     TMR0H=timer0_preload>>8;
  4015   00289A  5053               	movf	(_timer0_preload+1)^0,w,c
  4016   00289C  6ED7               	movwf	215,c	;volatile
  4017   00289E                     
  4018                           ;MCAL_Layer/Timer/timer0.c: 165:     TMR0L =(uint8)timer0_preload;
  4019   00289E  C052  FFD6         	movff	_timer0_preload,4054	;volatile
  4020   0028A2  0012               	return		;funcret
  4021   0028A4                     __end_of_TIMER0_ISR:
  4022                           	callstack 0
  4023                           
  4024 ;; *************** function _RB7_ISR *****************
  4025 ;; Defined at:
  4026 ;;		line 434 in file "MCAL_Layer/Interrupt/Interrupt_external.c"
  4027 ;; Parameters:    Size  Location     Type
  4028 ;;  flage           1    wreg     unsigned char 
  4029 ;; Auto vars:     Size  Location     Type
  4030 ;;  flage           1    0[COMRAM] unsigned char 
  4031 ;; Return value:  Size  Location     Type
  4032 ;;                  1    wreg      void 
  4033 ;; Registers used:
  4034 ;;		wreg, status,2, status,0
  4035 ;; Tracked objects:
  4036 ;;		On entry : 0/0
  4037 ;;		On exit  : 0/0
  4038 ;;		Unchanged: 0/0
  4039 ;; Data sizes:     COMRAM   BANK0   BANK1   BANK2   BANK3   BANK4   BANK5   BANK6   BANK7   BANK8   BANK9  BANK10  BANK1
      +1  BANK12  BANK13  BANK14  BANK15
  4040 ;;      Params:         0       0       0       0       0       0       0       0       0       0       0       0       
      +0       0       0       0       0
  4041 ;;      Locals:         1       0       0       0       0       0       0       0       0       0       0       0       
      +0       0       0       0       0
  4042 ;;      Temps:          0       0       0       0       0       0       0       0       0       0       0       0       
      +0       0       0       0       0
  4043 ;;      Totals:         1       0       0       0       0       0       0       0       0       0       0       0       
      +0       0       0       0       0
  4044 ;;Total ram usage:        1 bytes
  4045 ;; Hardware stack levels used: 1
  4046 ;; This function calls:
  4047 ;;		Nothing
  4048 ;; This function is called by:
  4049 ;;		_InterruptManagmentHigh
  4050 ;; This function uses a non-reentrant model
  4051 ;;
  4052                           
  4053                           	psect	text14
  4054   0027DA                     __ptext14:
  4055                           	callstack 0
  4056   0027DA                     _RB7_ISR:
  4057                           	callstack 26
  4058                           
  4059                           ;incstack = 0
  4060                           ;RB7_ISR@flage stored from wreg
  4061   0027DA  6E01               	movwf	RB7_ISR@flage^0,c
  4062   0027DC                     
  4063                           ;MCAL_Layer/Interrupt/Interrupt_external.c: 435:    (INTCONbits.RBIF=0);
  4064   0027DC  90F2               	bcf	242,0,c	;volatile
  4065   0027DE                     
  4066                           ;MCAL_Layer/Interrupt/Interrupt_external.c: 436:     if(flage==1){
  4067   0027DE  0401               	decf	RB7_ISR@flage^0,w,c
  4068   0027E0  A4D8               	btfss	status,2,c
  4069   0027E2  EFF5  F013         	goto	i2u487_41
  4070   0027E6  EFF7  F013         	goto	i2u487_40
  4071   0027EA                     i2u487_41:
  4072   0027EA  EFF9  F013         	goto	i2l5625
  4073   0027EE                     i2u487_40:
  4074   0027EE  EFF9  F013         	goto	i2l956
  4075   0027F2                     i2l5625:
  4076   0027F2                     i2l956:
  4077   0027F2  0012               	return		;funcret
  4078   0027F4                     __end_of_RB7_ISR:
  4079                           	callstack 0
  4080                           
  4081 ;; *************** function _RB6_ISR *****************
  4082 ;; Defined at:
  4083 ;;		line 416 in file "MCAL_Layer/Interrupt/Interrupt_external.c"
  4084 ;; Parameters:    Size  Location     Type
  4085 ;;  flage           1    wreg     unsigned char 
  4086 ;; Auto vars:     Size  Location     Type
  4087 ;;  flage           1    0[COMRAM] unsigned char 
  4088 ;; Return value:  Size  Location     Type
  4089 ;;                  1    wreg      void 
  4090 ;; Registers used:
  4091 ;;		wreg, status,2, status,0
  4092 ;; Tracked objects:
  4093 ;;		On entry : 0/0
  4094 ;;		On exit  : 0/0
  4095 ;;		Unchanged: 0/0
  4096 ;; Data sizes:     COMRAM   BANK0   BANK1   BANK2   BANK3   BANK4   BANK5   BANK6   BANK7   BANK8   BANK9  BANK10  BANK1
      +1  BANK12  BANK13  BANK14  BANK15
  4097 ;;      Params:         0       0       0       0       0       0       0       0       0       0       0       0       
      +0       0       0       0       0
  4098 ;;      Locals:         1       0       0       0       0       0       0       0       0       0       0       0       
      +0       0       0       0       0
  4099 ;;      Temps:          0       0       0       0       0       0       0       0       0       0       0       0       
      +0       0       0       0       0
  4100 ;;      Totals:         1       0       0       0       0       0       0       0       0       0       0       0       
      +0       0       0       0       0
  4101 ;;Total ram usage:        1 bytes
  4102 ;; Hardware stack levels used: 1
  4103 ;; This function calls:
  4104 ;;		Nothing
  4105 ;; This function is called by:
  4106 ;;		_InterruptManagmentHigh
  4107 ;; This function uses a non-reentrant model
  4108 ;;
  4109                           
  4110                           	psect	text15
  4111   0027F4                     __ptext15:
  4112                           	callstack 0
  4113   0027F4                     _RB6_ISR:
  4114                           	callstack 26
  4115                           
  4116                           ;incstack = 0
  4117                           ;RB6_ISR@flage stored from wreg
  4118   0027F4  6E01               	movwf	RB6_ISR@flage^0,c
  4119   0027F6                     
  4120                           ;MCAL_Layer/Interrupt/Interrupt_external.c: 417:    (INTCONbits.RBIF=0);
  4121   0027F6  90F2               	bcf	242,0,c	;volatile
  4122   0027F8                     
  4123                           ;MCAL_Layer/Interrupt/Interrupt_external.c: 418:     if(flage==1){
  4124   0027F8  0401               	decf	RB6_ISR@flage^0,w,c
  4125   0027FA  A4D8               	btfss	status,2,c
  4126   0027FC  EF02  F014         	goto	i2u486_41
  4127   002800  EF04  F014         	goto	i2u486_40
  4128   002804                     i2u486_41:
  4129   002804  EF06  F014         	goto	i2l5615
  4130   002808                     i2u486_40:
  4131   002808  EF06  F014         	goto	i2l947
  4132   00280C                     i2l5615:
  4133   00280C                     i2l947:
  4134   00280C  0012               	return		;funcret
  4135   00280E                     __end_of_RB6_ISR:
  4136                           	callstack 0
  4137                           
  4138 ;; *************** function _RB5_ISR *****************
  4139 ;; Defined at:
  4140 ;;		line 398 in file "MCAL_Layer/Interrupt/Interrupt_external.c"
  4141 ;; Parameters:    Size  Location     Type
  4142 ;;  flage           1    wreg     unsigned char 
  4143 ;; Auto vars:     Size  Location     Type
  4144 ;;  flage           1    0[COMRAM] unsigned char 
  4145 ;; Return value:  Size  Location     Type
  4146 ;;                  1    wreg      void 
  4147 ;; Registers used:
  4148 ;;		wreg, status,2, status,0
  4149 ;; Tracked objects:
  4150 ;;		On entry : 0/0
  4151 ;;		On exit  : 0/0
  4152 ;;		Unchanged: 0/0
  4153 ;; Data sizes:     COMRAM   BANK0   BANK1   BANK2   BANK3   BANK4   BANK5   BANK6   BANK7   BANK8   BANK9  BANK10  BANK1
      +1  BANK12  BANK13  BANK14  BANK15
  4154 ;;      Params:         0       0       0       0       0       0       0       0       0       0       0       0       
      +0       0       0       0       0
  4155 ;;      Locals:         1       0       0       0       0       0       0       0       0       0       0       0       
      +0       0       0       0       0
  4156 ;;      Temps:          0       0       0       0       0       0       0       0       0       0       0       0       
      +0       0       0       0       0
  4157 ;;      Totals:         1       0       0       0       0       0       0       0       0       0       0       0       
      +0       0       0       0       0
  4158 ;;Total ram usage:        1 bytes
  4159 ;; Hardware stack levels used: 1
  4160 ;; This function calls:
  4161 ;;		Nothing
  4162 ;; This function is called by:
  4163 ;;		_InterruptManagmentHigh
  4164 ;; This function uses a non-reentrant model
  4165 ;;
  4166                           
  4167                           	psect	text16
  4168   00280E                     __ptext16:
  4169                           	callstack 0
  4170   00280E                     _RB5_ISR:
  4171                           	callstack 26
  4172                           
  4173                           ;incstack = 0
  4174                           ;RB5_ISR@flage stored from wreg
  4175   00280E  6E01               	movwf	RB5_ISR@flage^0,c
  4176   002810                     
  4177                           ;MCAL_Layer/Interrupt/Interrupt_external.c: 399:    (INTCONbits.RBIF=0);
  4178   002810  90F2               	bcf	242,0,c	;volatile
  4179   002812                     
  4180                           ;MCAL_Layer/Interrupt/Interrupt_external.c: 400:     if(flage==1){
  4181   002812  0401               	decf	RB5_ISR@flage^0,w,c
  4182   002814  A4D8               	btfss	status,2,c
  4183   002816  EF0F  F014         	goto	i2u485_41
  4184   00281A  EF11  F014         	goto	i2u485_40
  4185   00281E                     i2u485_41:
  4186   00281E  EF13  F014         	goto	i2l5605
  4187   002822                     i2u485_40:
  4188   002822  EF13  F014         	goto	i2l938
  4189   002826                     i2l5605:
  4190   002826                     i2l938:
  4191   002826  0012               	return		;funcret
  4192   002828                     __end_of_RB5_ISR:
  4193                           	callstack 0
  4194                           
  4195 ;; *************** function _RB4_ISR *****************
  4196 ;; Defined at:
  4197 ;;		line 380 in file "MCAL_Layer/Interrupt/Interrupt_external.c"
  4198 ;; Parameters:    Size  Location     Type
  4199 ;;  flage           1    wreg     unsigned char 
  4200 ;; Auto vars:     Size  Location     Type
  4201 ;;  flage           1    0[COMRAM] unsigned char 
  4202 ;; Return value:  Size  Location     Type
  4203 ;;                  1    wreg      void 
  4204 ;; Registers used:
  4205 ;;		wreg, status,2, status,0
  4206 ;; Tracked objects:
  4207 ;;		On entry : 0/0
  4208 ;;		On exit  : 0/0
  4209 ;;		Unchanged: 0/0
  4210 ;; Data sizes:     COMRAM   BANK0   BANK1   BANK2   BANK3   BANK4   BANK5   BANK6   BANK7   BANK8   BANK9  BANK10  BANK1
      +1  BANK12  BANK13  BANK14  BANK15
  4211 ;;      Params:         0       0       0       0       0       0       0       0       0       0       0       0       
      +0       0       0       0       0
  4212 ;;      Locals:         1       0       0       0       0       0       0       0       0       0       0       0       
      +0       0       0       0       0
  4213 ;;      Temps:          0       0       0       0       0       0       0       0       0       0       0       0       
      +0       0       0       0       0
  4214 ;;      Totals:         1       0       0       0       0       0       0       0       0       0       0       0       
      +0       0       0       0       0
  4215 ;;Total ram usage:        1 bytes
  4216 ;; Hardware stack levels used: 1
  4217 ;; This function calls:
  4218 ;;		Nothing
  4219 ;; This function is called by:
  4220 ;;		_InterruptManagmentHigh
  4221 ;; This function uses a non-reentrant model
  4222 ;;
  4223                           
  4224                           	psect	text17
  4225   002828                     __ptext17:
  4226                           	callstack 0
  4227   002828                     _RB4_ISR:
  4228                           	callstack 26
  4229                           
  4230                           ;incstack = 0
  4231                           ;RB4_ISR@flage stored from wreg
  4232   002828  6E01               	movwf	RB4_ISR@flage^0,c
  4233   00282A                     
  4234                           ;MCAL_Layer/Interrupt/Interrupt_external.c: 381:     (INTCONbits.RBIF=0);
  4235   00282A  90F2               	bcf	242,0,c	;volatile
  4236   00282C                     
  4237                           ;MCAL_Layer/Interrupt/Interrupt_external.c: 382:     if(flage==1){
  4238   00282C  0401               	decf	RB4_ISR@flage^0,w,c
  4239   00282E  A4D8               	btfss	status,2,c
  4240   002830  EF1C  F014         	goto	i2u484_41
  4241   002834  EF1E  F014         	goto	i2u484_40
  4242   002838                     i2u484_41:
  4243   002838  EF20  F014         	goto	i2l5595
  4244   00283C                     i2u484_40:
  4245   00283C  EF20  F014         	goto	i2l929
  4246   002840                     i2l5595:
  4247   002840                     i2l929:
  4248   002840  0012               	return		;funcret
  4249   002842                     __end_of_RB4_ISR:
  4250                           	callstack 0
  4251                           
  4252 ;; *************** function _INT2_ISR *****************
  4253 ;; Defined at:
  4254 ;;		line 371 in file "MCAL_Layer/Interrupt/Interrupt_external.c"
  4255 ;; Parameters:    Size  Location     Type
  4256 ;;		None
  4257 ;; Auto vars:     Size  Location     Type
  4258 ;;		None
  4259 ;; Return value:  Size  Location     Type
  4260 ;;                  1    wreg      void 
  4261 ;; Registers used:
  4262 ;;		None
  4263 ;; Tracked objects:
  4264 ;;		On entry : 0/0
  4265 ;;		On exit  : 0/0
  4266 ;;		Unchanged: 0/0
  4267 ;; Data sizes:     COMRAM   BANK0   BANK1   BANK2   BANK3   BANK4   BANK5   BANK6   BANK7   BANK8   BANK9  BANK10  BANK1
      +1  BANK12  BANK13  BANK14  BANK15
  4268 ;;      Params:         0       0       0       0       0       0       0       0       0       0       0       0       
      +0       0       0       0       0
  4269 ;;      Locals:         0       0       0       0       0       0       0       0       0       0       0       0       
      +0       0       0       0       0
  4270 ;;      Temps:          0       0       0       0       0       0       0       0       0       0       0       0       
      +0       0       0       0       0
  4271 ;;      Totals:         0       0       0       0       0       0       0       0       0       0       0       0       
      +0       0       0       0       0
  4272 ;;Total ram usage:        0 bytes
  4273 ;; Hardware stack levels used: 1
  4274 ;; This function calls:
  4275 ;;		Nothing
  4276 ;; This function is called by:
  4277 ;;		_InterruptManagmentHigh
  4278 ;; This function uses a non-reentrant model
  4279 ;;
  4280                           
  4281                           	psect	text18
  4282   0028C6                     __ptext18:
  4283                           	callstack 0
  4284   0028C6                     _INT2_ISR:
  4285                           	callstack 26
  4286   0028C6                     
  4287                           ;MCAL_Layer/Interrupt/Interrupt_external.c: 372:     (INTCON3bits.INT2IF=0);
  4288   0028C6  92F0               	bcf	240,1,c	;volatile
  4289   0028C8  0012               	return		;funcret
  4290   0028CA                     __end_of_INT2_ISR:
  4291                           	callstack 0
  4292                           
  4293 ;; *************** function _INT1_ISR *****************
  4294 ;; Defined at:
  4295 ;;		line 364 in file "MCAL_Layer/Interrupt/Interrupt_external.c"
  4296 ;; Parameters:    Size  Location     Type
  4297 ;;		None
  4298 ;; Auto vars:     Size  Location     Type
  4299 ;;		None
  4300 ;; Return value:  Size  Location     Type
  4301 ;;                  1    wreg      void 
  4302 ;; Registers used:
  4303 ;;		None
  4304 ;; Tracked objects:
  4305 ;;		On entry : 0/0
  4306 ;;		On exit  : 0/0
  4307 ;;		Unchanged: 0/0
  4308 ;; Data sizes:     COMRAM   BANK0   BANK1   BANK2   BANK3   BANK4   BANK5   BANK6   BANK7   BANK8   BANK9  BANK10  BANK1
      +1  BANK12  BANK13  BANK14  BANK15
  4309 ;;      Params:         0       0       0       0       0       0       0       0       0       0       0       0       
      +0       0       0       0       0
  4310 ;;      Locals:         0       0       0       0       0       0       0       0       0       0       0       0       
      +0       0       0       0       0
  4311 ;;      Temps:          0       0       0       0       0       0       0       0       0       0       0       0       
      +0       0       0       0       0
  4312 ;;      Totals:         0       0       0       0       0       0       0       0       0       0       0       0       
      +0       0       0       0       0
  4313 ;;Total ram usage:        0 bytes
  4314 ;; Hardware stack levels used: 1
  4315 ;; This function calls:
  4316 ;;		Nothing
  4317 ;; This function is called by:
  4318 ;;		_InterruptManagmentHigh
  4319 ;; This function uses a non-reentrant model
  4320 ;;
  4321                           
  4322                           	psect	text19
  4323   0028CA                     __ptext19:
  4324                           	callstack 0
  4325   0028CA                     _INT1_ISR:
  4326                           	callstack 26
  4327   0028CA                     
  4328                           ;MCAL_Layer/Interrupt/Interrupt_external.c: 365:     (INTCON3bits.INT1IF=0);
  4329   0028CA  90F0               	bcf	240,0,c	;volatile
  4330   0028CC  0012               	return		;funcret
  4331   0028CE                     __end_of_INT1_ISR:
  4332                           	callstack 0
  4333                           
  4334 ;; *************** function _INT0_ISR *****************
  4335 ;; Defined at:
  4336 ;;		line 357 in file "MCAL_Layer/Interrupt/Interrupt_external.c"
  4337 ;; Parameters:    Size  Location     Type
  4338 ;;		None
  4339 ;; Auto vars:     Size  Location     Type
  4340 ;;		None
  4341 ;; Return value:  Size  Location     Type
  4342 ;;                  1    wreg      void 
  4343 ;; Registers used:
  4344 ;;		None
  4345 ;; Tracked objects:
  4346 ;;		On entry : 0/0
  4347 ;;		On exit  : 0/0
  4348 ;;		Unchanged: 0/0
  4349 ;; Data sizes:     COMRAM   BANK0   BANK1   BANK2   BANK3   BANK4   BANK5   BANK6   BANK7   BANK8   BANK9  BANK10  BANK1
      +1  BANK12  BANK13  BANK14  BANK15
  4350 ;;      Params:         0       0       0       0       0       0       0       0       0       0       0       0       
      +0       0       0       0       0
  4351 ;;      Locals:         0       0       0       0       0       0       0       0       0       0       0       0       
      +0       0       0       0       0
  4352 ;;      Temps:          0       0       0       0       0       0       0       0       0       0       0       0       
      +0       0       0       0       0
  4353 ;;      Totals:         0       0       0       0       0       0       0       0       0       0       0       0       
      +0       0       0       0       0
  4354 ;;Total ram usage:        0 bytes
  4355 ;; Hardware stack levels used: 1
  4356 ;; This function calls:
  4357 ;;		Nothing
  4358 ;; This function is called by:
  4359 ;;		_InterruptManagmentHigh
  4360 ;; This function uses a non-reentrant model
  4361 ;;
  4362                           
  4363                           	psect	text20
  4364   0028CE                     __ptext20:
  4365                           	callstack 0
  4366   0028CE                     _INT0_ISR:
  4367                           	callstack 26
  4368   0028CE                     
  4369                           ;MCAL_Layer/Interrupt/Interrupt_external.c: 358:     (INTCONbits.INT0IF=0);
  4370   0028CE  92F2               	bcf	242,1,c	;volatile
  4371   0028D0  0012               	return		;funcret
  4372   0028D2                     __end_of_INT0_ISR:
  4373                           	callstack 0
  4374                           
  4375 ;; *************** function _EUSART_TX_ISR *****************
  4376 ;; Defined at:
  4377 ;;		line 286 in file "MCAL_Layer/EUSART/eusart.c"
  4378 ;; Parameters:    Size  Location     Type
  4379 ;;		None
  4380 ;; Auto vars:     Size  Location     Type
  4381 ;;		None
  4382 ;; Return value:  Size  Location     Type
  4383 ;;                  1    wreg      void 
  4384 ;; Registers used:
  4385 ;;		wreg, status,2, status,0, pcl, pclath, pclatu, tosl, cstack
  4386 ;; Tracked objects:
  4387 ;;		On entry : 0/0
  4388 ;;		On exit  : 0/0
  4389 ;;		Unchanged: 0/0
  4390 ;; Data sizes:     COMRAM   BANK0   BANK1   BANK2   BANK3   BANK4   BANK5   BANK6   BANK7   BANK8   BANK9  BANK10  BANK1
      +1  BANK12  BANK13  BANK14  BANK15
  4391 ;;      Params:         0       0       0       0       0       0       0       0       0       0       0       0       
      +0       0       0       0       0
  4392 ;;      Locals:         0       0       0       0       0       0       0       0       0       0       0       0       
      +0       0       0       0       0
  4393 ;;      Temps:          0       0       0       0       0       0       0       0       0       0       0       0       
      +0       0       0       0       0
  4394 ;;      Totals:         0       0       0       0       0       0       0       0       0       0       0       0       
      +0       0       0       0       0
  4395 ;;Total ram usage:        0 bytes
  4396 ;; Hardware stack levels used: 1
  4397 ;; Hardware stack levels required when called: 1
  4398 ;; This function calls:
  4399 ;;		NULL
  4400 ;;		_eusart_tx_calling
  4401 ;; This function is called by:
  4402 ;;		_InterruptManagmentHigh
  4403 ;; This function uses a non-reentrant model
  4404 ;;
  4405                           
  4406                           	psect	text21
  4407   0027AC                     __ptext21:
  4408                           	callstack 0
  4409   0027AC                     _EUSART_TX_ISR:
  4410                           	callstack 25
  4411   0027AC                     
  4412                           ;MCAL_Layer/EUSART/eusart.c: 288:     (PIE1bits.TXIE=0);
  4413   0027AC  989D               	bcf	157,4,c	;volatile
  4414   0027AE                     
  4415                           ;MCAL_Layer/EUSART/eusart.c: 289:     if(eusart_tx_callback_ptr){
  4416   0027AE  5048               	movf	_eusart_tx_callback_ptr^0,w,c
  4417   0027B0  1049               	iorwf	(_eusart_tx_callback_ptr+1)^0,w,c
  4418   0027B2  B4D8               	btfsc	status,2,c
  4419   0027B4  EFDE  F013         	goto	i2u488_41
  4420   0027B8  EFE0  F013         	goto	i2u488_40
  4421   0027BC                     i2u488_41:
  4422   0027BC  EFEC  F013         	goto	i2l1314
  4423   0027C0                     i2u488_40:
  4424   0027C0                     
  4425                           ;MCAL_Layer/EUSART/eusart.c: 290:         eusart_tx_callback_ptr();
  4426   0027C0  D802               	call	i2u489_48
  4427   0027C2  EFEC  F013         	goto	i2u489_49
  4428   0027C6                     i2u489_48:
  4429   0027C6  0005               	push	
  4430   0027C8  6EFA               	movwf	pclath,c
  4431   0027CA  5048               	movf	_eusart_tx_callback_ptr^0,w,c
  4432   0027CC  6EFD               	movwf	tosl,c
  4433   0027CE  5049               	movf	(_eusart_tx_callback_ptr+1)^0,w,c
  4434   0027D0  6EFE               	movwf	tosh,c
  4435   0027D2  6AFF               	clrf	tosu,c
  4436   0027D4  50FA               	movf	pclath,w,c
  4437   0027D6  0012               	return		;indir
  4438   0027D8                     i2u489_49:
  4439   0027D8                     i2l1314:
  4440   0027D8  0012               	return		;funcret
  4441   0027DA                     __end_of_EUSART_TX_ISR:
  4442                           	callstack 0
  4443                           
  4444 ;; *************** function _eusart_tx_calling *****************
  4445 ;; Defined at:
  4446 ;;		line 23 in file "Application.c"
  4447 ;; Parameters:    Size  Location     Type
  4448 ;;		None
  4449 ;; Auto vars:     Size  Location     Type
  4450 ;;		None
  4451 ;; Return value:  Size  Location     Type
  4452 ;;                  1    wreg      void 
  4453 ;; Registers used:
  4454 ;;		wreg, status,2, status,0
  4455 ;; Tracked objects:
  4456 ;;		On entry : 0/0
  4457 ;;		On exit  : 0/0
  4458 ;;		Unchanged: 0/0
  4459 ;; Data sizes:     COMRAM   BANK0   BANK1   BANK2   BANK3   BANK4   BANK5   BANK6   BANK7   BANK8   BANK9  BANK10  BANK1
      +1  BANK12  BANK13  BANK14  BANK15
  4460 ;;      Params:         0       0       0       0       0       0       0       0       0       0       0       0       
      +0       0       0       0       0
  4461 ;;      Locals:         0       0       0       0       0       0       0       0       0       0       0       0       
      +0       0       0       0       0
  4462 ;;      Temps:          0       0       0       0       0       0       0       0       0       0       0       0       
      +0       0       0       0       0
  4463 ;;      Totals:         0       0       0       0       0       0       0       0       0       0       0       0       
      +0       0       0       0       0
  4464 ;;Total ram usage:        0 bytes
  4465 ;; Hardware stack levels used: 1
  4466 ;; This function calls:
  4467 ;;		Nothing
  4468 ;; This function is called by:
  4469 ;;		_EUSART_TX_ISR
  4470 ;; This function uses a non-reentrant model
  4471 ;;
  4472                           
  4473                           	psect	text22
  4474   002870                     __ptext22:
  4475                           	callstack 0
  4476   002870                     _eusart_tx_calling:
  4477                           	callstack 25
  4478   002870                     
  4479                           ;Application.c: 24:     tx_counter++;
  4480   002870  0E01               	movlw	1
  4481   002872  0100               	movlb	0	; () banked
  4482   002874  27D3               	addwf	_tx_counter& (0+255),f,b
  4483   002876  0E00               	movlw	0
  4484   002878  23D4               	addwfc	(_tx_counter+1)& (0+255),f,b
  4485   00287A  23D5               	addwfc	(_tx_counter+2)& (0+255),f,b
  4486   00287C  23D6               	addwfc	(_tx_counter+3)& (0+255),f,b
  4487   00287E                     
  4488                           ; BSR set to: 0
  4489   00287E  0012               	return		;funcret
  4490   002880                     __end_of_eusart_tx_calling:
  4491                           	callstack 0
  4492                           
  4493 ;; *************** function _EUSART_RX_ISR *****************
  4494 ;; Defined at:
  4495 ;;		line 293 in file "MCAL_Layer/EUSART/eusart.c"
  4496 ;; Parameters:    Size  Location     Type
  4497 ;;		None
  4498 ;; Auto vars:     Size  Location     Type
  4499 ;;		None
  4500 ;; Return value:  Size  Location     Type
  4501 ;;                  1    wreg      void 
  4502 ;; Registers used:
  4503 ;;		wreg, status,2, status,0, pcl, pclath, pclatu, tosl, tblptrl, tblptrh, tblptru, cstack
  4504 ;; Tracked objects:
  4505 ;;		On entry : 0/0
  4506 ;;		On exit  : 0/0
  4507 ;;		Unchanged: 0/0
  4508 ;; Data sizes:     COMRAM   BANK0   BANK1   BANK2   BANK3   BANK4   BANK5   BANK6   BANK7   BANK8   BANK9  BANK10  BANK1
      +1  BANK12  BANK13  BANK14  BANK15
  4509 ;;      Params:         0       0       0       0       0       0       0       0       0       0       0       0       
      +0       0       0       0       0
  4510 ;;      Locals:         0       0       0       0       0       0       0       0       0       0       0       0       
      +0       0       0       0       0
  4511 ;;      Temps:          0       0       0       0       0       0       0       0       0       0       0       0       
      +0       0       0       0       0
  4512 ;;      Totals:         0       0       0       0       0       0       0       0       0       0       0       0       
      +0       0       0       0       0
  4513 ;;Total ram usage:        0 bytes
  4514 ;; Hardware stack levels used: 1
  4515 ;; Hardware stack levels required when called: 3
  4516 ;; This function calls:
  4517 ;;		NULL
  4518 ;;		_eusart_frameerror_calling
  4519 ;;		_eusart_overrunerror_calling
  4520 ;;		_eusart_rx_calling
  4521 ;; This function is called by:
  4522 ;;		_InterruptManagmentHigh
  4523 ;; This function uses a non-reentrant model
  4524 ;;
  4525                           
  4526                           	psect	text23
  4527   00257C                     __ptext23:
  4528                           	callstack 0
  4529   00257C                     _EUSART_RX_ISR:
  4530                           	callstack 23
  4531   00257C                     
  4532                           ;MCAL_Layer/EUSART/eusart.c: 296:     if(eusart_rx_callback_ptr){
  4533   00257C  5046               	movf	_eusart_rx_callback_ptr^0,w,c
  4534   00257E  1047               	iorwf	(_eusart_rx_callback_ptr+1)^0,w,c
  4535   002580  B4D8               	btfsc	status,2,c
  4536   002582  EFC5  F012         	goto	i2u490_41
  4537   002586  EFC7  F012         	goto	i2u490_40
  4538   00258A                     i2u490_41:
  4539   00258A  EFD3  F012         	goto	i2l5667
  4540   00258E                     i2u490_40:
  4541   00258E                     
  4542                           ;MCAL_Layer/EUSART/eusart.c: 297:         eusart_rx_callback_ptr();
  4543   00258E  D802               	call	i2u491_48
  4544   002590  EFD3  F012         	goto	i2u491_49
  4545   002594                     i2u491_48:
  4546   002594  0005               	push	
  4547   002596  6EFA               	movwf	pclath,c
  4548   002598  5046               	movf	_eusart_rx_callback_ptr^0,w,c
  4549   00259A  6EFD               	movwf	tosl,c
  4550   00259C  5047               	movf	(_eusart_rx_callback_ptr+1)^0,w,c
  4551   00259E  6EFE               	movwf	tosh,c
  4552   0025A0  6AFF               	clrf	tosu,c
  4553   0025A2  50FA               	movf	pclath,w,c
  4554   0025A4  0012               	return		;indir
  4555   0025A6                     i2u491_49:
  4556   0025A6                     i2l5667:
  4557                           
  4558                           ;MCAL_Layer/EUSART/eusart.c: 299:     if(eusart_framerr_callback_ptr){
  4559   0025A6  504C               	movf	_eusart_framerr_callback_ptr^0,w,c
  4560   0025A8  104D               	iorwf	(_eusart_framerr_callback_ptr+1)^0,w,c
  4561   0025AA  B4D8               	btfsc	status,2,c
  4562   0025AC  EFDA  F012         	goto	i2u492_41
  4563   0025B0  EFDC  F012         	goto	i2u492_40
  4564   0025B4                     i2u492_41:
  4565   0025B4  EFE8  F012         	goto	i2l5671
  4566   0025B8                     i2u492_40:
  4567   0025B8                     
  4568                           ;MCAL_Layer/EUSART/eusart.c: 300:         eusart_framerr_callback_ptr();
  4569   0025B8  D802               	call	i2u493_48
  4570   0025BA  EFE8  F012         	goto	i2u493_49
  4571   0025BE                     i2u493_48:
  4572   0025BE  0005               	push	
  4573   0025C0  6EFA               	movwf	pclath,c
  4574   0025C2  504C               	movf	_eusart_framerr_callback_ptr^0,w,c
  4575   0025C4  6EFD               	movwf	tosl,c
  4576   0025C6  504D               	movf	(_eusart_framerr_callback_ptr+1)^0,w,c
  4577   0025C8  6EFE               	movwf	tosh,c
  4578   0025CA  6AFF               	clrf	tosu,c
  4579   0025CC  50FA               	movf	pclath,w,c
  4580   0025CE  0012               	return		;indir
  4581   0025D0                     i2u493_49:
  4582   0025D0                     i2l5671:
  4583                           
  4584                           ;MCAL_Layer/EUSART/eusart.c: 302:     if(eusart_overerr_callback_ptr){
  4585   0025D0  504A               	movf	_eusart_overerr_callback_ptr^0,w,c
  4586   0025D2  104B               	iorwf	(_eusart_overerr_callback_ptr+1)^0,w,c
  4587   0025D4  B4D8               	btfsc	status,2,c
  4588   0025D6  EFEF  F012         	goto	i2u494_41
  4589   0025DA  EFF1  F012         	goto	i2u494_40
  4590   0025DE                     i2u494_41:
  4591   0025DE  EFFD  F012         	goto	i2l1320
  4592   0025E2                     i2u494_40:
  4593   0025E2                     
  4594                           ;MCAL_Layer/EUSART/eusart.c: 303:         eusart_overerr_callback_ptr();
  4595   0025E2  D802               	call	i2u495_48
  4596   0025E4  EFFD  F012         	goto	i2u495_49
  4597   0025E8                     i2u495_48:
  4598   0025E8  0005               	push	
  4599   0025EA  6EFA               	movwf	pclath,c
  4600   0025EC  504A               	movf	_eusart_overerr_callback_ptr^0,w,c
  4601   0025EE  6EFD               	movwf	tosl,c
  4602   0025F0  504B               	movf	(_eusart_overerr_callback_ptr+1)^0,w,c
  4603   0025F2  6EFE               	movwf	tosh,c
  4604   0025F4  6AFF               	clrf	tosu,c
  4605   0025F6  50FA               	movf	pclath,w,c
  4606   0025F8  0012               	return		;indir
  4607   0025FA                     i2u495_49:
  4608   0025FA                     i2l1320:
  4609   0025FA  0012               	return		;funcret
  4610   0025FC                     __end_of_EUSART_RX_ISR:
  4611                           	callstack 0
  4612                           
  4613 ;; *************** function _eusart_rx_calling *****************
  4614 ;; Defined at:
  4615 ;;		line 27 in file "Application.c"
  4616 ;; Parameters:    Size  Location     Type
  4617 ;;		None
  4618 ;; Auto vars:     Size  Location     Type
  4619 ;;		None
  4620 ;; Return value:  Size  Location     Type
  4621 ;;                  1    wreg      void 
  4622 ;; Registers used:
  4623 ;;		wreg, status,2, status,0, tblptrl, tblptrh, tblptru, cstack
  4624 ;; Tracked objects:
  4625 ;;		On entry : 0/0
  4626 ;;		On exit  : 0/0
  4627 ;;		Unchanged: 0/0
  4628 ;; Data sizes:     COMRAM   BANK0   BANK1   BANK2   BANK3   BANK4   BANK5   BANK6   BANK7   BANK8   BANK9  BANK10  BANK1
      +1  BANK12  BANK13  BANK14  BANK15
  4629 ;;      Params:         0       0       0       0       0       0       0       0       0       0       0       0       
      +0       0       0       0       0
  4630 ;;      Locals:         0       0       0       0       0       0       0       0       0       0       0       0       
      +0       0       0       0       0
  4631 ;;      Temps:          2       0       0       0       0       0       0       0       0       0       0       0       
      +0       0       0       0       0
  4632 ;;      Totals:         2       0       0       0       0       0       0       0       0       0       0       0       
      +0       0       0       0       0
  4633 ;;Total ram usage:        2 bytes
  4634 ;; Hardware stack levels used: 1
  4635 ;; Hardware stack levels required when called: 2
  4636 ;; This function calls:
  4637 ;;		_eusart_ASYN_Read
  4638 ;;		_eusart_ASYN_Write
  4639 ;;		_eusart_ASYN_WriteString
  4640 ;; This function is called by:
  4641 ;;		_EUSART_RX_ISR
  4642 ;; This function uses a non-reentrant model
  4643 ;;
  4644                           
  4645                           	psect	text24
  4646   0025FC                     __ptext24:
  4647                           	callstack 0
  4648   0025FC                     _eusart_rx_calling:
  4649                           	callstack 23
  4650   0025FC                     
  4651                           ;Application.c: 28:     rx_counter++;
  4652   0025FC  0E01               	movlw	1
  4653   0025FE  0100               	movlb	0	; () banked
  4654   002600  27CF               	addwf	_rx_counter& (0+255),f,b
  4655   002602  0E00               	movlw	0
  4656   002604  23D0               	addwfc	(_rx_counter+1)& (0+255),f,b
  4657   002606  23D1               	addwfc	(_rx_counter+2)& (0+255),f,b
  4658   002608  23D2               	addwfc	(_rx_counter+3)& (0+255),f,b
  4659   00260A                     
  4660                           ; BSR set to: 0
  4661                           ;Application.c: 29:     data=eusart_ASYN_Read();
  4662   00260A  EC69  F014         	call	_eusart_ASYN_Read	;wreg free
  4663   00260E  6E61               	movwf	_data^0,c
  4664   002610                     
  4665                           ;Application.c: 30:     eusart_ASYN_Write(data);
  4666   002610  5061               	movf	_data^0,w,c
  4667   002612  EC21  F014         	call	_eusart_ASYN_Write
  4668   002616                     
  4669                           ;Application.c: 31:             eusart_ASYN_Write('\r');
  4670   002616  0E0D               	movlw	13
  4671   002618  EC21  F014         	call	_eusart_ASYN_Write
  4672                           
  4673                           ;Application.c: 32:             switch(data){
  4674   00261C  EF20  F013         	goto	i2l5359
  4675   002620                     i2l5353:
  4676                           
  4677                           ;Application.c: 34:                     eusart_ASYN_WriteString("Tarek Adel");
  4678   002620  0E0D               	movlw	low STR_4
  4679   002622  6E02               	movwf	eusart_ASYN_WriteString@value^0,c
  4680   002624  0E10               	movlw	high STR_4
  4681   002626  6E03               	movwf	(eusart_ASYN_WriteString@value+1)^0,c
  4682   002628  EC6A  F013         	call	_eusart_ASYN_WriteString	;wreg free
  4683                           
  4684                           ;Application.c: 35:                     break;
  4685   00262C  EF35  F013         	goto	i2l5361
  4686   002630                     i2l5355:
  4687                           
  4688                           ;Application.c: 37:                      eusart_ASYN_WriteString("Khaled Adel");
  4689   002630  0E01               	movlw	low STR_5
  4690   002632  6E02               	movwf	eusart_ASYN_WriteString@value^0,c
  4691   002634  0E10               	movlw	high STR_5
  4692   002636  6E03               	movwf	(eusart_ASYN_WriteString@value+1)^0,c
  4693   002638  EC6A  F013         	call	_eusart_ASYN_WriteString	;wreg free
  4694                           
  4695                           ;Application.c: 38:                      break;
  4696   00263C  EF35  F013         	goto	i2l5361
  4697   002640                     i2l5359:
  4698   002640  5061               	movf	_data^0,w,c
  4699   002642  6E07               	movwf	??_eusart_rx_calling^0,c
  4700   002644  6A08               	clrf	(??_eusart_rx_calling+1)^0,c
  4701                           
  4702                           ; Switch on 2 bytes has been partitioned into a top level switch of size 1, and 1 sub-sw
      +                          itches
  4703                           ; Switch size 1, requested type "simple"
  4704                           ; Number of cases is 1, Range of values is 0 to 0
  4705                           ; switch strategies available:
  4706                           ; Name         Instructions Cycles
  4707                           ; simple_byte            4     3 (average)
  4708                           ;	Chosen strategy is simple_byte
  4709   002646  5008               	movf	(??_eusart_rx_calling+1)^0,w,c
  4710   002648  0A00               	xorlw	0	; case 0
  4711   00264A  B4D8               	btfsc	status,2,c
  4712   00264C  EF2A  F013         	goto	i2l7763
  4713   002650  EF35  F013         	goto	i2l5361
  4714   002654                     i2l7763:
  4715                           
  4716                           ; Switch size 1, requested type "simple"
  4717                           ; Number of cases is 2, Range of values is 97 to 107
  4718                           ; switch strategies available:
  4719                           ; Name         Instructions Cycles
  4720                           ; simple_byte            7     4 (average)
  4721                           ;	Chosen strategy is simple_byte
  4722   002654  5007               	movf	??_eusart_rx_calling^0,w,c
  4723   002656  0A61               	xorlw	97	; case 97
  4724   002658  B4D8               	btfsc	status,2,c
  4725   00265A  EF10  F013         	goto	i2l5353
  4726   00265E  0A0A               	xorlw	10	; case 107
  4727   002660  B4D8               	btfsc	status,2,c
  4728   002662  EF18  F013         	goto	i2l5355
  4729   002666  EF35  F013         	goto	i2l5361
  4730   00266A                     i2l5361:
  4731                           
  4732                           ;Application.c: 40:              eusart_ASYN_Write('\r');
  4733   00266A  0E0D               	movlw	13
  4734   00266C  EC21  F014         	call	_eusart_ASYN_Write
  4735   002670  0012               	return		;funcret
  4736   002672                     __end_of_eusart_rx_calling:
  4737                           	callstack 0
  4738                           
  4739 ;; *************** function _eusart_ASYN_WriteString *****************
  4740 ;; Defined at:
  4741 ;;		line 123 in file "MCAL_Layer/EUSART/eusart.c"
  4742 ;; Parameters:    Size  Location     Type
  4743 ;;  value           2    1[COMRAM] PTR unsigned char 
  4744 ;;		 -> STR_5(12), STR_4(11), 
  4745 ;; Auto vars:     Size  Location     Type
  4746 ;;  counter         1    5[COMRAM] unsigned char 
  4747 ;; Return value:  Size  Location     Type
  4748 ;;                  1    wreg      unsigned char 
  4749 ;; Registers used:
  4750 ;;		wreg, status,2, status,0, tblptrl, tblptrh, tblptru, cstack
  4751 ;; Tracked objects:
  4752 ;;		On entry : 0/0
  4753 ;;		On exit  : 0/0
  4754 ;;		Unchanged: 0/0
  4755 ;; Data sizes:     COMRAM   BANK0   BANK1   BANK2   BANK3   BANK4   BANK5   BANK6   BANK7   BANK8   BANK9  BANK10  BANK1
      +1  BANK12  BANK13  BANK14  BANK15
  4756 ;;      Params:         2       0       0       0       0       0       0       0       0       0       0       0       
      +0       0       0       0       0
  4757 ;;      Locals:         1       0       0       0       0       0       0       0       0       0       0       0       
      +0       0       0       0       0
  4758 ;;      Temps:          2       0       0       0       0       0       0       0       0       0       0       0       
      +0       0       0       0       0
  4759 ;;      Totals:         5       0       0       0       0       0       0       0       0       0       0       0       
      +0       0       0       0       0
  4760 ;;Total ram usage:        5 bytes
  4761 ;; Hardware stack levels used: 1
  4762 ;; Hardware stack levels required when called: 1
  4763 ;; This function calls:
  4764 ;;		_eusart_ASYN_Write
  4765 ;; This function is called by:
  4766 ;;		_eusart_rx_calling
  4767 ;; This function uses a non-reentrant model
  4768 ;;
  4769                           
  4770                           	psect	text25
  4771   0026D4                     __ptext25:
  4772                           	callstack 0
  4773   0026D4                     _eusart_ASYN_WriteString:
  4774                           	callstack 23
  4775   0026D4                     
  4776                           ;MCAL_Layer/EUSART/eusart.c: 124:     uint8 counter=0;
  4777   0026D4  0E00               	movlw	0
  4778   0026D6  6E06               	movwf	eusart_ASYN_WriteString@counter^0,c
  4779                           
  4780                           ;MCAL_Layer/EUSART/eusart.c: 125:     while(value[counter]!='\0'){
  4781   0026D8  EF7E  F013         	goto	i2l4881
  4782   0026DC                     i2l4877:
  4783                           
  4784                           ;MCAL_Layer/EUSART/eusart.c: 126:         eusart_ASYN_Write(value[counter]);
  4785   0026DC  5006               	movf	eusart_ASYN_WriteString@counter^0,w,c
  4786   0026DE  2402               	addwf	eusart_ASYN_WriteString@value^0,w,c
  4787   0026E0  6E04               	movwf	??_eusart_ASYN_WriteString^0,c
  4788   0026E2  0E00               	movlw	0
  4789   0026E4  2003               	addwfc	(eusart_ASYN_WriteString@value+1)^0,w,c
  4790   0026E6  6E05               	movwf	(??_eusart_ASYN_WriteString+1)^0,c
  4791   0026E8  C004  FFF6         	movff	??_eusart_ASYN_WriteString,tblptrl
  4792   0026EC  C005  FFF7         	movff	??_eusart_ASYN_WriteString+1,tblptrh
  4793   0026F0                     	if	1	;Program memory is < 0x10000, tblptru is always zero
  4794   0026F0  6AF8               	clrf	tblptru,c
  4795   0026F2                     	endif
  4796   0026F2                     	if	0	;tblptru may be non-zero
  4797   0026F2                     	endif
  4798   0026F2  0008               	tblrd		*
  4799   0026F4  50F5               	movf	tablat,w,c
  4800   0026F6  EC21  F014         	call	_eusart_ASYN_Write
  4801   0026FA                     
  4802                           ;MCAL_Layer/EUSART/eusart.c: 127:         counter++;
  4803   0026FA  2A06               	incf	eusart_ASYN_WriteString@counter^0,f,c
  4804   0026FC                     i2l4881:
  4805                           
  4806                           ;MCAL_Layer/EUSART/eusart.c: 125:     while(value[counter]!='\0'){
  4807   0026FC  5006               	movf	eusart_ASYN_WriteString@counter^0,w,c
  4808   0026FE  2402               	addwf	eusart_ASYN_WriteString@value^0,w,c
  4809   002700  6E04               	movwf	??_eusart_ASYN_WriteString^0,c
  4810   002702  0E00               	movlw	0
  4811   002704  2003               	addwfc	(eusart_ASYN_WriteString@value+1)^0,w,c
  4812   002706  6E05               	movwf	(??_eusart_ASYN_WriteString+1)^0,c
  4813   002708  C004  FFF6         	movff	??_eusart_ASYN_WriteString,tblptrl
  4814   00270C  C005  FFF7         	movff	??_eusart_ASYN_WriteString+1,tblptrh
  4815   002710                     	if	1	;Program memory is < 0x10000, tblptru is always zero
  4816   002710  6AF8               	clrf	tblptru,c
  4817   002712                     	endif
  4818   002712                     	if	0	;tblptru may be non-zero
  4819   002712                     	endif
  4820   002712  0008               	tblrd		*
  4821   002714  50F5               	movf	tablat,w,c
  4822   002716  0900               	iorlw	0
  4823   002718  A4D8               	btfss	status,2,c
  4824   00271A  EF91  F013         	goto	i2u370_41
  4825   00271E  EF93  F013         	goto	i2u370_40
  4826   002722                     i2u370_41:
  4827   002722  EF6E  F013         	goto	i2l4877
  4828   002726                     i2u370_40:
  4829   002726  0012               	return		;funcret
  4830   002728                     __end_of_eusart_ASYN_WriteString:
  4831                           	callstack 0
  4832                           
  4833 ;; *************** function _eusart_ASYN_Write *****************
  4834 ;; Defined at:
  4835 ;;		line 111 in file "MCAL_Layer/EUSART/eusart.c"
  4836 ;; Parameters:    Size  Location     Type
  4837 ;;  value           1    wreg     unsigned char 
  4838 ;; Auto vars:     Size  Location     Type
  4839 ;;  value           1    0[COMRAM] unsigned char 
  4840 ;;  returt_statu    1    0        unsigned char 
  4841 ;; Return value:  Size  Location     Type
  4842 ;;                  1    wreg      unsigned char 
  4843 ;; Registers used:
  4844 ;;		wreg, status,2
  4845 ;; Tracked objects:
  4846 ;;		On entry : 0/0
  4847 ;;		On exit  : 0/0
  4848 ;;		Unchanged: 0/0
  4849 ;; Data sizes:     COMRAM   BANK0   BANK1   BANK2   BANK3   BANK4   BANK5   BANK6   BANK7   BANK8   BANK9  BANK10  BANK1
      +1  BANK12  BANK13  BANK14  BANK15
  4850 ;;      Params:         0       0       0       0       0       0       0       0       0       0       0       0       
      +0       0       0       0       0
  4851 ;;      Locals:         1       0       0       0       0       0       0       0       0       0       0       0       
      +0       0       0       0       0
  4852 ;;      Temps:          0       0       0       0       0       0       0       0       0       0       0       0       
      +0       0       0       0       0
  4853 ;;      Totals:         1       0       0       0       0       0       0       0       0       0       0       0       
      +0       0       0       0       0
  4854 ;;Total ram usage:        1 bytes
  4855 ;; Hardware stack levels used: 1
  4856 ;; This function calls:
  4857 ;;		Nothing
  4858 ;; This function is called by:
  4859 ;;		_eusart_rx_calling
  4860 ;;		_eusart_ASYN_WriteString
  4861 ;; This function uses a non-reentrant model
  4862 ;;
  4863                           
  4864                           	psect	text26
  4865   002842                     __ptext26:
  4866                           	callstack 0
  4867   002842                     _eusart_ASYN_Write:
  4868                           	callstack 23
  4869                           
  4870                           ;incstack = 0
  4871                           ;eusart_ASYN_Write@value stored from wreg
  4872   002842  6E01               	movwf	eusart_ASYN_Write@value^0,c
  4873   002844                     i2l1262:
  4874   002844  A2AC               	btfss	172,1,c	;volatile
  4875   002846  EF27  F014         	goto	i2u369_41
  4876   00284A  EF29  F014         	goto	i2u369_40
  4877   00284E                     i2u369_41:
  4878   00284E  EF22  F014         	goto	i2l1262
  4879   002852                     i2u369_40:
  4880   002852                     
  4881                           ;MCAL_Layer/EUSART/eusart.c: 116:             TXREG=value;
  4882   002852  C001  FFAD         	movff	eusart_ASYN_Write@value,4013	;volatile
  4883   002856                     
  4884                           ;MCAL_Layer/EUSART/eusart.c: 117:          (PIE1bits.TXIE=1);
  4885   002856  889D               	bsf	157,4,c	;volatile
  4886   002858  0012               	return		;funcret
  4887   00285A                     __end_of_eusart_ASYN_Write:
  4888                           	callstack 0
  4889                           
  4890 ;; *************** function _eusart_ASYN_Read *****************
  4891 ;; Defined at:
  4892 ;;		line 108 in file "MCAL_Layer/EUSART/eusart.c"
  4893 ;; Parameters:    Size  Location     Type
  4894 ;;		None
  4895 ;; Auto vars:     Size  Location     Type
  4896 ;;		None
  4897 ;; Return value:  Size  Location     Type
  4898 ;;                  1    wreg      unsigned char 
  4899 ;; Registers used:
  4900 ;;		wreg, status,2
  4901 ;; Tracked objects:
  4902 ;;		On entry : 0/0
  4903 ;;		On exit  : 0/0
  4904 ;;		Unchanged: 0/0
  4905 ;; Data sizes:     COMRAM   BANK0   BANK1   BANK2   BANK3   BANK4   BANK5   BANK6   BANK7   BANK8   BANK9  BANK10  BANK1
      +1  BANK12  BANK13  BANK14  BANK15
  4906 ;;      Params:         0       0       0       0       0       0       0       0       0       0       0       0       
      +0       0       0       0       0
  4907 ;;      Locals:         0       0       0       0       0       0       0       0       0       0       0       0       
      +0       0       0       0       0
  4908 ;;      Temps:          0       0       0       0       0       0       0       0       0       0       0       0       
      +0       0       0       0       0
  4909 ;;      Totals:         0       0       0       0       0       0       0       0       0       0       0       0       
      +0       0       0       0       0
  4910 ;;Total ram usage:        0 bytes
  4911 ;; Hardware stack levels used: 1
  4912 ;; This function calls:
  4913 ;;		Nothing
  4914 ;; This function is called by:
  4915 ;;		_eusart_rx_calling
  4916 ;; This function uses a non-reentrant model
  4917 ;;
  4918                           
  4919                           	psect	text27
  4920   0028D2                     __ptext27:
  4921                           	callstack 0
  4922   0028D2                     _eusart_ASYN_Read:
  4923                           	callstack 24
  4924   0028D2                     
  4925                           ;MCAL_Layer/EUSART/eusart.c: 109:     return RCREG;
  4926   0028D2  50AE               	movf	174,w,c	;volatile
  4927   0028D4  0012               	return		;funcret
  4928   0028D6                     __end_of_eusart_ASYN_Read:
  4929                           	callstack 0
  4930                           
  4931 ;; *************** function _eusart_overrunerror_calling *****************
  4932 ;; Defined at:
  4933 ;;		line 14 in file "Application.c"
  4934 ;; Parameters:    Size  Location     Type
  4935 ;;		None
  4936 ;; Auto vars:     Size  Location     Type
  4937 ;;		None
  4938 ;; Return value:  Size  Location     Type
  4939 ;;                  1    wreg      void 
  4940 ;; Registers used:
  4941 ;;		wreg, status,2, status,0, cstack
  4942 ;; Tracked objects:
  4943 ;;		On entry : 0/0
  4944 ;;		On exit  : 0/0
  4945 ;;		Unchanged: 0/0
  4946 ;; Data sizes:     COMRAM   BANK0   BANK1   BANK2   BANK3   BANK4   BANK5   BANK6   BANK7   BANK8   BANK9  BANK10  BANK1
      +1  BANK12  BANK13  BANK14  BANK15
  4947 ;;      Params:         0       0       0       0       0       0       0       0       0       0       0       0       
      +0       0       0       0       0
  4948 ;;      Locals:         0       0       0       0       0       0       0       0       0       0       0       0       
      +0       0       0       0       0
  4949 ;;      Temps:          0       0       0       0       0       0       0       0       0       0       0       0       
      +0       0       0       0       0
  4950 ;;      Totals:         0       0       0       0       0       0       0       0       0       0       0       0       
      +0       0       0       0       0
  4951 ;;Total ram usage:        0 bytes
  4952 ;; Hardware stack levels used: 1
  4953 ;; Hardware stack levels required when called: 1
  4954 ;; This function calls:
  4955 ;;		_eusart_RX_Restart
  4956 ;; This function is called by:
  4957 ;;		_EUSART_RX_ISR
  4958 ;; This function uses a non-reentrant model
  4959 ;;
  4960                           
  4961                           	psect	text28
  4962   0028AC                     __ptext28:
  4963                           	callstack 0
  4964   0028AC                     _eusart_overrunerror_calling:
  4965                           	callstack 24
  4966   0028AC                     
  4967                           ;Application.c: 15:     overrunerror++;
  4968   0028AC  2A63               	incf	_overrunerror^0,f,c
  4969   0028AE                     
  4970                           ;Application.c: 16:     eusart_RX_Restart();
  4971   0028AE  EC5E  F014         	call	_eusart_RX_Restart	;wreg free
  4972   0028B2  0012               	return		;funcret
  4973   0028B4                     __end_of_eusart_overrunerror_calling:
  4974                           	callstack 0
  4975                           
  4976 ;; *************** function _eusart_RX_Restart *****************
  4977 ;; Defined at:
  4978 ;;		line 131 in file "MCAL_Layer/EUSART/eusart.c"
  4979 ;; Parameters:    Size  Location     Type
  4980 ;;		None
  4981 ;; Auto vars:     Size  Location     Type
  4982 ;;  returt_statu    1    0        unsigned char 
  4983 ;; Return value:  Size  Location     Type
  4984 ;;                  1    wreg      unsigned char 
  4985 ;; Registers used:
  4986 ;;		wreg, status,2
  4987 ;; Tracked objects:
  4988 ;;		On entry : 0/0
  4989 ;;		On exit  : 0/0
  4990 ;;		Unchanged: 0/0
  4991 ;; Data sizes:     COMRAM   BANK0   BANK1   BANK2   BANK3   BANK4   BANK5   BANK6   BANK7   BANK8   BANK9  BANK10  BANK1
      +1  BANK12  BANK13  BANK14  BANK15
  4992 ;;      Params:         0       0       0       0       0       0       0       0       0       0       0       0       
      +0       0       0       0       0
  4993 ;;      Locals:         0       0       0       0       0       0       0       0       0       0       0       0       
      +0       0       0       0       0
  4994 ;;      Temps:          0       0       0       0       0       0       0       0       0       0       0       0       
      +0       0       0       0       0
  4995 ;;      Totals:         0       0       0       0       0       0       0       0       0       0       0       0       
      +0       0       0       0       0
  4996 ;;Total ram usage:        0 bytes
  4997 ;; Hardware stack levels used: 1
  4998 ;; This function calls:
  4999 ;;		Nothing
  5000 ;; This function is called by:
  5001 ;;		_eusart_overrunerror_calling
  5002 ;; This function uses a non-reentrant model
  5003 ;;
  5004                           
  5005                           	psect	text29
  5006   0028BC                     __ptext29:
  5007                           	callstack 0
  5008   0028BC                     _eusart_RX_Restart:
  5009                           	callstack 24
  5010   0028BC                     
  5011                           ;MCAL_Layer/EUSART/eusart.c: 133:       (RCSTAbits.CREN=0);
  5012   0028BC  98AB               	bcf	171,4,c	;volatile
  5013   0028BE                     
  5014                           ;MCAL_Layer/EUSART/eusart.c: 134:       (RCSTAbits.CREN=1) ;
  5015   0028BE  88AB               	bsf	171,4,c	;volatile
  5016   0028C0  0012               	return		;funcret
  5017   0028C2                     __end_of_eusart_RX_Restart:
  5018                           	callstack 0
  5019                           
  5020 ;; *************** function _eusart_frameerror_calling *****************
  5021 ;; Defined at:
  5022 ;;		line 18 in file "Application.c"
  5023 ;; Parameters:    Size  Location     Type
  5024 ;;		None
  5025 ;; Auto vars:     Size  Location     Type
  5026 ;;		None
  5027 ;; Return value:  Size  Location     Type
  5028 ;;                  1    wreg      void 
  5029 ;; Registers used:
  5030 ;;		wreg, status,2, status,0, cstack
  5031 ;; Tracked objects:
  5032 ;;		On entry : 0/0
  5033 ;;		On exit  : 0/0
  5034 ;;		Unchanged: 0/0
  5035 ;; Data sizes:     COMRAM   BANK0   BANK1   BANK2   BANK3   BANK4   BANK5   BANK6   BANK7   BANK8   BANK9  BANK10  BANK1
      +1  BANK12  BANK13  BANK14  BANK15
  5036 ;;      Params:         0       0       0       0       0       0       0       0       0       0       0       0       
      +0       0       0       0       0
  5037 ;;      Locals:         0       0       0       0       0       0       0       0       0       0       0       0       
      +0       0       0       0       0
  5038 ;;      Temps:          0       0       0       0       0       0       0       0       0       0       0       0       
      +0       0       0       0       0
  5039 ;;      Totals:         0       0       0       0       0       0       0       0       0       0       0       0       
      +0       0       0       0       0
  5040 ;;Total ram usage:        0 bytes
  5041 ;; Hardware stack levels used: 1
  5042 ;; Hardware stack levels required when called: 1
  5043 ;; This function calls:
  5044 ;;		_eusart_frmeerror_Restart
  5045 ;; This function is called by:
  5046 ;;		_EUSART_RX_ISR
  5047 ;; This function uses a non-reentrant model
  5048 ;;
  5049                           
  5050                           	psect	text30
  5051   0028B4                     __ptext30:
  5052                           	callstack 0
  5053   0028B4                     _eusart_frameerror_calling:
  5054                           	callstack 24
  5055   0028B4                     
  5056                           ;Application.c: 19:     frameerror++;
  5057   0028B4  2A62               	incf	_frameerror^0,f,c
  5058   0028B6                     
  5059                           ;Application.c: 20:     eusart_frmeerror_Restart();
  5060   0028B6  EC6B  F014         	call	_eusart_frmeerror_Restart	;wreg free
  5061   0028BA  0012               	return		;funcret
  5062   0028BC                     __end_of_eusart_frameerror_calling:
  5063                           	callstack 0
  5064                           
  5065 ;; *************** function _eusart_frmeerror_Restart *****************
  5066 ;; Defined at:
  5067 ;;		line 137 in file "MCAL_Layer/EUSART/eusart.c"
  5068 ;; Parameters:    Size  Location     Type
  5069 ;;		None
  5070 ;; Auto vars:     Size  Location     Type
  5071 ;;		None
  5072 ;; Return value:  Size  Location     Type
  5073 ;;                  1    wreg      unsigned char 
  5074 ;; Registers used:
  5075 ;;		wreg
  5076 ;; Tracked objects:
  5077 ;;		On entry : 0/0
  5078 ;;		On exit  : 0/0
  5079 ;;		Unchanged: 0/0
  5080 ;; Data sizes:     COMRAM   BANK0   BANK1   BANK2   BANK3   BANK4   BANK5   BANK6   BANK7   BANK8   BANK9  BANK10  BANK1
      +1  BANK12  BANK13  BANK14  BANK15
  5081 ;;      Params:         0       0       0       0       0       0       0       0       0       0       0       0       
      +0       0       0       0       0
  5082 ;;      Locals:         0       0       0       0       0       0       0       0       0       0       0       0       
      +0       0       0       0       0
  5083 ;;      Temps:          0       0       0       0       0       0       0       0       0       0       0       0       
      +0       0       0       0       0
  5084 ;;      Totals:         0       0       0       0       0       0       0       0       0       0       0       0       
      +0       0       0       0       0
  5085 ;;Total ram usage:        0 bytes
  5086 ;; Hardware stack levels used: 1
  5087 ;; This function calls:
  5088 ;;		Nothing
  5089 ;; This function is called by:
  5090 ;;		_eusart_frameerror_calling
  5091 ;; This function uses a non-reentrant model
  5092 ;;
  5093                           
  5094                           	psect	text31
  5095   0028D6                     __ptext31:
  5096                           	callstack 0
  5097   0028D6                     _eusart_frmeerror_Restart:
  5098                           	callstack 24
  5099   0028D6                     
  5100                           ;MCAL_Layer/EUSART/eusart.c: 138:     return RCREG;;	Return value of _eusart_frmeerror_R
      +                          estart is never used
  5101   0028D6  50AE               	movf	174,w,c	;volatile
  5102   0028D8  0012               	return		;funcret
  5103   0028DA                     __end_of_eusart_frmeerror_Restart:
  5104                           	callstack 0
  5105                           
  5106 ;; *************** function _CCP2_ISR *****************
  5107 ;; Defined at:
  5108 ;;		line 261 in file "MCAL_Layer/ccp2/ccp2.c"
  5109 ;; Parameters:    Size  Location     Type
  5110 ;;		None
  5111 ;; Auto vars:     Size  Location     Type
  5112 ;;		None
  5113 ;; Return value:  Size  Location     Type
  5114 ;;                  1    wreg      void 
  5115 ;; Registers used:
  5116 ;;		None
  5117 ;; Tracked objects:
  5118 ;;		On entry : 0/0
  5119 ;;		On exit  : 0/0
  5120 ;;		Unchanged: 0/0
  5121 ;; Data sizes:     COMRAM   BANK0   BANK1   BANK2   BANK3   BANK4   BANK5   BANK6   BANK7   BANK8   BANK9  BANK10  BANK1
      +1  BANK12  BANK13  BANK14  BANK15
  5122 ;;      Params:         0       0       0       0       0       0       0       0       0       0       0       0       
      +0       0       0       0       0
  5123 ;;      Locals:         0       0       0       0       0       0       0       0       0       0       0       0       
      +0       0       0       0       0
  5124 ;;      Temps:          0       0       0       0       0       0       0       0       0       0       0       0       
      +0       0       0       0       0
  5125 ;;      Totals:         0       0       0       0       0       0       0       0       0       0       0       0       
      +0       0       0       0       0
  5126 ;;Total ram usage:        0 bytes
  5127 ;; Hardware stack levels used: 1
  5128 ;; This function calls:
  5129 ;;		Nothing
  5130 ;; This function is called by:
  5131 ;;		_InterruptManagmentHigh
  5132 ;; This function uses a non-reentrant model
  5133 ;;
  5134                           
  5135                           	psect	text32
  5136   0028DA                     __ptext32:
  5137                           	callstack 0
  5138   0028DA                     _CCP2_ISR:
  5139                           	callstack 26
  5140   0028DA                     
  5141                           ;MCAL_Layer/ccp2/ccp2.c: 262:     (PIR2bits.CCP2IF=0);
  5142   0028DA  90A1               	bcf	161,0,c	;volatile
  5143   0028DC  0012               	return		;funcret
  5144   0028DE                     __end_of_CCP2_ISR:
  5145                           	callstack 0
  5146                           
  5147 ;; *************** function _CCP1_ISR *****************
  5148 ;; Defined at:
  5149 ;;		line 262 in file "MCAL_Layer/ccp1/ccp1.c"
  5150 ;; Parameters:    Size  Location     Type
  5151 ;;		None
  5152 ;; Auto vars:     Size  Location     Type
  5153 ;;		None
  5154 ;; Return value:  Size  Location     Type
  5155 ;;                  1    wreg      void 
  5156 ;; Registers used:
  5157 ;;		None
  5158 ;; Tracked objects:
  5159 ;;		On entry : 0/0
  5160 ;;		On exit  : 0/0
  5161 ;;		Unchanged: 0/0
  5162 ;; Data sizes:     COMRAM   BANK0   BANK1   BANK2   BANK3   BANK4   BANK5   BANK6   BANK7   BANK8   BANK9  BANK10  BANK1
      +1  BANK12  BANK13  BANK14  BANK15
  5163 ;;      Params:         0       0       0       0       0       0       0       0       0       0       0       0       
      +0       0       0       0       0
  5164 ;;      Locals:         0       0       0       0       0       0       0       0       0       0       0       0       
      +0       0       0       0       0
  5165 ;;      Temps:          0       0       0       0       0       0       0       0       0       0       0       0       
      +0       0       0       0       0
  5166 ;;      Totals:         0       0       0       0       0       0       0       0       0       0       0       0       
      +0       0       0       0       0
  5167 ;;Total ram usage:        0 bytes
  5168 ;; Hardware stack levels used: 1
  5169 ;; This function calls:
  5170 ;;		Nothing
  5171 ;; This function is called by:
  5172 ;;		_InterruptManagmentHigh
  5173 ;; This function uses a non-reentrant model
  5174 ;;
  5175                           
  5176                           	psect	text33
  5177   0028DE                     __ptext33:
  5178                           	callstack 0
  5179   0028DE                     _CCP1_ISR:
  5180                           	callstack 26
  5181   0028DE                     
  5182                           ;MCAL_Layer/ccp1/ccp1.c: 263:     (PIR1bits.CCP1IF=0);
  5183   0028DE  949E               	bcf	158,2,c	;volatile
  5184   0028E0  0012               	return		;funcret
  5185   0028E2                     __end_of_CCP1_ISR:
  5186                           	callstack 0
  5187                           
  5188 ;; *************** function _ADC_ISR *****************
  5189 ;; Defined at:
  5190 ;;		line 322 in file "MCAL_Layer/ADC/ADC.c"
  5191 ;; Parameters:    Size  Location     Type
  5192 ;;		None
  5193 ;; Auto vars:     Size  Location     Type
  5194 ;;		None
  5195 ;; Return value:  Size  Location     Type
  5196 ;;                  1    wreg      void 
  5197 ;; Registers used:
  5198 ;;		None
  5199 ;; Tracked objects:
  5200 ;;		On entry : 0/0
  5201 ;;		On exit  : 0/0
  5202 ;;		Unchanged: 0/0
  5203 ;; Data sizes:     COMRAM   BANK0   BANK1   BANK2   BANK3   BANK4   BANK5   BANK6   BANK7   BANK8   BANK9  BANK10  BANK1
      +1  BANK12  BANK13  BANK14  BANK15
  5204 ;;      Params:         0       0       0       0       0       0       0       0       0       0       0       0       
      +0       0       0       0       0
  5205 ;;      Locals:         0       0       0       0       0       0       0       0       0       0       0       0       
      +0       0       0       0       0
  5206 ;;      Temps:          0       0       0       0       0       0       0       0       0       0       0       0       
      +0       0       0       0       0
  5207 ;;      Totals:         0       0       0       0       0       0       0       0       0       0       0       0       
      +0       0       0       0       0
  5208 ;;Total ram usage:        0 bytes
  5209 ;; Hardware stack levels used: 1
  5210 ;; This function calls:
  5211 ;;		Nothing
  5212 ;; This function is called by:
  5213 ;;		_InterruptManagmentHigh
  5214 ;; This function uses a non-reentrant model
  5215 ;;
  5216                           
  5217                           	psect	text34
  5218   0028E2                     __ptext34:
  5219                           	callstack 0
  5220   0028E2                     _ADC_ISR:
  5221                           	callstack 26
  5222   0028E2                     
  5223                           ;MCAL_Layer/ADC/ADC.c: 323:     (PIR1bits.ADIF=0);
  5224   0028E2  9C9E               	bcf	158,6,c	;volatile
  5225   0028E4  0012               	return		;funcret
  5226   0028E6                     __end_of_ADC_ISR:
  5227                           	callstack 0
  5228                           
  5229                           	psect	text35
  5230   000000                     __ptext35:
  5231                           	callstack 0
  5232   000000                     
  5233                           	psect	rparam
  5234   000000                     
  5235                           	psect	temp
  5236   000071                     btemp:
  5237                           	callstack 0
  5238   000071                     	ds	1
  5239   000000                     int$flags	set	btemp
  5240   000000                     wtemp8	set	btemp+1
  5241   000000                     ttemp5	set	btemp+1
  5242   000000                     ttemp6	set	btemp+4
  5243   000000                     ttemp7	set	btemp+8
  5244                           
  5245                           	psect	idloc
  5246                           
  5247                           ;Config register IDLOC0 @ 0x200000
  5248                           ;	unspecified, using default values
  5249   200000                     	org	2097152
  5250   200000  FF                 	db	255
  5251                           
  5252                           ;Config register IDLOC1 @ 0x200001
  5253                           ;	unspecified, using default values
  5254   200001                     	org	2097153
  5255   200001  FF                 	db	255
  5256                           
  5257                           ;Config register IDLOC2 @ 0x200002
  5258                           ;	unspecified, using default values
  5259   200002                     	org	2097154
  5260   200002  FF                 	db	255
  5261                           
  5262                           ;Config register IDLOC3 @ 0x200003
  5263                           ;	unspecified, using default values
  5264   200003                     	org	2097155
  5265   200003  FF                 	db	255
  5266                           
  5267                           ;Config register IDLOC4 @ 0x200004
  5268                           ;	unspecified, using default values
  5269   200004                     	org	2097156
  5270   200004  FF                 	db	255
  5271                           
  5272                           ;Config register IDLOC5 @ 0x200005
  5273                           ;	unspecified, using default values
  5274   200005                     	org	2097157
  5275   200005  FF                 	db	255
  5276                           
  5277                           ;Config register IDLOC6 @ 0x200006
  5278                           ;	unspecified, using default values
  5279   200006                     	org	2097158
  5280   200006  FF                 	db	255
  5281                           
  5282                           ;Config register IDLOC7 @ 0x200007
  5283                           ;	unspecified, using default values
  5284   200007                     	org	2097159
  5285   200007  FF                 	db	255
  5286                           
  5287                           	psect	config
  5288                           
  5289                           ; Padding undefined space
  5290   300000                     	org	3145728
  5291   300000  FF                 	db	255
  5292                           
  5293                           ;Config register CONFIG1H @ 0x300001
  5294                           ;	Oscillator Selection bits
  5295                           ;	OSC = HS, HS oscillator
  5296                           ;	Fail-Safe Clock Monitor Enable bit
  5297                           ;	FCMEN = OFF, Fail-Safe Clock Monitor disabled
  5298                           ;	Internal/External Oscillator Switchover bit
  5299                           ;	IESO = OFF, Oscillator Switchover mode disabled
  5300   300001                     	org	3145729
  5301   300001  02                 	db	2
  5302                           
  5303                           ;Config register CONFIG2L @ 0x300002
  5304                           ;	Power-up Timer Enable bit
  5305                           ;	PWRT = OFF, PWRT disabled
  5306                           ;	Brown-out Reset Enable bits
  5307                           ;	BOREN = OFF, Brown-out Reset disabled in hardware and software
  5308                           ;	Brown Out Reset Voltage bits
  5309                           ;	BORV = 1, 
  5310   300002                     	org	3145730
  5311   300002  09                 	db	9
  5312                           
  5313                           ;Config register CONFIG2H @ 0x300003
  5314                           ;	Watchdog Timer Enable bit
  5315                           ;	WDT = OFF, WDT disabled (control is placed on the SWDTEN bit)
  5316                           ;	Watchdog Timer Postscale Select bits
  5317                           ;	WDTPS = 32768, 1:32768
  5318   300003                     	org	3145731
  5319   300003  1E                 	db	30
  5320                           
  5321                           ; Padding undefined space
  5322   300004                     	org	3145732
  5323   300004  FF                 	db	255
  5324                           
  5325                           ;Config register CONFIG3H @ 0x300005
  5326                           ;	CCP2 MUX bit
  5327                           ;	CCP2MX = PORTC, CCP2 input/output is multiplexed with RC1
  5328                           ;	PORTB A/D Enable bit
  5329                           ;	PBADEN = OFF, PORTB<4:0> pins are configured as digital I/O on Reset
  5330                           ;	Low-Power Timer1 Oscillator Enable bit
  5331                           ;	LPT1OSC = OFF, Timer1 configured for higher power operation
  5332                           ;	MCLR Pin Enable bit
  5333                           ;	MCLRE = ON, MCLR pin enabled; RE3 input pin disabled
  5334   300005                     	org	3145733
  5335   300005  81                 	db	129
  5336                           
  5337                           ;Config register CONFIG4L @ 0x300006
  5338                           ;	Stack Full/Underflow Reset Enable bit
  5339                           ;	STVREN = ON, Stack full/underflow will cause Reset
  5340                           ;	Single-Supply ICSP Enable bit
  5341                           ;	LVP = OFF, Single-Supply ICSP disabled
  5342                           ;	Extended Instruction Set Enable bit
  5343                           ;	XINST = OFF, Instruction set extension and Indexed Addressing mode disabled (Legacy mo
      +                          de)
  5344                           ;	Background Debugger Enable bit
  5345                           ;	DEBUG = 0x1, unprogrammed default
  5346   300006                     	org	3145734
  5347   300006  81                 	db	129
  5348                           
  5349                           ; Padding undefined space
  5350   300007                     	org	3145735
  5351   300007  FF                 	db	255
  5352                           
  5353                           ;Config register CONFIG5L @ 0x300008
  5354                           ;	Code Protection bit
  5355                           ;	CP0 = OFF, Block 0 (000800-003FFFh) not code-protected
  5356                           ;	Code Protection bit
  5357                           ;	CP1 = OFF, Block 1 (004000-007FFFh) not code-protected
  5358                           ;	Code Protection bit
  5359                           ;	CP2 = OFF, Block 2 (008000-00BFFFh) not code-protected
  5360                           ;	Code Protection bit
  5361                           ;	CP3 = OFF, Block 3 (00C000-00FFFFh) not code-protected
  5362   300008                     	org	3145736
  5363   300008  0F                 	db	15
  5364                           
  5365                           ;Config register CONFIG5H @ 0x300009
  5366                           ;	Boot Block Code Protection bit
  5367                           ;	CPB = OFF, Boot block (000000-0007FFh) not code-protected
  5368                           ;	Data EEPROM Code Protection bit
  5369                           ;	CPD = OFF, Data EEPROM not code-protected
  5370   300009                     	org	3145737
  5371   300009  C0                 	db	192
  5372                           
  5373                           ;Config register CONFIG6L @ 0x30000A
  5374                           ;	Write Protection bit
  5375                           ;	WRT0 = OFF, Block 0 (000800-003FFFh) not write-protected
  5376                           ;	Write Protection bit
  5377                           ;	WRT1 = OFF, Block 1 (004000-007FFFh) not write-protected
  5378                           ;	Write Protection bit
  5379                           ;	WRT2 = OFF, Block 2 (008000-00BFFFh) not write-protected
  5380                           ;	Write Protection bit
  5381                           ;	WRT3 = OFF, Block 3 (00C000-00FFFFh) not write-protected
  5382   30000A                     	org	3145738
  5383   30000A  0F                 	db	15
  5384                           
  5385                           ;Config register CONFIG6H @ 0x30000B
  5386                           ;	Configuration Register Write Protection bit
  5387                           ;	WRTC = OFF, Configuration registers (300000-3000FFh) not write-protected
  5388                           ;	Boot Block Write Protection bit
  5389                           ;	WRTB = OFF, Boot Block (000000-0007FFh) not write-protected
  5390                           ;	Data EEPROM Write Protection bit
  5391                           ;	WRTD = OFF, Data EEPROM not write-protected
  5392   30000B                     	org	3145739
  5393   30000B  E0                 	db	224
  5394                           
  5395                           ;Config register CONFIG7L @ 0x30000C
  5396                           ;	Table Read Protection bit
  5397                           ;	EBTR0 = OFF, Block 0 (000800-003FFFh) not protected from table reads executed in other
      +                           blocks
  5398                           ;	Table Read Protection bit
  5399                           ;	EBTR1 = OFF, Block 1 (004000-007FFFh) not protected from table reads executed in other
      +                           blocks
  5400                           ;	Table Read Protection bit
  5401                           ;	EBTR2 = OFF, Block 2 (008000-00BFFFh) not protected from table reads executed in other
      +                           blocks
  5402                           ;	Table Read Protection bit
  5403                           ;	EBTR3 = OFF, Block 3 (00C000-00FFFFh) not protected from table reads executed in other
      +                           blocks
  5404   30000C                     	org	3145740
  5405   30000C  0F                 	db	15
  5406                           
  5407                           ;Config register CONFIG7H @ 0x30000D
  5408                           ;	Boot Block Table Read Protection bit
  5409                           ;	EBTRB = OFF, Boot Block (000000-0007FFh) not protected from table reads executed in ot
      +                          her blocks
  5410   30000D                     	org	3145741
  5411   30000D  40                 	db	64
  5412                           tosu	equ	0xFFF
  5413                           tosh	equ	0xFFE
  5414                           tosl	equ	0xFFD
  5415                           stkptr	equ	0xFFC
  5416                           pclatu	equ	0xFFB
  5417                           pclath	equ	0xFFA
  5418                           pcl	equ	0xFF9
  5419                           tblptru	equ	0xFF8
  5420                           tblptrh	equ	0xFF7
  5421                           tblptrl	equ	0xFF6
  5422                           tablat	equ	0xFF5
  5423                           prodh	equ	0xFF4
  5424                           prodl	equ	0xFF3
  5425                           indf0	equ	0xFEF
  5426                           postinc0	equ	0xFEE
  5427                           postdec0	equ	0xFED
  5428                           preinc0	equ	0xFEC
  5429                           plusw0	equ	0xFEB
  5430                           fsr0h	equ	0xFEA
  5431                           fsr0l	equ	0xFE9
  5432                           wreg	equ	0xFE8
  5433                           indf1	equ	0xFE7
  5434                           postinc1	equ	0xFE6
  5435                           postdec1	equ	0xFE5
  5436                           preinc1	equ	0xFE4
  5437                           plusw1	equ	0xFE3
  5438                           fsr1h	equ	0xFE2
  5439                           fsr1l	equ	0xFE1
  5440                           bsr	equ	0xFE0
  5441                           indf2	equ	0xFDF
  5442                           postinc2	equ	0xFDE
  5443                           postdec2	equ	0xFDD
  5444                           preinc2	equ	0xFDC
  5445                           plusw2	equ	0xFDB
  5446                           fsr2h	equ	0xFDA
  5447                           fsr2l	equ	0xFD9
  5448                           status	equ	0xFD8

Data Sizes:
    Strings     26
    Constant    0
    Data        66
    BSS         98
    Persistent  0
    Stack       0

Auto Spaces:
    Space          Size  Autos    Used
    COMRAM          126     69     112
    BANK0           128      6     127
    BANK1           256      8       8
    BANK2           256      0       0
    BANK3           256      0       0
    BANK4           256      0       0
    BANK5           256      0       0
    BANK6           256      0       0
    BANK7           256      0       0
    BANK8           256      0       0
    BANK9           256      0       0
    BANK10          256      0       0
    BANK11          256      0       0
    BANK12          256      0       0
    BANK13          256      0       0
    BANK14          256      0       0
    BANK15          128      0       0

Pointer List with Targets:

    vfprintf$2	PTR PTR void  size(2) Largest target is 2
		 -> sprintf@ap(COMRAM[2]), 

    vfprintf$1	PTR const unsigned char  size(2) Largest target is 3
		 -> STR_3(CODE[3]), STR_2(CODE[3]), STR_1(CODE[3]), 

    vfprintf$0	PTR struct _IO_FILE size(2) Largest target is 12
		 -> sprintf@f(COMRAM[12]), 

    S4026$source	PTR const unsigned char  size(2) Largest target is 0

    f...source	PTR const unsigned char  size(2) Largest target is 0

    S4026$buffer	PTR unsigned char  size(2) Largest target is 0

    f...buffer	PTR unsigned char  size(2) Largest target is 0

    eusart_master_callback_ptr	PTR FTN()void  size(2) Largest target is 1
		 -> NULL(), 

    eusart_slave_callback_ptr	PTR FTN()void  size(2) Largest target is 1
		 -> NULL(), 

    buadrate_calculation@ptr.EUASRT_OVERERR_INTERRUPT_PTR	PTR FTN()void  size(2) Largest target is 1
		 -> eusart_overrunerror_calling(), 

    buadrate_calculation@ptr.EUASRT_FRAMEERR_INTERRUPT_PTR	PTR FTN()void  size(2) Largest target is 1
		 -> eusart_frameerror_calling(), 

    buadrate_calculation@ptr.EUASRT_RX_INTERRUPT_PTR	PTR FTN()void  size(2) Largest target is 1
		 -> eusart_rx_calling(), 

    buadrate_calculation@ptr.EUASRT_TX_INTERRUPT_PTR	PTR FTN()void  size(2) Largest target is 1
		 -> eusart_tx_calling(), 

    buadrate_calculation@ptr	PTR const struct . size(2) Largest target is 16
		 -> eusart(BANK0[16]), 

    eusart_tx_callback_ptr	PTR FTN()void  size(2) Largest target is 1
		 -> eusart_tx_calling(), NULL(), 

    eusart_tx_int@ptr.EUASRT_OVERERR_INTERRUPT_PTR	PTR FTN()void  size(2) Largest target is 1
		 -> eusart_overrunerror_calling(), 

    eusart_tx_int@ptr.EUASRT_FRAMEERR_INTERRUPT_PTR	PTR FTN()void  size(2) Largest target is 1
		 -> eusart_frameerror_calling(), 

    eusart_tx_int@ptr.EUASRT_RX_INTERRUPT_PTR	PTR FTN()void  size(2) Largest target is 1
		 -> eusart_rx_calling(), 

    eusart_tx_int@ptr.EUASRT_TX_INTERRUPT_PTR	PTR FTN()void  size(2) Largest target is 1
		 -> eusart_tx_calling(), 

    eusart_tx_int@ptr	PTR const struct . size(2) Largest target is 16
		 -> eusart(BANK0[16]), 

    eusart_overerr_callback_ptr	PTR FTN()void  size(2) Largest target is 1
		 -> eusart_overrunerror_calling(), NULL(), 

    eusart_framerr_callback_ptr	PTR FTN()void  size(2) Largest target is 1
		 -> eusart_frameerror_calling(), NULL(), 

    eusart_rx_callback_ptr	PTR FTN()void  size(2) Largest target is 1
		 -> eusart_rx_calling(), NULL(), 

    eusart_rx_int@ptr.EUASRT_OVERERR_INTERRUPT_PTR	PTR FTN()void  size(2) Largest target is 1
		 -> eusart_overrunerror_calling(), 

    eusart_rx_int@ptr.EUASRT_FRAMEERR_INTERRUPT_PTR	PTR FTN()void  size(2) Largest target is 1
		 -> eusart_frameerror_calling(), 

    eusart_rx_int@ptr.EUASRT_RX_INTERRUPT_PTR	PTR FTN()void  size(2) Largest target is 1
		 -> eusart_rx_calling(), 

    eusart_rx_int@ptr.EUASRT_TX_INTERRUPT_PTR	PTR FTN()void  size(2) Largest target is 1
		 -> eusart_tx_calling(), 

    eusart_rx_int@ptr	PTR const struct . size(2) Largest target is 16
		 -> eusart(BANK0[16]), 

    eusart_ASYN_WriteString@value	PTR unsigned char  size(2) Largest target is 12
		 -> STR_5(CODE[12]), STR_4(CODE[11]), 

    eusart_ASYN_int@ptr	PTR const struct . size(2) Largest target is 16
		 -> eusart(BANK0[16]), 

    S3055$EUASRT_OVERERR_INTERRUPT_PTR	PTR FTN()void  size(2) Largest target is 1
		 -> eusart_overrunerror_calling(), 

    eusart.EUASRT_OVERERR_INTERRUPT_PTR	PTR FTN()void  size(2) Largest target is 1
		 -> eusart_overrunerror_calling(), 

    S3055$EUASRT_FRAMEERR_INTERRUPT_PTR	PTR FTN()void  size(2) Largest target is 1
		 -> eusart_frameerror_calling(), 

    eusart.EUASRT_FRAMEERR_INTERRUPT_PTR	PTR FTN()void  size(2) Largest target is 1
		 -> eusart_frameerror_calling(), 

    S3055$EUASRT_RX_INTERRUPT_PTR	PTR FTN()void  size(2) Largest target is 1
		 -> eusart_rx_calling(), 

    eusart.EUASRT_RX_INTERRUPT_PTR	PTR FTN()void  size(2) Largest target is 1
		 -> eusart_rx_calling(), 

    S3055$EUASRT_TX_INTERRUPT_PTR	PTR FTN()void  size(2) Largest target is 1
		 -> eusart_tx_calling(), 

    eusart.EUASRT_TX_INTERRUPT_PTR	PTR FTN()void  size(2) Largest target is 1
		 -> eusart_tx_calling(), 

    timer3_callback_ptr	PTR FTN()void  size(2) Largest target is 1
		 -> NULL(), 

    S2874$timer3_callback	PTR FTN()void  size(2) Largest target is 0

    timer3_int@ptr.timer3_callback	PTR FTN()void  size(2) Largest target is 0

    timer2_callback_ptr	PTR FTN()void  size(2) Largest target is 1
		 -> NULL(), 

    S2745$timer2_callback	PTR FTN()void  size(2) Largest target is 0

    timer2_int@ptr.timer2_callback	PTR FTN()void  size(2) Largest target is 0

    timer1_callback_ptr	PTR FTN()void  size(2) Largest target is 1
		 -> NULL(), 

    S2554$timer1_callback	PTR FTN()void  size(2) Largest target is 0

    timer1_int@ptr.timer1_callback	PTR FTN()void  size(2) Largest target is 0

    timer0_read@ptr.timer0_callback	PTR FTN()void  size(2) Largest target is 0

    timer0_write@ptr.timer0_callback	PTR FTN()void  size(2) Largest target is 0

    timer0_callback_ptr	PTR FTN()void  size(2) Largest target is 1
		 -> NULL(), 

    S2427$timer0_callback	PTR FTN()void  size(2) Largest target is 0

    timer0_int@ptr.timer0_callback	PTR FTN()void  size(2) Largest target is 0

    Intx_set_interrupt_Handeler@intx.interrupt_callback	PTR FTN()void  size(2) Largest target is 0

    Int2_interrupt_Handeler	PTR FTN()void  size(2) Largest target is 1
		 -> NULL(), 

    Int1_interrupt_Handeler	PTR FTN()void  size(2) Largest target is 1
		 -> NULL(), 

    Int0_interrupt_Handeler	PTR FTN()void  size(2) Largest target is 1
		 -> NULL(), 

    interrupt_intx_pin@intx.interrupt_callback	PTR FTN()void  size(2) Largest target is 0

    interrupt_intx_edge@intx.interrupt_callback	PTR FTN()void  size(2) Largest target is 0

    interrupt_intx_disable@intx.interrupt_callback	PTR FTN()void  size(2) Largest target is 0

    S2130$interrupt_callback	PTR FTN()void  size(2) Largest target is 0

    interrupt_intx_enable@intx.interrupt_callback	PTR FTN()void  size(2) Largest target is 0

    RB7_HIGH_interrupt_Handeler	PTR FTN()void  size(2) Largest target is 1
		 -> NULL(), 

    RB7_LOW_interrupt_Handeler	PTR FTN()void  size(2) Largest target is 1
		 -> NULL(), 

    RB6_HIGH_interrupt_Handeler	PTR FTN()void  size(2) Largest target is 1
		 -> NULL(), 

    RB6_LOW_interrupt_Handeler	PTR FTN()void  size(2) Largest target is 1
		 -> NULL(), 

    RB5_HIGH_interrupt_Handeler	PTR FTN()void  size(2) Largest target is 1
		 -> NULL(), 

    RB5_LOW_interrupt_Handeler	PTR FTN()void  size(2) Largest target is 1
		 -> NULL(), 

    RB4_HIGH_interrupt_Handeler	PTR FTN()void  size(2) Largest target is 1
		 -> NULL(), 

    RB4_LOW_interrupt_Handeler	PTR FTN()void  size(2) Largest target is 1
		 -> NULL(), 

    S2194$interrupt_callback_HIGH	PTR FTN()void  size(2) Largest target is 0

    interrupt_rbx_int@rbx.interrupt_callback_HIGH	PTR FTN()void  size(2) Largest target is 0

    S2194$interrupt_callback_LOW	PTR FTN()void  size(2) Largest target is 0

    interrupt_rbx_int@rbx.interrupt_callback_LOW	PTR FTN()void  size(2) Largest target is 0

    Tris_Regs	PTR volatile unsigned char [5] size(2) Largest target is 1
		 -> TRISD(ABS[1]), TRISC(ABS[1]), TRISB(ABS[1]), TRISE(ABS[1]), 
		 -> TRISA(BITBIGSFRlllll[1]), 

    Lat_Regs	PTR volatile unsigned char [5] size(2) Largest target is 1
		 -> LATE(BITBIGSFRllllh[1]), LATD(BITBIGSFRllllh[1]), LATC(BITBIGSFRllllh[1]), LATB(BITBIGSFRllllh[1]), 
		 -> LATA(BITBIGSFRlllll[1]), 

    Port_Regs	PTR volatile unsigned char [5] size(2) Largest target is 1
		 -> PORTE(BITBIGSFRlllll[1]), PORTD(BITBIGSFRlllll[1]), PORTC(BITBIGSFRlllll[1]), PORTB(BITBIGSFRlllll[1]), 
		 -> PORTA(BITBIGSFRlllll[1]), 

    ccp2_callback_ptr	PTR FTN()void  size(2) Largest target is 1
		 -> NULL(), 

    S1433$ccp2_callback	PTR FTN()void  size(2) Largest target is 0

    ccp2_int@ptr.ccp2_callback	PTR FTN()void  size(2) Largest target is 0

    ccp1_callback_ptr	PTR FTN()void  size(2) Largest target is 1
		 -> NULL(), 

    S1133$ccp1_callback	PTR FTN()void  size(2) Largest target is 0

    ccp1_int@ptr.ccp1_callback	PTR FTN()void  size(2) Largest target is 0

    adc_reading_mode_cfg@adc.ADC_callback	PTR FTN()void  size(2) Largest target is 0

    adc_Vref_cfg@adc.ADC_callback	PTR FTN()void  size(2) Largest target is 0

    adc_reading_value@adc.ADC_callback	PTR FTN()void  size(2) Largest target is 0

    ADC_Interrupt_handler	PTR FTN()void  size(2) Largest target is 1
		 -> NULL(), 

    S719$ADC_callback	PTR FTN()void  size(2) Largest target is 0

    adc_int@adc.ADC_callback	PTR FTN()void  size(2) Largest target is 0

    sp__memset	PTR void  size(2) Largest target is 0


Critical Paths under _main in COMRAM

    _buadrate_calculation->___fladd
    ___fldiv->___xxtofl
    ___fladd->___fldiv

Critical Paths under _InterruptManagmentHigh in COMRAM

    _EUSART_RX_ISR->_eusart_rx_calling
    _eusart_rx_calling->_eusart_ASYN_WriteString
    _eusart_ASYN_WriteString->_eusart_ASYN_Write

Critical Paths under _main in BANK0

    _main->_eusart_ASYN_int
    _eusart_ASYN_int->_buadrate_calculation

Critical Paths under _InterruptManagmentHigh in BANK0

    None.

Critical Paths under _main in BANK1

    _eusart_ASYN_int->_buadrate_calculation

Critical Paths under _InterruptManagmentHigh in BANK1

    None.

Critical Paths under _main in BANK2

    None.

Critical Paths under _InterruptManagmentHigh in BANK2

    None.

Critical Paths under _main in BANK3

    None.

Critical Paths under _InterruptManagmentHigh in BANK3

    None.

Critical Paths under _main in BANK4

    None.

Critical Paths under _InterruptManagmentHigh in BANK4

    None.

Critical Paths under _main in BANK5

    None.

Critical Paths under _InterruptManagmentHigh in BANK5

    None.

Critical Paths under _main in BANK6

    None.

Critical Paths under _InterruptManagmentHigh in BANK6

    None.

Critical Paths under _main in BANK7

    None.

Critical Paths under _InterruptManagmentHigh in BANK7

    None.

Critical Paths under _main in BANK8

    None.

Critical Paths under _InterruptManagmentHigh in BANK8

    None.

Critical Paths under _main in BANK9

    None.

Critical Paths under _InterruptManagmentHigh in BANK9

    None.

Critical Paths under _main in BANK10

    None.

Critical Paths under _InterruptManagmentHigh in BANK10

    None.

Critical Paths under _main in BANK11

    None.

Critical Paths under _InterruptManagmentHigh in BANK11

    None.

Critical Paths under _main in BANK12

    None.

Critical Paths under _InterruptManagmentHigh in BANK12

    None.

Critical Paths under _main in BANK13

    None.

Critical Paths under _InterruptManagmentHigh in BANK13

    None.

Critical Paths under _main in BANK14

    None.

Critical Paths under _InterruptManagmentHigh in BANK14

    None.

Critical Paths under _main in BANK15

    None.

Critical Paths under _InterruptManagmentHigh in BANK15

    None.

Call Graph Tables:

 ---------------------------------------------------------------------------------
 (Depth) Function   	        Calls       Base Space   Used Autos Params    Refs
 ---------------------------------------------------------------------------------
 (0) _main                                                 0     0      0   10816
                    _eusart_ASYN_int
 ---------------------------------------------------------------------------------
 (1) _eusart_ASYN_int                                      3     1      2   10816
                                              4 BANK0      2     0      2
               _buadrate_calculation
                      _eusart_rx_int
                      _eusart_tx_int
 ---------------------------------------------------------------------------------
 (2) _eusart_tx_int                                        2     0      2     186
                                             14 COMRAM     2     0      2
 ---------------------------------------------------------------------------------
 (2) _eusart_rx_int                                        2     0      2     230
                                             14 COMRAM     2     0      2
 ---------------------------------------------------------------------------------
 (2) _buadrate_calculation                                12    10      2   10173
                                              0 BANK0      4     2      2
                                              0 BANK1      8     8      0
                            ___fladd
                            ___fldiv
                            ___fltol
                           ___xxtofl
 ---------------------------------------------------------------------------------
 (3) ___xxtofl                                            14    10      4    1106
                                             14 COMRAM    14    10      4
 ---------------------------------------------------------------------------------
 (3) ___fltol                                             10     6      4     697
                                             14 COMRAM    10     6      4
 ---------------------------------------------------------------------------------
 (3) ___fldiv                                             25    17      8    3623
                                             28 COMRAM    25    17      8
                           ___xxtofl (ARG)
 ---------------------------------------------------------------------------------
 (3) ___fladd                                             16     8      8    4122
                                             53 COMRAM    16     8      8
                            ___fldiv (ARG)
                           ___xxtofl (ARG)
 ---------------------------------------------------------------------------------
 Estimated maximum stack depth 3
 ---------------------------------------------------------------------------------
 (Depth) Function   	        Calls       Base Space   Used Autos Params    Refs
 ---------------------------------------------------------------------------------
 (4) _InterruptManagmentHigh                               6     6      0     483
                                              8 COMRAM     6     6      0
                            _ADC_ISR
                           _CCP1_ISR
                           _CCP2_ISR
                      _EUSART_RX_ISR
                      _EUSART_TX_ISR
                           _INT0_ISR
                           _INT1_ISR
                           _INT2_ISR
                            _RB4_ISR
                            _RB5_ISR
                            _RB6_ISR
                            _RB7_ISR
                         _TIMER0_ISR
                         _TIMER1_ISR
                         _TIMER2_ISR
                         _TIMER3_ISR
 ---------------------------------------------------------------------------------
 (5) _TIMER3_ISR                                           0     0      0       0
 ---------------------------------------------------------------------------------
 (5) _TIMER2_ISR                                           0     0      0       0
 ---------------------------------------------------------------------------------
 (5) _TIMER1_ISR                                           0     0      0       0
 ---------------------------------------------------------------------------------
 (5) _TIMER0_ISR                                           0     0      0       0
 ---------------------------------------------------------------------------------
 (5) _RB7_ISR                                              1     1      0      44
                                              0 COMRAM     1     1      0
 ---------------------------------------------------------------------------------
 (5) _RB6_ISR                                              1     1      0      44
                                              0 COMRAM     1     1      0
 ---------------------------------------------------------------------------------
 (5) _RB5_ISR                                              1     1      0      44
                                              0 COMRAM     1     1      0
 ---------------------------------------------------------------------------------
 (5) _RB4_ISR                                              1     1      0      44
                                              0 COMRAM     1     1      0
 ---------------------------------------------------------------------------------
 (5) _INT2_ISR                                             0     0      0       0
 ---------------------------------------------------------------------------------
 (5) _INT1_ISR                                             0     0      0       0
 ---------------------------------------------------------------------------------
 (5) _INT0_ISR                                             0     0      0       0
 ---------------------------------------------------------------------------------
 (5) _EUSART_TX_ISR                                        0     0      0       0
                                NULL *
                  _eusart_tx_calling *
 ---------------------------------------------------------------------------------
 (6) _eusart_tx_calling                                    0     0      0       0
 ---------------------------------------------------------------------------------
 (5) _EUSART_RX_ISR                                        0     0      0     307
                                NULL *
          _eusart_frameerror_calling *
        _eusart_overrunerror_calling *
                  _eusart_rx_calling *
 ---------------------------------------------------------------------------------
 (6) _eusart_rx_calling                                    2     2      0     302
                                              6 COMRAM     2     2      0
                   _eusart_ASYN_Read
                  _eusart_ASYN_Write
            _eusart_ASYN_WriteString
 ---------------------------------------------------------------------------------
 (7) _eusart_ASYN_WriteString                              5     3      2     272
                                              1 COMRAM     5     3      2
                  _eusart_ASYN_Write
 ---------------------------------------------------------------------------------
 (8) _eusart_ASYN_Write                                    2     2      0      30
                                              0 COMRAM     1     1      0
 ---------------------------------------------------------------------------------
 (7) _eusart_ASYN_Read                                     0     0      0       0
 ---------------------------------------------------------------------------------
 (6) _eusart_overrunerror_calling                          0     0      0       5
                  _eusart_RX_Restart
 ---------------------------------------------------------------------------------
 (7) _eusart_RX_Restart                                    1     1      0       5
 ---------------------------------------------------------------------------------
 (6) _eusart_frameerror_calling                            0     0      0       0
           _eusart_frmeerror_Restart
 ---------------------------------------------------------------------------------
 (7) _eusart_frmeerror_Restart                             0     0      0       0
 ---------------------------------------------------------------------------------
 (6) NULL(Fake)                                            0     0      0       0
 ---------------------------------------------------------------------------------
 (5) _CCP2_ISR                                             0     0      0       0
 ---------------------------------------------------------------------------------
 (5) _CCP1_ISR                                             0     0      0       0
 ---------------------------------------------------------------------------------
 (5) _ADC_ISR                                              0     0      0       0
 ---------------------------------------------------------------------------------
 Estimated maximum stack depth 8
 ---------------------------------------------------------------------------------

 Call Graph Graphs:

 _main (ROOT)
   _eusart_ASYN_int
     _buadrate_calculation
       ___fladd
         ___fldiv (ARG)
           ___xxtofl (ARG)
         ___xxtofl (ARG)
       ___fldiv
       ___fltol
       ___xxtofl
     _eusart_rx_int
     _eusart_tx_int

 _InterruptManagmentHigh (ROOT)
   _ADC_ISR
   _CCP1_ISR
   _CCP2_ISR
   _EUSART_RX_ISR
     NULL(Fake) *
     _eusart_frameerror_calling *
       _eusart_frmeerror_Restart
     _eusart_overrunerror_calling *
       _eusart_RX_Restart
     _eusart_rx_calling *
       _eusart_ASYN_Read
       _eusart_ASYN_Write
       _eusart_ASYN_WriteString
         _eusart_ASYN_Write
   _EUSART_TX_ISR
     NULL(Fake) *
     _eusart_tx_calling *
   _INT0_ISR
   _INT1_ISR
   _INT2_ISR
   _RB4_ISR
   _RB5_ISR
   _RB6_ISR
   _RB7_ISR
   _TIMER0_ISR
   _TIMER1_ISR
   _TIMER2_ISR
   _TIMER3_ISR

 Address spaces:
Name               Size   Autos  Total    Cost      Usage
BIGRAM             F7F      0       0      49        0.0%
EEDATA             400      0       0       0        0.0%
BITBANK14          100      0       0      33        0.0%
BANK14             100      0       0      34        0.0%
BITBANK13          100      0       0      31        0.0%
BANK13             100      0       0      32        0.0%
BITBANK12          100      0       0      29        0.0%
BANK12             100      0       0      30        0.0%
BITBANK11          100      0       0      27        0.0%
BANK11             100      0       0      28        0.0%
BITBANK10          100      0       0      25        0.0%
BANK10             100      0       0      26        0.0%
BITBANK9           100      0       0      23        0.0%
BANK9              100      0       0      24        0.0%
BITBANK8           100      0       0      21        0.0%
BANK8              100      0       0      22        0.0%
BITBANK7           100      0       0      19        0.0%
BANK7              100      0       0      20        0.0%
BITBANK6           100      0       0      17        0.0%
BANK6              100      0       0      18        0.0%
BITBANK5           100      0       0      15        0.0%
BANK5              100      0       0      16        0.0%
BITBANK4           100      0       0      13        0.0%
BANK4              100      0       0      14        0.0%
BITBANK3           100      0       0      10        0.0%
BANK3              100      0       0      11        0.0%
BITBANK2           100      0       0       8        0.0%
BANK2              100      0       0       9        0.0%
BITBANK1           100      0       0       6        0.0%
BANK1              100      8       8       7        3.1%
BITBANK15           80      0       0      35        0.0%
BANK15              80      0       0      36        0.0%
BITBANK0            80      0       0       4        0.0%
BANK0               80      6      7F       5       99.2%
BITCOMRAM           7E      0       0       0        0.0%
COMRAM              7E     45      70       1       88.9%
BITBIGSFRhlhhlh     18      0       0      38        0.0%
BITBIGSFRhh          D      0       0      37        0.0%
BITBIGSFRlllhh       6      0       0      46        0.0%
BITBIGSFRhlhhll      5      0       0      39        0.0%
BITBIGSFRhlhl        5      0       0      40        0.0%
BITBIGSFRllllh       4      0       0      47        0.0%
BITBIGSFRllhllh      4      0       0      44        0.0%
BITBIGSFRllhlhl      4      0       0      43        0.0%
BITBIGSFRlllll       4      0       0      48        0.0%
BITBIGSFRllhlhl      1      0       0      42        0.0%
BITBIGSFRllhlhh      1      0       0      41        0.0%
BITBIGSFRllhlll      1      0       0      45        0.0%
BIGSFR               0      0       0     200        0.0%
BITSFR               0      0       0     200        0.0%
SFR                  0      0       0     200        0.0%
STACK                0      0       0       2        0.0%
NULL                 0      0       0       0        0.0%
ABS                  0      0      F7      12        0.0%
DATA                 0      0      F7       3        0.0%
CODE                 0      0       0       0        0.0%


Microchip Technology PIC18 Macro Assembler V2.41 build 20230208172133 
Symbol Table                                                                                   Sat Aug 19 23:31:35 2023

                       _overrunerror 0063                         ___fldiv@aexp 0035  
                       ___fldiv@bexp 0034                         ___fldiv@sign 002D  
                                _PR2 0FCB              _Int2_interrupt_Handeler 00F7  
                    __end_of_ADC_ISR 28E6                                  tosl 0FFD  
                                wreg 0FE8                          led_on@F3059 006B  
           _eusart_frmeerror_Restart 28D6                    _ccp2_callback_ptr 0058  
                    __end_of_RB4_ISR 2842                      __end_of_RB5_ISR 2828  
                    __end_of_RB6_ISR 280E                      __end_of_RB7_ISR 27F4  
                       ___fltol@exp1 0018                                 l2000 22C8  
                               l1302 1046                                 l1310 152C  
                               l1304 10FE                                 l1305 11B6  
                               l1306 126E                                 l1234 276C  
                               l1307 1326                                 l1308 13DE  
                               l1184 2868                                 l1281 24EC  
                               l1185 2868                                 l1282 2486  
                               l1291 2578                                 l1284 24E6  
                               l1292 253E                                 l1294 2572  
                               l1287 24EE                                 l1297 257A  
                               l1628 2436                                 l1913 217C  
                               l1915 1FDC                                 l1860 170A  
                               l1924 2022                                 l1861 16D0  
                               l1926 209A                                 l1918 1FA0  
                               l1927 2088                                 l1859 171C  
                               l5411 251E                                 l1876 1836  
                               l1868 19EC                                 l1885 1906  
                               l5421 256C                                 l5413 2538  
                               l5405 24F0                                 l1886 18F4  
                               l7111 155A                                 l7103 152E  
                               l5431 2480                                 l5423 2438  
                               l5415 2540                                 l5407 2502  
                               l7201 1708                                 l7121 1594  
                               l7113 156A                                 l7105 153A  
                               l1993 226C                                 l5433 2488  
                               l5425 244A                                 l5417 255A  
                               l5409 251C                                 l1986 21D4  
                               l7211 175E                                 l7203 172A  
                               l7131 15C2                                 l7123 159A  
                               l7115 157A                                 l7107 1548  
                               l5435 24A2                                 l5427 2464  
                               l5419 255C                                 l7301 19DC  
                               l7221 1798                                 l7213 176C  
                               l7205 173A                                 l7141 15F6  
                               l7133 15C4                                 l7125 15AC  
                               l7117 157C                                 l7109 154A  
                               l1989 2330                                 l5437 24A4  
                               l5429 2466                                 l7231 1804  
                               l7223 179A                                 l7215 177A  
                               l7151 1632                                 l7135 15D4  
                               l7143 15FE                                 l7127 15AE  
                               l7119 1584                                 l7311 1E00  
                               l5439 24E0                                 l7241 185C  
                               l7233 1806                                 l7225 17A4  
                               l7217 1786                                 l7209 174E  
                               l7161 1646                                 l7153 1636  
                               l7145 160E                                 l7137 15E4  
                               l7129 15B4                                 l7401 2040  
                               l7313 1E10                                 l7321 1E3A  
                               l7305 1DE4                                 l7251 188A  
                               l7235 1816                                 l7219 178A  
                               l7227 17AA                                 l7171 165A  
                               l7163 164A                                 l7155 163A  
                               l7147 1620                                 l7139 15F4  
                               l7411 20AA                                 l7403 2044  
                               l7331 1E66                                 l7323 1E4A  
                               l7315 1E20                                 l7307 1DF0  
                               l7253 1898                                 l7245 1870  
                               l7261 18B6                                 l7229 17D0  
                               l7237 1826                                 l7173 165E  
                               l7165 164E                                 l7157 163E  
                               l7149 162E                                 l7181 166E  
                               l7421 210C                                 l7413 20B6  
                               l7405 2052                                 l7333 1E76  
                               l7341 1EA0                                 l7325 1E50  
                               l7317 1E30                                 l7309 1DFE  
                               l7501 2216                                 l7255 18A0  
                               l7247 187A                                 l7239 184C  
                               l7263 18C4                                 l7191 16DE  
                               l7183 1672                                 l7175 1662  
                               l7167 1652                                 l7159 1642  
                               l7431 216A                                 l7423 2122  
                               l7415 20C4                                 l7407 2080  
                               l7351 1EE2                                 l7343 1EB0  
                               l7335 1E86                                 l7327 1E56  
                               l7319 1E32                                 l7511 229E  
                               l7503 2222                                 l7273 1916  
                               l7281 196C                                 l7265 18C8  
                               l7257 18A4                                 l7249 1888  
                               l7193 16EA                                 l7185 169C  
                               l7177 1666                                 l7169 1656  
                               l7433 2170                                 l7425 213C  
                               l7417 20EE                                 l7345 1EC6  
                               l7337 1E96                                 l7329 1E64  
                               l7521 22DC                                 l7513 22AA  
                               l7505 2254                                 l7291 19BE  
                               l7283 197C                                 l7275 1922  
                               l7267 18D6                                 l7259 18B4  
                               l7195 16EE                                 l7187 16B8  
                               l7179 166A                                 l7435 2172  
                               l7427 2158                                 l7419 20F2  
                               l7371 1F64                                 l7363 1F1A  
                               l7347 1ED6                                 l7355 1EF6  
                               l7339 1E98                                 l7451 2386  
                               l7443 2332                                 l7523 2300  
                               l7515 22B8                                 l7507 2256  
                               l7293 19C4                                 l7285 198C  
                               l7277 1930                                 l7269 18EC  
                               l7197 16FC                                 l7189 16C8  
                               l7429 215C                                 l7381 1FAA  
                               l7373 1F6C                                 l7365 1F34  
                               l7357 1F06                                 l7349 1EDE  
                               l7453 2388                                 l7445 2348  
                               l7525 2310                                 l7517 22D6  
                               l7509 2262                                 l7541 1104  
                               l7533 101C                                 l7295 19C6  
                               l7287 19AC                                 l7279 196A  
                               l7199 16FE                                 l7391 2002  
                               l7383 1FC8                                 l7375 1F7C  
                               l7367 1F44                                 l7359 1F06  
                               l7455 2398                                 l7527 231E  
                               l7519 22D8                                 l7551 12CA  
                               l7543 115A                                 l7535 1030  
                               l7297 19CC                                 l7289 19B0  
                               l7393 2008                                 l7385 1FCA  
                               l7377 1F90                                 l7369 1F54  
                               l7481 2416                                 l7465 23C2  
                               l7457 239C                                 l7449 235C  
                               l7529 2320                                 l7553 132C  
                               l7545 11BC                                 l7537 104C  
                               l7299 19DA                                 l7395 2012  
                               l7387 1FDA                                 l7379 1F9E  
                               l7483 2426                                 l7475 23EA  
                               l7467 23CC                                 l7459 23AA  
                               l7491 219E                                 l7555 1382  
                               l7547 1212                                 l7539 10A2  
                               l7563 1496                                 l7397 2020  
                               l7389 1FEC                                 l7477 23F6  
                               l7469 23D6                                 l7493 21E4  
                               l7557 13E4                                 l7549 1274  
                               l7565 14EE                                 l7581 2766  
                               l7573 2728                                 l7709 285A  
                               l7399 2032                                 l7479 2406  
                               l7495 21FA                                 l7487 2180  
                               l7559 143A                                 l7583 2768  
                               l7575 2728                                 l7489 2190  
                               l7761 14B8                                 l7585 276A  
                               l7577 273C                                 l7499 220E  
                               l7587 276C                                 l7579 2742  
                               STR_1 1018                                 STR_4 100D  
                               STR_5 1001                                 _LATA 0F89  
                               _LATB 0F8A                                 _LATC 0F8B  
                               _LATD 0F8C                                 _LATE 0F8D  
                               u7000 1898                                 u4600 244A  
                               u7001 1894                                 u4601 2446  
                               u7010 18B4                                 u4610 2464  
                               u7011 18B0                                 u4611 2460  
                               u7100 198C                                 u7020 18C4  
                               u4620 2480                                 u7101 1988  
                               u7021 18C0                                 u4621 247C  
                               u7110 19AC                                 u7030 18D6  
                               u4630 24A2                                 u7111 19A8  
                               u7031 18D2                                 u4631 249E  
                               u7120 19BE                                 u7040 18EC  
                               u7200 1EC6                                 u4560 2502  
                               u7121 19BA                                 u7041 18E8  
                               u7201 1EC2                                 u4561 24FE  
                               u7130 19DA                                 u7050 1902  
                               u7210 1F06                                 u4570 251C  
                               u7131 19D6                                 u7051 18FE  
                               u7211 1F02                                 u4571 2518  
                               u7060 1916                                 u7300 2080  
                               u7220 1F7C                                 u7140 1DFE  
                               u4580 2538                                 u7061 1912  
                               u7301 207C                                 u7221 1F78  
                               u7141 1DFA                                 u4581 2534  
                               u7070 1930                                 u7310 2096  
                               u7230 1F9E                                 u7150 1E10  
                               u4590 255A                                 u7071 192C  
                               u7311 2092                                 u7231 1F9A  
                               u7151 1E0C                                 u4591 2556  
                               u7080 196A                                 u7320 20AA  
                               u7240 1FC8                                 u7160 1E20  
                               u7400 23BE                                 u7081 1966  
                               u7321 20A6                                 u7241 1FC4  
                               u7161 1E1C                                 u7401 23BA  
                               u7090 197C                                 u7330 20C4  
                               u7250 1FEC                                 u7170 1E64  
                               u7410 23E6                                 u7091 1978  
                               u7331 20C0                                 u7251 1FE8  
                               u7171 1E60                                 u7411 23E2  
                               u7340 210C                                 u7260 2002  
                               u7180 1E76                                 u7420 2406  
                               u7500 22C8                                 u7341 2108  
                               u7261 1FFE                                 u7181 1E72  
                               u7421 2402                                 u7501 22C4  
                               u7350 213C                                 u7270 2020  
                               u7190 1E86                                 u7430 2416  
                               u7510 22D6                                 u7351 2138  
                               u7271 201C                                 u7191 1E82  
                               u7431 2412                                 u7511 22D2  
                               u6800 15D4                                 u7360 216A  
                               u7280 2040                                 u7520 2310  
                               u7440 2190                                 u6801 15D0  
                               u7361 2166                                 u7281 203C  
                               u7521 230C                                 u7441 218C  
                               u6810 15E4                                 u7290 2052  
                               u7370 2348                                 u7530 231E  
                               u7450 219E                                 u6811 15E0  
                               u7291 204E                                 u7371 2344  
                               u7531 231A                                 u7451 219A  
                               u6900 172A                                 u6820 1620  
                               u7380 237C                                 u7460 21FA  
                               u7540 1030                                 u6901 1726  
                               u6821 161C                                 u7461 21F6  
                               u7541 102C                                 u6910 173A  
                               u6830 162E                                 u6750 1548  
                               u7390 23AA                                 u7470 2250  
                               u7550 273C                                 u6911 1736  
                               u6831 162A                                 u6751 1544  
                               u7391 23A6                                 u7471 224C  
                               u7551 2738                                 u6920 176C  
                               u6840 169C                                 u6760 155A  
                               u7480 229A                                 u6921 1768  
                               u6841 1698                                 u6761 1556  
                               u7385 2372                                 u7481 2296  
                               u6930 177A                                 u6850 16B4  
                               u6770 156A                                 u7490 22B8  
                               u6931 1776                                 u6851 16AE  
                               u6771 1566                                 u7491 22B4  
                               u6940 1798                                 u6860 16B6  
                               u6780 15AC                                 u6941 1794  
                               u6781 15A8                                 u6950 17D0  
                               u6870 16DE                                 u6790 15C2  
                               u6951 17CC                                 u6871 16DA  
                               u6791 15BE                                 u6960 1816  
                               u6880 16FC                                 u6961 1812  
                               u6881 16F8                                 u6970 184C  
                               u6890 171C                                 u6971 1848  
                               u6891 1718                                 u6980 185C  
                               u6981 1858                                 u6990 1888  
                               u6991 1884                                 _TMR2 0FCC  
                               _TMR3 0FB2                                 _data 0061  
                               _main 285A                     __end_of_CCP1_ISR 28E2  
                   __end_of_CCP2_ISR 28DE                                 fsr2h 0FDA  
                               indf2 0FDF                                 fsr1l 0FE1  
                               fsr2l 0FD9                                 btemp 0071  
                  _eusart_rx_calling 25FC                                 start 000E  
                    ___fldiv@new_exp 002E                   ?_eusart_rx_calling 0001  
                       ___param_bank 0000                  _timer1_callback_ptr 00E3  
                        ?_TIMER0_ISR 0001                          ?_TIMER1_ISR 0001  
                  _eusart_tx_calling 2870                          ?_TIMER2_ISR 0001  
                        ?_TIMER3_ISR 0001                     __end_of_INT0_ISR 28D2  
                   __end_of_INT1_ISR 28CE                     __end_of_INT2_ISR 28CA  
                ??_eusart_rx_calling 0007                   ?_eusart_tx_calling 0001  
                      _EUSART_RX_ISR 257C                        ___fltol@sign1 0017  
                      _EUSART_TX_ISR 27AC                      __end_of___fladd 19EE  
                              ?_main 0001                      __end_of___fldiv 217E  
                              _EEADR 0FA9                      __end_of___fltol 2438  
                       led_off@F3064 006A                                i2l503 28E0  
                              i2l428 28E4                                i2l912 28D0  
                              i2l920 28C8                                i2l577 28DC  
                              i2l916 28CC                                i2l775 1DB8  
                              i2l929 2840                                i2l777 1DC8  
                              i2l938 2826                                i2l947 280C  
                              i2l956 27F2                                _RCREG 0FAE  
                              _TMR0H 0FD7                                _TMR1H 0FCF  
                              _TMR0L 0FD6                                _TMR3H 0FB3  
                              _TMR1L 0FCE                                _TMR3L 0FB2  
                              _SPBRG 0FAF                                _PORTA 0F80  
                              _PORTB 0F81                                _PORTC 0F82  
                              _PORTD 0F83                                _PORTE 0F84  
                              _TRISA 0F92                                _TRISB 0F93  
                              _TRISC 0F94                                _TRISD 0F95  
                              _TRISE 0F96                                _TXREG 0FAD  
                       led_int@F3054 006C              buadrate_calculation@ptr 00F9  
                ??_eusart_tx_calling 0001                                _value 0060  
                              pclath 0FFA                                pclatu 0FFB  
                              tablat 0FF5            __end_of_eusart_rx_calling 2672  
                              ttemp5 0072                                ttemp6 0075  
                              ttemp7 0079                    ??_eusart_ASYN_int 0046  
                              status 0FD8                                wtemp8 0072  
__end_of_eusart_overrunerror_calling 28B4          _eusart_overrunerror_calling 28AC  
           ??_InterruptManagmentHigh 0009                         RB4_ISR@flage 0001  
                    __initialization 2672            __end_of_eusart_tx_calling 2880  
                       __end_of_main 2870          _eusart_framerr_callback_ptr 004C  
                          ??_ADC_ISR 0001                         RB5_ISR@flage 0001  
                     ?_EUSART_RX_ISR 0001                       ?_EUSART_TX_ISR 0001  
                             ??_main 0046             ?_eusart_ASYN_WriteString 0002  
                      __activetblptr 0003                            ??_RB4_ISR 0001  
                          ??_RB5_ISR 0001                            ??_RB6_ISR 0001  
                          ??_RB7_ISR 0001                         RB6_ISR@flage 0001  
 buadrate_calculation@baudrate_local 0100                               _ADRESH 0FC4  
                             _EEADRH 0FAA                               _ADRESL 0FC3  
                             _EEDATA 0FA8                               _CCPR1H 0FBF  
                             _CCPR1L 0FBE                               _CCPR2L 0FBB  
                             _EECON2 0FA7                               i2l1004 28A2  
                             i2l2031 28BC                               i2l1160 28B2  
                             i2l1320 25FA                               i2l2033 28BC  
                             i2l1057 2896                               i2l1137 288A  
                             i2l1314 27D8                               i2l1163 28BA  
                             i2l2035 28BE                               i2l1262 2844  
                             i2l1166 287E                               i2l2039 28D6  
                             i2l1271 2726                               i2l1175 2670  
                             i2l1095 28AA                               i2l1265 2858  
                             i2l1274 28C0                               i2l1259 28D4  
                             i2l1277 28D8                               i2l2521 28B6  
                             i2l2515 28AC                               i2l2517 28AE  
                             i2l2519 28B4                               i2l2815 28E2  
                             i2l2823 28DA                               i2l2831 28CA  
                             i2l2819 28DE                               i2l2827 28CE  
                             i2l5351 2616                               i2l5343 2870  
                             i2l5361 266A                               i2l5353 2620  
                             i2l5345 25FC                               i2l5601 2812  
                             i2l5355 2630                               i2l5347 260A  
                             i2l5611 27F8                               i2l5349 2610  
                             i2l5605 2826                               i2l5621 27DE  
                             i2l5359 2640                               i2l5615 280C  
                             i2l5631 289A                               i2l5609 27F6  
                             i2l5625 27F2                               i2l5633 289E  
                             i2l5641 2892                               i2l5619 27DC  
                             i2l5651 2882                               i2l4861 2844  
                             i2l5661 27C0                               i2l5629 2898  
                             i2l5637 288C                               i2l5645 28A4  
                             i2l5653 2886                               i2l6701 1B50  
                             i2l4871 28D2                               i2l4863 2852  
                             i2l5671 25D0                               i2l5663 257C  
                             i2l5591 282C                               i2l5639 288E  
                             i2l6711 1B86                               i2l6703 1B5E  
                             i2l4865 2856                               i2l4881 26FC  
                             i2l5673 25E2                               i2l5665 258E  
                             i2l5657 27AC                               i2l5585 28C6  
                             i2l5649 2880                               i2l6801 1D76  
                             i2l6713 1B94                               i2l6721 1BBC  
                             i2l6705 1B6E                               i2l4867 2858  
                             i2l4875 26D4                               i2l5667 25A6  
                             i2l5659 27AE                               i2l5595 2840  
                             i2l6811 1DA8                               i2l6803 1D84  
                             i2l6731 1BFA                               i2l6723 1BCA  
                             i2l6715 1BA2                               i2l6707 1B72  
                             i2l6651 1A36                               i2l6643 1A08  
                             i2l4877 26DC                               i2l5669 25B8  
                             i2l5589 282A                               i2l6813 1DB6  
                             i2l6805 1D88                               i2l6741 1C3A  
                             i2l6725 1BD8                               i2l6733 1C00  
                             i2l6717 1BB2                               i2l6709 1B78  
                             i2l6661 1A68                               i2l6653 1A44  
                             i2l6645 1A16                               i2l4879 26FA  
                             i2l5599 2810                               i2l6815 1DC6  
                             i2l6807 1D96                               i2l6751 1C6E  
                             i2l6743 1C3E                               i2l6735 1C0E  
                             i2l6727 1BE6                               i2l6719 1BB6  
                             i2l6671 1AA6                               i2l6663 1A76  
                             i2l6655 1A48                               i2l6647 1A24  
                             i2l6809 1DA4                               i2l6761 1CA4  
                             i2l6753 1C7E                               i2l6737 1C1C  
                             i2l6745 1C44                               i2l6729 1BF6  
                             i2l6681 1AE6                               i2l6665 1A84  
                             i2l6673 1AAC                               i2l6657 1A56  
                             i2l6649 1A28                               i2l6771 1CD6  
                             i2l6763 1CA8                               i2l6755 1C82  
                             i2l6747 1C52                               i2l6739 1C2A  
                             i2l6691 1B1A                               i2l6683 1AEA  
                             i2l6675 1ABA                               i2l6667 1A92  
                             i2l6659 1A64                               i2l6781 1D08  
                             i2l6773 1CE4                               i2l6765 1CB6  
                             i2l6749 1C60                               i2l6757 1C88  
                             i2l6693 1B2A                               i2l6677 1AC8  
                             i2l6685 1AF0                               i2l6669 1AA2  
                             i2l6791 1D44                               i2l6783 1D16  
                             i2l6775 1CE8                               i2l6767 1CC4  
                             i2l6759 1C96                               i2l6695 1B2E  
                             i2l6687 1AFE                               i2l6679 1AD6  
                             i2l6793 1D48                               i2l6785 1D24  
                             i2l6777 1CF6                               i2l6769 1CC8  
                             i2l6689 1B0C                               i2l6697 1B34  
                             i2l7763 2654                               i2l6795 1D56  
                             i2l6787 1D28                               i2l6779 1D04  
                             i2l6699 1B42                               i2l6797 1D64  
                             i2l6789 1D36                         RB7_ISR@flage 0001  
                             i2l6799 1D68                               _SPBRGH 0FB0  
                   __end_of___xxtofl 2332                  _timer2_callback_ptr 00E1  
                          ??___fladd 003E           ?_eusart_frameerror_calling 0001  
                          ??___fldiv 0025                            ??___fltol 0013  
                             _eusart 00AE                               clear_0 26B8  
                             clear_1 26C4                               isa$std 0001  
                  ?_eusart_ASYN_Read 0001                            ?_CCP1_ISR 0001  
                       __pdataCOMRAM 006D                            ?_CCP2_ISR 0001  
                   eusart_rx_int@ptr 000F                         __mediumconst 0000  
                             tblptrh 0FF7                               tblptrl 0FF6  
                             tblptru 0FF8                   ??_eusart_ASYN_Read 0001  
        _RB5_HIGH_interrupt_Handeler 00EF                     eusart_tx_int@ptr 000F  
                       ___xxtofl@arg 0019                         ___xxtofl@exp 0018  
                       ___xxtofl@val 000F                           __accesstop 0080  
            __end_of__initialization 26CA           _eusart_master_callback_ptr 00DB  
                          ?_INT0_ISR 0001                            ?_INT1_ISR 0001  
                          ?_INT2_ISR 0001                        ___rparam_used 0001  
                         ___fltol@f1 000F                       __pcstackCOMRAM 0001  
                       __pidataBANK0 276E                      ??_EUSART_RX_ISR 0009  
                    ??_EUSART_TX_ISR 0001           ??_eusart_frmeerror_Restart 0001  
                         ??_CCP1_ISR 0001                           ??_CCP2_ISR 0001  
                         __pbssBANK0 00BE           _RB5_LOW_interrupt_Handeler 00F1  
                         ??_INT0_ISR 0001                           ??_INT1_ISR 0001  
                         ??_INT2_ISR 0001          ccp1_compare_set_value@F3132 005A  
                    led_toggel@F3069 0069                  _timer3_callback_ptr 00DF  
                       ??_TIMER0_ISR 0001                         ??_TIMER1_ISR 0001  
                       ??_TIMER2_ISR 0001                         ??_TIMER3_ISR 0001  
                            _ADC_ISR 28E2                              _RB4_ISR 2828  
            _Int1_interrupt_Handeler 0054                              _RB5_ISR 280E  
                            _RB6_ISR 27F4                              _RB7_ISR 27DA  
                          ?___xxtofl 000F               _InterruptManagmentHigh 0008  
                    _eusart_ASYN_int 2728       fp__eusart_overrunerror_calling 0000  
                      _eusart_rx_int 2438                        _eusart_tx_int 24F0  
                 __end_of_TIMER0_ISR 28A4                           _frameerror 0062  
                 __end_of_TIMER1_ISR 2898                   __end_of_TIMER2_ISR 28AC  
                 __end_of_TIMER3_ISR 288C                              __Hparam 0000  
                            __Lparam 0000                              ___fladd 152E  
                            ___fldiv 1DE4                              ___fltol 2332  
                       __psmallconst 1000                              __pcinit 2672  
             _eusart_tx_callback_ptr 0048                              __ramtop 1000  
                            _flage_4 0070                              _flage_5 006F  
                            _flage_6 006E                              _flage_7 006D  
                            __ptext0 285A                              __ptext1 2728  
                      relay_on@F3058 0067                              __ptext2 24F0  
                            __ptext3 2438                              __ptext4 101C  
                            __ptext5 217E                              __ptext6 2332  
                            __ptext7 1DE4                              __ptext8 152E  
                          _T0CONbits 0FD5                            _T1CONbits 0FCD  
                          _T2CONbits 0FCA                           ??___xxtofl 0013  
                          _T3CONbits 0FB1            _eusart_slave_callback_ptr 00DD  
            convert_int_to_str@F3236 00BE                       __pintcode_body 19EE  
                     ?_eusart_rx_int 000F                 end_of_initialization 26CA  
                     ?_eusart_tx_int 000F                   eusart_ASYN_int@ptr 00FD  
                  _eusart_ASYN_Write 2842                              int_func 19EE  
                 ?_eusart_ASYN_Write 0001                            _RCSTAbits 0FAB  
                ??_eusart_ASYN_Write 0001                              postdec1 0FE5  
                            postdec2 0FDD                              postinc0 0FEE  
                            postinc2 0FDE          ??_eusart_frameerror_calling 0001  
            __end_of_eusart_ASYN_int 276E     __end_of_eusart_frmeerror_Restart 28DA  
               fp__eusart_rx_calling 0000                            _PORTBbits 0F81  
                        ___fladd@grs 0045                        ___xxtofl@sign 0017  
                          _TRISCbits 0F94            convert_short_to_str@F3230 00C9  
               fp__eusart_tx_calling 0000                          ___fldiv@grs 0030  
                        ___fldiv@rem 0029                           _rx_counter 00CF  
          __end_of_eusart_ASYN_Write 285A                          _CCP1CONbits 0FBD  
                         _tx_counter 00D3                          _CCP2CONbits 0FBA  
                          _TXSTAbits 0FAC                    relay_toggel@F3068 0065  
                       _KEYPAD_SHAPE 0080                          _BAUDCONbits 0FB8  
                      __pidataCOMRAM 28C2                       _timer0_preload 0052  
                     _timer1_preload 0050                       _timer2_preload 0064  
        _eusart_overerr_callback_ptr 004A                  start_initialization 2672  
                     _timer3_preload 004E                      ??_eusart_rx_int 0011  
                    ??_eusart_tx_int 0011            _eusart_frameerror_calling 28B4  
        _RB6_HIGH_interrupt_Handeler 00EB                            _Port_Regs 00A4  
                        __pdataBANK0 0080         __end_of_buadrate_calculation 152E  
                           ?_ADC_ISR 0001                __end_of_EUSART_RX_ISR 25FC  
                   ?_eusart_ASYN_int 00FD                __end_of_EUSART_TX_ISR 27DA  
            ?_InterruptManagmentHigh 0001                            _Tris_Regs 0090  
                          ___fladd@a 003A                            ___fladd@b 0036  
                          ___fldiv@a 0021                            ___fldiv@b 001D  
                           ?_RB4_ISR 0001                             ?_RB5_ISR 0001  
                           ?_RB6_ISR 0001                             ?_RB7_ISR 0001  
                        __pbssCOMRAM 0046                        __pcstackBANK0 00F9  
                      __pcstackBANK1 0100            _buadrate_calculation$4511 0104  
                  _eusart_RX_Restart 28BC              _eusart_ASYN_WriteString 26D4  
         _RB4_LOW_interrupt_Handeler 00F5                   ?_eusart_RX_Restart 0001  
          ?_eusart_frmeerror_Restart 0001           _RB7_LOW_interrupt_Handeler 00E9  
       ?_eusart_overrunerror_calling 0001                  ??_eusart_RX_Restart 0001  
                          __pintcode 0008                             ?___fladd 0036  
                           ?___fldiv 001D                             ?___fltol 000F  
     __end_of_InterruptManagmentHigh 1DE4                          __smallconst 1000  
            _Int0_interrupt_Handeler 0056                             _CCP1_ISR 28DE  
                           _CCP2_ISR 28DA            __end_of_eusart_RX_Restart 28C2  
                           _INT0_ISR 28CE                             _INT1_ISR 28CA  
                           _INT2_ISR 28C6                     _eusart_ASYN_Read 28D2  
                           _PIE1bits 0F9D                             _PIE2bits 0FA0  
                           i2u600_40 1A24                             i2u600_41 1A20  
                           i2u601_40 1A36                             i2u601_41 1A32  
                           _PIR1bits 0F9E                             i2u370_40 2726  
                           i2u610_40 1AC8                             i2u602_40 1A44  
                           i2u370_41 2722                             i2u610_41 1AC4  
                           i2u602_41 1A40                             i2u611_40 1AD6  
                           i2u603_40 1A56                             i2u611_41 1AD2  
                           i2u603_41 1A52                             _PIR2bits 0FA1  
                           i2u620_40 1B6E                             i2u612_40 1AE6  
                           i2u604_40 1A64                             i2u620_41 1B6A  
                           i2u612_41 1AE2                             i2u604_41 1A60  
                           i2u621_40 1B86                             i2u613_40 1AFE  
                           i2u605_40 1A76                             i2u621_41 1B82  
                           i2u613_41 1AFA                             i2u605_41 1A72  
                           i2u630_40 1C1C                             i2u622_40 1B94  
                           i2u614_40 1B0C                             i2u606_40 1A84  
                           i2u630_41 1C18                             i2u622_41 1B90  
                           i2u614_41 1B08                             i2u606_41 1A80  
                           i2u631_40 1C2A                             i2u623_40 1BA2  
                           i2u615_40 1B1A                             i2u607_40 1A92  
                           i2u631_41 1C26                             i2u623_41 1B9E  
                           i2u615_41 1B16                             i2u607_41 1A8E  
                           i2u640_40 1CC4                             i2u632_40 1C3A  
                           i2u624_40 1BB2                             i2u616_40 1B2A  
                           i2u608_40 1AA2                             i2u640_41 1CC0  
                           i2u632_41 1C36                             i2u624_41 1BAE  
                           i2u616_41 1B26                             i2u608_41 1A9E  
                           i2u369_40 2852                             i2u641_40 1CD6  
                           i2u633_40 1C52                             i2u625_40 1BCA  
                           i2u617_40 1B42                             i2u609_40 1ABA  
                           i2u369_41 284E                             i2u641_41 1CD2  
                           i2u633_41 1C4E                             i2u625_41 1BC6  
                           i2u617_41 1B3E                             i2u609_41 1AB6  
                           i2u490_40 258E                             i2u650_40 1D64  
                           i2u642_40 1CE4                             i2u634_40 1C60  
                           i2u626_40 1BD8                             i2u618_40 1B50  
                           i2u490_41 258A                             i2u650_41 1D60  
                           i2u642_41 1CE0                             i2u634_41 1C5C  
                           i2u626_41 1BD4                             i2u618_41 1B4C  
                           i2u651_40 1D76                             i2u643_40 1CF6  
                           i2u635_40 1C6E                             i2u627_40 1BE6  
                           i2u619_40 1B5E                             i2u651_41 1D72  
                           i2u643_41 1CF2                             i2u635_41 1C6A  
                           i2u627_41 1BE2                             i2u619_41 1B5A  
                           i2u492_40 25B8                             i2u491_48 2594  
                           i2u484_40 283C                             i2u652_40 1D84  
                           i2u644_40 1D04                             i2u636_40 1C7E  
                           i2u628_40 1BF6                             i2u492_41 25B4  
                           i2u491_49 25A6                             i2u484_41 2838  
                           i2u652_41 1D80                             i2u644_41 1D00  
                           i2u636_41 1C7A                             i2u628_41 1BF2  
                           i2u485_40 2822                             i2u653_40 1D96  
                           i2u645_40 1D16                             i2u637_40 1C96  
                           i2u629_40 1C0E                             i2u485_41 281E  
                           i2u653_41 1D92                             i2u645_41 1D12  
                           i2u637_41 1C92                             i2u629_41 1C0A  
                           i2u494_40 25E2                             i2u493_48 25BE  
                           i2u486_40 2808                             i2u654_40 1DA4  
                           i2u646_40 1D24                             i2u638_40 1CA4  
                           i2u494_41 25DE                             i2u493_49 25D0  
                           i2u486_41 2804                             i2u654_41 1DA0  
                           i2u646_41 1D20                             i2u638_41 1CA0  
                           i2u487_40 27EE                             i2u655_40 1DB6  
                           i2u647_40 1D36                             i2u639_40 1CB6  
                           i2u487_41 27EA                             i2u655_41 1DB2  
                           i2u647_41 1D32                             i2u639_41 1CB2  
                           i2u495_48 25E8                             i2u488_40 27C0  
                           i2u656_40 1DC6                             i2u648_40 1D44  
                           i2u495_49 25FA                             i2u488_41 27BC  
                           i2u656_41 1DC2                             i2u648_41 1D40  
                           i2u649_40 1D56                             i2u649_41 1D52  
                           i2u489_48 27C6                             i2u489_49 27D8  
      ??_eusart_overrunerror_calling 0001                             i2u599_40 1A16  
                           i2u599_41 1A12                           _ADCON0bits 0FC2  
                         _ADCON1bits 0FC1                           _ADCON2bits 0FC0  
          ??_eusart_ASYN_WriteString 0004                          _INTCON2bits 0FF1  
                        _INTCON3bits 0FF0                            copy_data0 2686  
                          copy_data1 26A6                             _Lat_Regs 009A  
               _buadrate_calculation 101C                           _EECON1bits 0FA6  
                           __Hrparam 0000                             __Lrparam 0000  
                           ___xxtofl 217E                             __ptext10 2880  
                           __ptext11 28A4                             __ptext20 28CE  
                           __ptext12 288C                             __ptext21 27AC  
                           __ptext13 2898                             __ptext30 28B4  
                           __ptext22 2870                             __ptext14 27DA  
                           __ptext31 28D6                             __ptext23 257C  
                           __ptext15 27F4                             __ptext32 28DA  
                           __ptext24 25FC                             __ptext16 280E  
                           __ptext33 28DE                             __ptext25 26D4  
                           __ptext17 2828                             __ptext34 28E2  
                           __ptext26 2842                             __ptext18 28C6  
                           __ptext35 0000                             __ptext27 28D2  
                           __ptext19 28CA                             __ptext28 28AC  
                           __ptext29 28BC                _ADC_Interrupt_handler 005E  
              ?_buadrate_calculation 00F9         eusart_ASYN_WriteString@value 0002  
                     relay_off@F3063 0066      __end_of_eusart_ASYN_WriteString 2728  
  __end_of_eusart_frameerror_calling 28BC                       relay_int@F3053 0068  
                           isa$xinst 0000                             int$flags 0071  
             _eusart_rx_callback_ptr 0046                           _INTCONbits 0FF2  
                  _ccp1_callback_ptr 005C          _RB4_HIGH_interrupt_Handeler 00F3  
              __end_of_eusart_rx_int 24F0                __end_of_eusart_tx_int 257C  
                           intlevel2 0000               eusart_ASYN_Write@value 0001  
        _RB7_HIGH_interrupt_Handeler 00E7                  _timer0_callback_ptr 00E5  
                         _TIMER0_ISR 2898                           _TIMER1_ISR 288C  
                         _TIMER2_ISR 28A4                           _TIMER3_ISR 2880  
           __end_of_eusart_ASYN_Read 28D6             convert_byte_to_str@F3224 00D7  
                      ___fladd@signs 0042               ??_buadrate_calculation 00FB  
       fp__eusart_frameerror_calling 0000                         ___fladd@aexp 0043  
                       ___fladd@bexp 0044       eusart_ASYN_WriteString@counter 0006  
         _RB6_LOW_interrupt_Handeler 00ED  
