

Microchip MPLAB XC8 Assembler V2.41 build 20230208172133 
                                                                                               Tue Jul 04 17:53:13 2023

Microchip MPLAB XC8 C Compiler v2.41 (Free license) build 20230208172133 Og1 
     1                           	processor	18F4620
     2                           	fnconf	rparam,??,?,0
     3                           	pagewidth 120
     4                           	opt	flic
     5                           	psect	idataCOMRAM,global,class=CODE,delta=1,noexec
     6                           	psect	idataBANK0,global,class=CODE,delta=1,noexec
     7                           	psect	smallconst,global,reloc=2,class=SMALLCONST,delta=1,noexec
     8                           	psect	cinit,global,reloc=2,class=CODE,delta=1
     9                           	psect	bssCOMRAM,global,class=COMRAM,space=1,delta=1,lowdata,noexec
    10                           	psect	dataCOMRAM,global,class=COMRAM,space=1,delta=1,lowdata,noexec
    11                           	psect	bssBANK0,global,class=BANK0,space=1,delta=1,lowdata,noexec
    12                           	psect	dataBANK0,global,class=BANK0,space=1,delta=1,lowdata,noexec
    13                           	psect	bssBANK1,global,class=BANK1,space=1,delta=1,lowdata,noexec
    14                           	psect	cstackBANK1,global,class=BANK1,space=1,delta=1,lowdata,noexec
    15                           	psect	cstackBANK0,global,class=BANK0,space=1,delta=1,lowdata,noexec
    16                           	psect	cstackCOMRAM,global,class=COMRAM,space=1,delta=1,lowdata,noexec
    17                           	psect	text0,global,reloc=2,class=CODE,delta=1
    18                           	psect	text1,global,reloc=2,class=CODE,delta=1
    19                           	psect	text2,global,reloc=2,class=CODE,delta=1,group=3
    20                           	psect	text3,global,reloc=2,class=CODE,delta=1,group=1
    21                           	psect	text4,global,reloc=2,class=CODE,delta=1,group=1
    22                           	psect	text5,global,reloc=2,class=CODE,delta=1,group=1
    23                           	psect	text6,global,reloc=2,class=CODE,delta=1,group=1
    24                           	psect	text7,global,reloc=2,class=CODE,delta=1,group=3
    25                           	psect	text8,global,reloc=2,class=CODE,delta=1,group=3
    26                           	psect	text9,global,reloc=2,class=CODE,delta=1,group=3
    27                           	psect	text10,global,reloc=2,class=CODE,delta=1,group=2
    28                           	psect	text11,global,reloc=2,class=CODE,delta=1,group=2
    29                           	psect	text12,global,reloc=2,class=CODE,delta=1,group=3
    30                           	psect	text13,global,reloc=2,class=CODE,delta=1
    31                           	psect	text14,global,reloc=2,class=CODE,delta=1
    32                           	psect	text15,global,reloc=2,class=CODE,delta=1
    33                           	psect	text16,global,reloc=2,class=CODE,delta=1
    34                           	psect	text17,global,reloc=2,class=CODE,delta=1
    35                           	psect	text18,global,reloc=2,class=CODE,delta=1
    36                           	psect	text19,global,reloc=2,class=CODE,delta=1
    37                           	psect	text20,global,reloc=2,class=CODE,delta=1
    38                           	psect	text21,global,reloc=2,class=CODE,delta=1
    39                           	psect	text22,global,reloc=2,class=CODE,delta=1
    40                           	psect	text23,global,reloc=2,class=CODE,delta=1
    41                           	psect	text24,global,reloc=2,class=CODE,delta=1
    42                           	psect	text25,global,reloc=2,class=CODE,delta=1
    43                           	psect	text26,global,reloc=2,class=CODE,delta=1
    44                           	psect	text27,global,reloc=2,class=CODE,delta=1,inline
    45                           	psect	text28,global,reloc=2,class=CODE,delta=1,inline
    46                           	psect	text29,global,reloc=2,class=CODE,delta=1,inline
    47                           	psect	text30,global,reloc=2,class=CODE,delta=1,group=2
    48                           	psect	text31,global,reloc=2,class=CODE,delta=1,group=2
    49                           	psect	text32,global,reloc=2,class=CODE,delta=1,group=2
    50                           	psect	intcode,global,reloc=2,class=CODE,delta=1
    51                           	psect	intcode_body,global,reloc=2,class=CODE,delta=1
    52                           	psect	text34,global,reloc=2,class=CODE,delta=1
    53                           	psect	text35,global,reloc=2,class=CODE,delta=1
    54                           	psect	text36,global,reloc=2,class=CODE,delta=1
    55                           	psect	text37,global,reloc=2,class=CODE,delta=1
    56                           	psect	text38,global,reloc=2,class=CODE,delta=1
    57                           	psect	text39,global,reloc=2,class=CODE,delta=1
    58                           	psect	text40,global,reloc=2,class=CODE,delta=1
    59                           	psect	text41,global,reloc=2,class=CODE,delta=1
    60                           	psect	text42,global,reloc=2,class=CODE,delta=1
    61                           	psect	text43,global,reloc=2,class=CODE,delta=1
    62                           	psect	intsave_regs,global,class=BIGRAM,space=1,delta=1,noexec
    63                           	psect	text44,global,reloc=2,class=CODE,delta=1
    64                           	psect	rparam,global,class=COMRAM,space=1,delta=1,noexec
    65                           	psect	temp,global,ovrld,common,class=COMRAM,space=1,delta=1
    66                           	psect	idloc,global,abs,ovrld,class=IDLOC,space=5,delta=1,noexec
    67                           	psect	config,global,abs,ovrld,class=CONFIG,space=4,delta=1,noexec
    68   000000                     
    69                           ; Version 2.40
    70                           ; Generated 17/11/2021 GMT
    71                           ; 
    72                           ; Copyright © 2021, Microchip Technology Inc. and its subsidiaries ("Microchip")
    73                           ; All rights reserved.
    74                           ; 
    75                           ; This software is developed by Microchip Technology Inc. and its subsidiaries ("Microch
      +                          ip").
    76                           ; 
    77                           ; Redistribution and use in source and binary forms, with or without modification, are
    78                           ; permitted provided that the following conditions are met:
    79                           ; 
    80                           ;     1. Redistributions of source code must retain the above copyright notice, this lis
      +                          t of
    81                           ;        conditions and the following disclaimer.
    82                           ; 
    83                           ;     2. Redistributions in binary form must reproduce the above copyright notice, this 
      +                          list
    84                           ;        of conditions and the following disclaimer in the documentation and/or other
    85                           ;        materials provided with the distribution. Publication is not required when
    86                           ;        this file is used in an embedded application.
    87                           ; 
    88                           ;     3. Microchip's name may not be used to endorse or promote products derived from th
      +                          is
    89                           ;        software without specific prior written permission.
    90                           ; 
    91                           ; THIS SOFTWARE IS PROVIDED BY MICROCHIP "AS IS" AND ANY EXPRESS OR IMPLIED WARRANTIES,
    92                           ; INCLUDING, BUT NOT LIMITED TO, THE IMPLIED WARRANTIES OF MERCHANTABILITY AND FITNESS F
      +                          OR
    93                           ; PURPOSE ARE DISCLAIMED.  IN NO EVENT SHALL MICROCHIP BE LIABLE FOR ANY DIRECT, INDIREC
      +                          T,
    94                           ; INCIDENTAL, SPECIAL, EXEMPLARY, OR CONSEQUENTIAL DAMAGES (INCLUDING BUT NOT LIMITED TO
    95                           ; PROCUREMENT OF SUBSTITUTE GOODS OR SERVICES; LOSS OF USE, DATA OR PROFITS; OR BUSINESS
    96                           ; INTERRUPTION) HOWSOEVER CAUSED AND ON ANY THEORY OF LIABILITY, WHETHER IN CONTRACT, ST
      +                          RICT
    97                           ; LIABILITY, OR TORT (INCLUDING NEGLIGENCE OR OTHERWISE) ARISING IN ANY WAY OUT OF THE U
      +                          SE OF
    98                           ; THIS SOFTWARE, EVEN IF ADVISED OF THE POSSIBILITY OF SUCH DAMAGE.
    99                           ; 
   100                           ; 
   101                           ; Code-generator required, PIC18F4620 Definitions
   102                           ; 
   103                           ; SFR Addresses
   104   000000                     
   105                           	psect	idataCOMRAM
   106   002E9E                     __pidataCOMRAM:
   107                           	callstack 0
   108                           
   109                           ;initializer for _flage_7
   110   002E9E  01                 	db	1
   111                           
   112                           ;initializer for _flage_6
   113   002E9F  01                 	db	1
   114                           
   115                           ;initializer for _flage_5
   116   002EA0  01                 	db	1
   117                           
   118                           ;initializer for _flage_4
   119   002EA1  01                 	db	1
   120                           
   121                           	psect	idataBANK0
   122   002D5A                     __pidataBANK0:
   123                           	callstack 0
   124                           
   125                           ;initializer for _KEYPAD_SHAPE
   126   002D5A  37                 	db	55
   127   002D5B  38                 	db	56
   128   002D5C  39                 	db	57
   129   002D5D  2F                 	db	47
   130   002D5E  34                 	db	52
   131   002D5F  35                 	db	53
   132   002D60  36                 	db	54
   133   002D61  2A                 	db	42
   134   002D62  31                 	db	49
   135   002D63  32                 	db	50
   136   002D64  33                 	db	51
   137   002D65  2D                 	db	45
   138   002D66  23                 	db	35
   139   002D67  30                 	db	48
   140   002D68  3D                 	db	61
   141   002D69  2B                 	db	43
   142                           
   143                           ;initializer for _Tris_Regs
   144   002D6A  92                 	db	146
   145   002D6B  0F                 	db	15
   146   002D6C  93                 	db	147
   147   002D6D  0F                 	db	15
   148   002D6E  94                 	db	148
   149   002D6F  0F                 	db	15
   150   002D70  95                 	db	149
   151   002D71  0F                 	db	15
   152   002D72  96                 	db	150
   153   002D73  0F                 	db	15
   154                           
   155                           ;initializer for _Lat_Regs
   156   002D74  89                 	db	137
   157   002D75  0F                 	db	15
   158   002D76  8A                 	db	138
   159   002D77  0F                 	db	15
   160   002D78  8B                 	db	139
   161   002D79  0F                 	db	15
   162   002D7A  8C                 	db	140
   163   002D7B  0F                 	db	15
   164   002D7C  8D                 	db	141
   165   002D7D  0F                 	db	15
   166                           
   167                           ;initializer for _Port_Regs
   168   002D7E  80                 	db	128
   169   002D7F  0F                 	db	15
   170   002D80  81                 	db	129
   171   002D81  0F                 	db	15
   172   002D82  82                 	db	130
   173   002D83  0F                 	db	15
   174   002D84  83                 	db	131
   175   002D85  0F                 	db	15
   176   002D86  84                 	db	132
   177   002D87  0F                 	db	15
   178                           
   179                           ;initializer for _adc_1
   180   002D88  A4                 	db	low _ADC_interrupt
   181   002D89  2B                 	db	high _ADC_interrupt
   182   002D8A  01                 	db	1
   183   002D8B  05                 	db	5
   184   002D8C  05                 	db	5
   185   002D8D  00                 	db	0
   186   002D8E  01                 	db	1
   187                           
   188                           ;initializer for _lcd
   189   002D8F  40                 	db	64
   190   002D90  44                 	db	68
   191   002D91  48                 	db	72
   192   002D92  4C                 	db	76
   193   002D93  50                 	db	80
   194   002D94  54                 	db	84
   195   000000                     _INTCON2bits	set	4081
   196   000000                     _EECON2	set	4007
   197   000000                     _ADCON1bits	set	4033
   198   000000                     _ADRESL	set	4035
   199   000000                     _ADRESH	set	4036
   200   000000                     _INTCONbits	set	4082
   201   000000                     _TRISD	set	3989
   202   000000                     _TRISC	set	3988
   203   000000                     _TRISB	set	3987
   204   000000                     _TRISE	set	3990
   205   000000                     _PORTBbits	set	3969
   206   000000                     _PIE1bits	set	3997
   207   000000                     _ADCON2bits	set	4032
   208   000000                     _ADCON0bits	set	4034
   209   000000                     _LATA	set	3977
   210   000000                     _PORTE	set	3972
   211   000000                     _PORTD	set	3971
   212   000000                     _PORTC	set	3970
   213   000000                     _PORTB	set	3969
   214   000000                     _PORTA	set	3968
   215   000000                     _TRISA	set	3986
   216   000000                     _EECON1bits	set	4006
   217   000000                     _EEDATA	set	4008
   218   000000                     _EEADR	set	4009
   219   000000                     _EEADRH	set	4010
   220   000000                     _PIR1bits	set	3998
   221   000000                     _INTCON3bits	set	4080
   222   000000                     _LATE	set	3981
   223   000000                     _LATD	set	3980
   224   000000                     _LATC	set	3979
   225   000000                     _LATB	set	3978
   226                           
   227                           	psect	smallconst
   228   001000                     __psmallconst:
   229                           	callstack 0
   230   001000  00                 	db	0
   231   001001                     STR_4:
   232   001001  44                 	db	68	;'D'
   233   001002  65                 	db	101	;'e'
   234   001003  67                 	db	103	;'g'
   235   001004  5F                 	db	95	;'_'
   236   001005  31                 	db	49	;'1'
   237   001006  3A                 	db	58	;':'
   238   001007  20                 	db	32
   239   001008  00                 	db	0
   240   001009                     STR_5:
   241   001009  44                 	db	68	;'D'
   242   00100A  65                 	db	101	;'e'
   243   00100B  67                 	db	103	;'g'
   244   00100C  5F                 	db	95	;'_'
   245   00100D  32                 	db	50	;'2'
   246   00100E  3A                 	db	58	;':'
   247   00100F  20                 	db	32
   248   001010  00                 	db	0
   249   001011                     STR_1:
   250   001011  25                 	db	37
   251   001012  75                 	db	117	;'u'
   252   001013  00                 	db	0
   253   001014  00                 	db	0	; dummy byte at the end
   254   000000                     
   255                           ; #config settings
   256                           
   257                           	psect	cinit
   258   0028EE                     __pcinit:
   259                           	callstack 0
   260   0028EE                     start_initialization:
   261                           	callstack 0
   262   0028EE                     __initialization:
   263                           	callstack 0
   264                           
   265                           ; Initialize objects allocated to BANK0 (59 bytes)
   266                           ; load TBLPTR registers with __pidataBANK0
   267   0028EE  0E5A               	movlw	low __pidataBANK0
   268   0028F0  6EF6               	movwf	tblptrl,c
   269   0028F2  0E2D               	movlw	high __pidataBANK0
   270   0028F4  6EF7               	movwf	tblptrh,c
   271   0028F6  0E00               	movlw	low (__pidataBANK0 shr (0+16))
   272   0028F8  6EF8               	movwf	tblptru,c
   273   0028FA  EE00  F0BD         	lfsr	0,__pdataBANK0
   274   0028FE  EE10 F03B          	lfsr	1,59
   275   002902                     copy_data0:
   276   002902  0009               	tblrd		*+
   277   002904  CFF5 FFEE          	movff	tablat,postinc0
   278   002908  50E5               	movf	postdec1,w,c
   279   00290A  50E1               	movf	fsr1l,w,c
   280   00290C  E1FA               	bnz	copy_data0
   281                           
   282                           ; Initialize objects allocated to COMRAM (4 bytes)
   283                           ; load TBLPTR registers with __pidataCOMRAM
   284   00290E  0E9E               	movlw	low __pidataCOMRAM
   285   002910  6EF6               	movwf	tblptrl,c
   286   002912  0E2E               	movlw	high __pidataCOMRAM
   287   002914  6EF7               	movwf	tblptrh,c
   288   002916  0E00               	movlw	low (__pidataCOMRAM shr (0+16))
   289   002918  6EF8               	movwf	tblptru,c
   290   00291A  EE00  F06F         	lfsr	0,__pdataCOMRAM
   291   00291E  EE10 F004          	lfsr	1,4
   292   002922                     copy_data1:
   293   002922  0009               	tblrd		*+
   294   002924  CFF5 FFEE          	movff	tablat,postinc0
   295   002928  50E5               	movf	postdec1,w,c
   296   00292A  50E1               	movf	fsr1l,w,c
   297   00292C  E1FA               	bnz	copy_data1
   298                           
   299                           ; Clear objects allocated to BANK1 (32 bytes)
   300   00292E  EE01  F000         	lfsr	0,__pbssBANK1
   301   002932  0E20               	movlw	32
   302   002934                     clear_0:
   303   002934  6AEE               	clrf	postinc0,c
   304   002936  06E8               	decf	wreg,f,c
   305   002938  E1FD               	bnz	clear_0
   306                           
   307                           ; Clear objects allocated to BANK0 (61 bytes)
   308   00293A  EE00  F080         	lfsr	0,__pbssBANK0
   309   00293E  0E3D               	movlw	61
   310   002940                     clear_1:
   311   002940  6AEE               	clrf	postinc0,c
   312   002942  06E8               	decf	wreg,f,c
   313   002944  E1FD               	bnz	clear_1
   314                           
   315                           ; Clear objects allocated to COMRAM (18 bytes)
   316   002946  EE00  F05D         	lfsr	0,__pbssCOMRAM
   317   00294A  0E12               	movlw	18
   318   00294C                     clear_2:
   319   00294C  6AEE               	clrf	postinc0,c
   320   00294E  06E8               	decf	wreg,f,c
   321   002950  E1FD               	bnz	clear_2
   322   002952                     end_of_initialization:
   323                           	callstack 0
   324   002952                     __end_of__initialization:
   325                           	callstack 0
   326   002952  9073               	bcf	int$flags,0,c	;clear compiler interrupt flag (level 1)
   327   002954  9273               	bcf	int$flags,1,c	;clear compiler interrupt flag (level 2)
   328   002956  0100               	movlb	0
   329   002958  EF83  F00B         	goto	_main	;jump to C main() function
   330                           
   331                           	psect	bssCOMRAM
   332   00005D                     __pbssCOMRAM:
   333                           	callstack 0
   334   00005D                     _Degree_1:
   335                           	callstack 0
   336   00005D                     	ds	2
   337   00005F                     _ADC_Interrupt_handler:
   338                           	callstack 0
   339   00005F                     	ds	2
   340   000061                     _flags:
   341                           	callstack 0
   342   000061                     	ds	1
   343   000062                     _ADC_Start:
   344                           	callstack 0
   345   000062                     	ds	1
   346   000063                     relay_toggel@F3068:
   347                           	callstack 0
   348   000063                     	ds	1
   349   000064                     relay_off@F3063:
   350                           	callstack 0
   351   000064                     	ds	1
   352   000065                     relay_on@F3058:
   353                           	callstack 0
   354   000065                     	ds	1
   355   000066                     relay_int@F3053:
   356                           	callstack 0
   357   000066                     	ds	1
   358   000067                     led_toggel@F3069:
   359                           	callstack 0
   360   000067                     	ds	1
   361   000068                     led_off@F3064:
   362                           	callstack 0
   363   000068                     	ds	1
   364   000069                     led_on@F3059:
   365                           	callstack 0
   366   000069                     	ds	1
   367   00006A                     led_int@F3054:
   368                           	callstack 0
   369   00006A                     	ds	1
   370   00006B                     _reading_2:
   371                           	callstack 0
   372   00006B                     	ds	2
   373   00006D                     _reading_1:
   374                           	callstack 0
   375   00006D                     	ds	2
   376                           
   377                           	psect	dataCOMRAM
   378   00006F                     __pdataCOMRAM:
   379                           	callstack 0
   380   00006F                     _flage_7:
   381                           	callstack 0
   382   00006F                     	ds	1
   383   000070                     _flage_6:
   384                           	callstack 0
   385   000070                     	ds	1
   386   000071                     _flage_5:
   387                           	callstack 0
   388   000071                     	ds	1
   389   000072                     _flage_4:
   390                           	callstack 0
   391   000072                     	ds	1
   392                           
   393                           	psect	bssBANK0
   394   000080                     __pbssBANK0:
   395                           	callstack 0
   396   000080                     	ds	11
   397   00008B                     	ds	6
   398   000091                     	ds	4
   399   000095                     _width:
   400                           	callstack 0
   401   000095                     	ds	2
   402   000097                     _prec:
   403                           	callstack 0
   404   000097                     	ds	2
   405   000099                     _Degree_2:
   406                           	callstack 0
   407   000099                     	ds	2
   408   00009B                     _RB7_HIGH_interrupt_Handeler:
   409                           	callstack 0
   410   00009B                     	ds	2
   411   00009D                     _RB7_LOW_interrupt_Handeler:
   412                           	callstack 0
   413   00009D                     	ds	2
   414   00009F                     _RB6_HIGH_interrupt_Handeler:
   415                           	callstack 0
   416   00009F                     	ds	2
   417   0000A1                     _RB6_LOW_interrupt_Handeler:
   418                           	callstack 0
   419   0000A1                     	ds	2
   420   0000A3                     _RB5_HIGH_interrupt_Handeler:
   421                           	callstack 0
   422   0000A3                     	ds	2
   423   0000A5                     _RB5_LOW_interrupt_Handeler:
   424                           	callstack 0
   425   0000A5                     	ds	2
   426   0000A7                     _RB4_HIGH_interrupt_Handeler:
   427                           	callstack 0
   428   0000A7                     	ds	2
   429   0000A9                     _RB4_LOW_interrupt_Handeler:
   430                           	callstack 0
   431   0000A9                     	ds	2
   432   0000AB                     _Int2_interrupt_Handeler:
   433                           	callstack 0
   434   0000AB                     	ds	2
   435   0000AD                     _Int1_interrupt_Handeler:
   436                           	callstack 0
   437   0000AD                     	ds	2
   438   0000AF                     _Int0_interrupt_Handeler:
   439                           	callstack 0
   440   0000AF                     	ds	2
   441   0000B1                     _conv2:
   442                           	callstack 0
   443   0000B1                     	ds	6
   444   0000B7                     _conv1:
   445                           	callstack 0
   446   0000B7                     	ds	6
   447                           
   448                           	psect	dataBANK0
   449   0000BD                     __pdataBANK0:
   450                           	callstack 0
   451   0000BD                     _KEYPAD_SHAPE:
   452                           	callstack 0
   453   0000BD                     	ds	16
   454   0000CD                     _Tris_Regs:
   455                           	callstack 0
   456   0000CD                     	ds	10
   457   0000D7                     _Lat_Regs:
   458                           	callstack 0
   459   0000D7                     	ds	10
   460   0000E1                     _Port_Regs:
   461                           	callstack 0
   462   0000E1                     	ds	10
   463   0000EB                     _adc_1:
   464                           	callstack 0
   465   0000EB                     	ds	7
   466   0000F2                     _lcd:
   467                           	callstack 0
   468   0000F2                     	ds	6
   469                           
   470                           	psect	bssBANK1
   471   000100                     __pbssBANK1:
   472                           	callstack 0
   473   000100                     _dbuf:
   474                           	callstack 0
   475   000100                     	ds	32
   476                           
   477                           	psect	cstackBANK1
   478   000120                     __pcstackBANK1:
   479                           	callstack 0
   480   000120                     convert_short_to_str@Temp_str:
   481                           	callstack 0
   482                           
   483                           ; 6 bytes @ 0x0
   484   000120                     	ds	6
   485   000126                     convert_short_to_str@counter:
   486                           	callstack 0
   487                           
   488                           ; 1 bytes @ 0x6
   489   000126                     	ds	1
   490                           
   491                           	psect	cstackBANK0
   492   0000F8                     __pcstackBANK0:
   493                           	callstack 0
   494   0000F8                     convert_short_to_str@number:
   495                           	callstack 0
   496                           
   497                           ; 2 bytes @ 0x0
   498   0000F8                     	ds	2
   499   0000FA                     convert_short_to_str@str:
   500                           	callstack 0
   501                           
   502                           ; 2 bytes @ 0x2
   503   0000FA                     	ds	2
   504                           
   505                           	psect	cstackCOMRAM
   506   000001                     __pcstackCOMRAM:
   507                           	callstack 0
   508   000001                     RB4_ISR@flage:
   509                           	callstack 0
   510   000001                     RB5_ISR@flage:
   511                           	callstack 0
   512   000001                     RB6_ISR@flage:
   513                           	callstack 0
   514   000001                     RB7_ISR@flage:
   515                           	callstack 0
   516   000001                     adc_reading_value@adc:
   517                           	callstack 0
   518                           
   519                           ; 2 bytes @ 0x0
   520   000001                     	ds	2
   521   000003                     adc_reading_value@value:
   522                           	callstack 0
   523                           
   524                           ; 2 bytes @ 0x2
   525   000003                     	ds	2
   526   000005                     ??_adc_reading_value:
   527                           
   528                           ; 1 bytes @ 0x4
   529   000005                     	ds	3
   530   000008                     ??_InterruptManagmentHigh:
   531                           
   532                           ; 1 bytes @ 0x7
   533   000008                     	ds	4
   534   00000C                     ??_adc_pin_cfg:
   535   00000C                     ?___lwdiv:
   536                           	callstack 0
   537   00000C                     ?___lwmod:
   538                           	callstack 0
   539   00000C                     ?___xxtofl:
   540                           	callstack 0
   541   00000C                     adc_start@adc:
   542                           	callstack 0
   543   00000C                     adc_Vref_cfg@adc:
   544                           	callstack 0
   545   00000C                     adc_reading_mode_cfg@adc:
   546                           	callstack 0
   547   00000C                     gpio_pin_direction_int@pin_cfg:
   548                           	callstack 0
   549   00000C                     gpio_pin_write_level@pin_cfg:
   550                           	callstack 0
   551   00000C                     ___lwdiv@dividend:
   552                           	callstack 0
   553   00000C                     ___lwmod@dividend:
   554                           	callstack 0
   555   00000C                     memset@dest:
   556                           	callstack 0
   557   00000C                     fputc@c:
   558                           	callstack 0
   559   00000C                     ___xxtofl@val:
   560                           	callstack 0
   561                           
   562                           ; 4 bytes @ 0xB
   563   00000C                     	ds	2
   564   00000E                     ??_gpio_pin_direction_int:
   565   00000E                     adc_pin_cfg@analog_channel_select:
   566                           	callstack 0
   567   00000E                     gpio_pin_write_level@level:
   568                           	callstack 0
   569   00000E                     ___lwdiv@divisor:
   570                           	callstack 0
   571   00000E                     ___lwmod@divisor:
   572                           	callstack 0
   573   00000E                     memset@c:
   574                           	callstack 0
   575   00000E                     fputc@fp:
   576                           	callstack 0
   577                           
   578                           ; 2 bytes @ 0xD
   579   00000E                     	ds	1
   580   00000F                     ??_gpio_pin_write_level:
   581   00000F                     adc_int@adc:
   582                           	callstack 0
   583   00000F                     adc_select_channel@adc:
   584                           	callstack 0
   585                           
   586                           ; 2 bytes @ 0xE
   587   00000F                     	ds	1
   588   000010                     ??_fputc:
   589   000010                     ??___xxtofl:
   590   000010                     ___lwdiv@counter:
   591                           	callstack 0
   592   000010                     ___lwmod@counter:
   593                           	callstack 0
   594   000010                     memset@n:
   595                           	callstack 0
   596                           
   597                           ; 2 bytes @ 0xF
   598   000010                     	ds	1
   599   000011                     ??_adc_int:
   600   000011                     adc_select_channel@analog_channel_select:
   601                           	callstack 0
   602   000011                     ___lwdiv@quotient:
   603                           	callstack 0
   604                           
   605                           ; 2 bytes @ 0x10
   606   000011                     	ds	1
   607   000012                     ??_memset:
   608   000012                     ??_adc_select_channel:
   609                           
   610                           ; 1 bytes @ 0x11
   611   000012                     	ds	1
   612   000013                     adc_start_conversion_interrupt@adc:
   613                           	callstack 0
   614                           
   615                           ; 2 bytes @ 0x12
   616   000013                     	ds	1
   617   000014                     ___xxtofl@sign:
   618                           	callstack 0
   619   000014                     memset@k:
   620                           	callstack 0
   621                           
   622                           ; 2 bytes @ 0x13
   623   000014                     	ds	1
   624   000015                     adc_start_conversion_interrupt@analog_channel_select:
   625                           	callstack 0
   626   000015                     ___xxtofl@exp:
   627                           	callstack 0
   628   000015                     lcd_send_4_bit@lcd:
   629                           	callstack 0
   630   000015                     lcd_send_4_bit_enable@lcd:
   631                           	callstack 0
   632   000015                     gpio_pin_int@pin_cfg:
   633                           	callstack 0
   634   000015                     fputs@s:
   635                           	callstack 0
   636                           
   637                           ; 2 bytes @ 0x14
   638   000015                     	ds	1
   639   000016                     memset@s:
   640                           	callstack 0
   641   000016                     ___xxtofl@arg:
   642                           	callstack 0
   643                           
   644                           ; 4 bytes @ 0x15
   645   000016                     	ds	1
   646   000017                     lcd_send_4_bit@_data_command:
   647                           	callstack 0
   648   000017                     fputs@fp:
   649                           	callstack 0
   650                           
   651                           ; 2 bytes @ 0x16
   652   000017                     	ds	1
   653   000018                     ??_lcd_send_4_bit:
   654                           
   655                           ; 1 bytes @ 0x17
   656   000018                     	ds	1
   657   000019                     fputs@c:
   658                           	callstack 0
   659                           
   660                           ; 1 bytes @ 0x18
   661   000019                     	ds	1
   662   00001A                     ?___flmul:
   663                           	callstack 0
   664   00001A                     fputs@i:
   665                           	callstack 0
   666   00001A                     ___flmul@b:
   667                           	callstack 0
   668                           
   669                           ; 4 bytes @ 0x19
   670   00001A                     	ds	2
   671   00001C                     lcd_send_4_bit@i:
   672                           	callstack 0
   673   00001C                     pad@fp:
   674                           	callstack 0
   675                           
   676                           ; 2 bytes @ 0x1B
   677   00001C                     	ds	1
   678   00001D                     chr_lcd_4_send_cmd@lcd:
   679                           	callstack 0
   680   00001D                     chr_lcd_4_send_char@lcd:
   681                           	callstack 0
   682                           
   683                           ; 2 bytes @ 0x1C
   684   00001D                     	ds	1
   685   00001E                     pad@buf:
   686                           	callstack 0
   687   00001E                     ___flmul@a:
   688                           	callstack 0
   689                           
   690                           ; 4 bytes @ 0x1D
   691   00001E                     	ds	1
   692   00001F                     chr_lcd_4_send_cmd@cmd:
   693                           	callstack 0
   694   00001F                     chr_lcd_4_send_char@data:
   695                           	callstack 0
   696                           
   697                           ; 1 bytes @ 0x1E
   698   00001F                     	ds	1
   699   000020                     chr_lcd_4_int@lcd:
   700                           	callstack 0
   701   000020                     lcd_4_bit_pos@lcd:
   702                           	callstack 0
   703   000020                     pad@p:
   704                           	callstack 0
   705                           
   706                           ; 2 bytes @ 0x1F
   707   000020                     	ds	2
   708   000022                     ??___flmul:
   709   000022                     ??_chr_lcd_4_int:
   710   000022                     ??_pad:
   711   000022                     lcd_4_bit_pos@row:
   712                           	callstack 0
   713                           
   714                           ; 1 bytes @ 0x21
   715   000022                     	ds	1
   716   000023                     lcd_4_bit_pos@colmn:
   717                           	callstack 0
   718   000023                     pad@i:
   719                           	callstack 0
   720                           
   721                           ; 2 bytes @ 0x22
   722   000023                     	ds	1
   723   000024                     ??_lcd_4_bit_pos:
   724   000024                     chr_lcd_4_int@i:
   725                           	callstack 0
   726                           
   727                           ; 1 bytes @ 0x23
   728   000024                     	ds	1
   729   000025                     pad@w:
   730                           	callstack 0
   731                           
   732                           ; 2 bytes @ 0x24
   733   000025                     	ds	1
   734   000026                     ___flmul@sign:
   735                           	callstack 0
   736   000026                     chr_lcd_4_send_string_pos@lcd:
   737                           	callstack 0
   738                           
   739                           ; 2 bytes @ 0x25
   740   000026                     	ds	1
   741   000027                     utoa@fp:
   742                           	callstack 0
   743   000027                     ___flmul@grs:
   744                           	callstack 0
   745                           
   746                           ; 4 bytes @ 0x26
   747   000027                     	ds	1
   748   000028                     chr_lcd_4_send_string_pos@row:
   749                           	callstack 0
   750                           
   751                           ; 1 bytes @ 0x27
   752   000028                     	ds	1
   753   000029                     chr_lcd_4_send_string_pos@col:
   754                           	callstack 0
   755   000029                     utoa@d:
   756                           	callstack 0
   757                           
   758                           ; 2 bytes @ 0x28
   759   000029                     	ds	1
   760   00002A                     chr_lcd_4_send_string_pos@data:
   761                           	callstack 0
   762                           
   763                           ; 2 bytes @ 0x29
   764   00002A                     	ds	1
   765   00002B                     ___flmul@aexp:
   766                           	callstack 0
   767   00002B                     utoa@w:
   768                           	callstack 0
   769                           
   770                           ; 2 bytes @ 0x2A
   771   00002B                     	ds	1
   772   00002C                     ??_chr_lcd_4_send_string_pos:
   773   00002C                     ___flmul@bexp:
   774                           	callstack 0
   775                           
   776                           ; 1 bytes @ 0x2B
   777   00002C                     	ds	1
   778   00002D                     utoa@p:
   779                           	callstack 0
   780   00002D                     ___flmul@prod:
   781                           	callstack 0
   782                           
   783                           ; 4 bytes @ 0x2C
   784   00002D                     	ds	1
   785   00002E                     chr_lcd_4_send_string_pos@i:
   786                           	callstack 0
   787                           
   788                           ; 1 bytes @ 0x2D
   789   00002E                     	ds	1
   790   00002F                     utoa@i:
   791                           	callstack 0
   792                           
   793                           ; 2 bytes @ 0x2E
   794   00002F                     	ds	2
   795   000031                     ___flmul@temp:
   796                           	callstack 0
   797   000031                     vfpfcnvrt@fp:
   798                           	callstack 0
   799                           
   800                           ; 2 bytes @ 0x30
   801   000031                     	ds	2
   802   000033                     ?___fltol:
   803                           	callstack 0
   804   000033                     vfpfcnvrt@fmt:
   805                           	callstack 0
   806   000033                     ___fltol@f1:
   807                           	callstack 0
   808                           
   809                           ; 4 bytes @ 0x32
   810   000033                     	ds	2
   811   000035                     vfpfcnvrt@ap:
   812                           	callstack 0
   813                           
   814                           ; 2 bytes @ 0x34
   815   000035                     	ds	2
   816   000037                     ??___fltol:
   817   000037                     ??_vfpfcnvrt:
   818                           
   819                           ; 1 bytes @ 0x36
   820   000037                     	ds	2
   821   000039                     vfpfcnvrt@convarg:
   822                           	callstack 0
   823                           
   824                           ; 4 bytes @ 0x38
   825   000039                     	ds	2
   826   00003B                     ___fltol@sign1:
   827                           	callstack 0
   828                           
   829                           ; 1 bytes @ 0x3A
   830   00003B                     	ds	1
   831   00003C                     ___fltol@exp1:
   832                           	callstack 0
   833                           
   834                           ; 1 bytes @ 0x3B
   835   00003C                     	ds	1
   836   00003D                     vfpfcnvrt@cp:
   837                           	callstack 0
   838                           
   839                           ; 2 bytes @ 0x3C
   840   00003D                     	ds	2
   841   00003F                     ?_vfprintf:
   842                           	callstack 0
   843   00003F                     vfprintf@fp:
   844                           	callstack 0
   845                           
   846                           ; 2 bytes @ 0x3E
   847   00003F                     	ds	2
   848   000041                     vfprintf@fmt:
   849                           	callstack 0
   850                           
   851                           ; 2 bytes @ 0x40
   852   000041                     	ds	2
   853   000043                     vfprintf@ap:
   854                           	callstack 0
   855                           
   856                           ; 2 bytes @ 0x42
   857   000043                     	ds	2
   858   000045                     vfprintf@cfmt:
   859                           	callstack 0
   860                           
   861                           ; 2 bytes @ 0x44
   862   000045                     	ds	2
   863   000047                     ?_sprintf:
   864                           	callstack 0
   865   000047                     sprintf@s:
   866                           	callstack 0
   867                           
   868                           ; 2 bytes @ 0x46
   869   000047                     	ds	2
   870   000049                     sprintf@fmt:
   871                           	callstack 0
   872                           
   873                           ; 2 bytes @ 0x48
   874   000049                     	ds	6
   875   00004F                     sprintf@ap:
   876                           	callstack 0
   877                           
   878                           ; 2 bytes @ 0x4E
   879   00004F                     	ds	2
   880   000051                     sprintf@f:
   881                           	callstack 0
   882                           
   883                           ; 12 bytes @ 0x50
   884   000051                     	ds	12
   885   00005D                     
   886                           ; 1 bytes @ 0x5C
   887 ;;
   888 ;;Main: autosize = 0, tempsize = 0, incstack = 0, save=0
   889 ;;
   890 ;; *************** function _main *****************
   891 ;; Defined at:
   892 ;;		line 84 in file "Application.c"
   893 ;; Parameters:    Size  Location     Type
   894 ;;		None
   895 ;; Auto vars:     Size  Location     Type
   896 ;;		None
   897 ;; Return value:  Size  Location     Type
   898 ;;                  2  822[None  ] int 
   899 ;; Registers used:
   900 ;;		wreg, fsr0l, fsr0h, fsr1l, fsr1h, fsr2l, fsr2h, status,2, status,0, tblptrl, tblptrh, tblptru, prodl, prodh, cstack
   901 ;; Tracked objects:
   902 ;;		On entry : 0/0
   903 ;;		On exit  : 0/0
   904 ;;		Unchanged: 0/0
   905 ;; Data sizes:     COMRAM   BANK0   BANK1   BANK2   BANK3   BANK4   BANK5   BANK6   BANK7   BANK8   BANK9  BANK10  BANK1
      +1  BANK12  BANK13  BANK14  BANK15
   906 ;;      Params:         0       0       0       0       0       0       0       0       0       0       0       0       
      +0       0       0       0       0
   907 ;;      Locals:         0       0       0       0       0       0       0       0       0       0       0       0       
      +0       0       0       0       0
   908 ;;      Temps:          0       0       0       0       0       0       0       0       0       0       0       0       
      +0       0       0       0       0
   909 ;;      Totals:         0       0       0       0       0       0       0       0       0       0       0       0       
      +0       0       0       0       0
   910 ;;Total ram usage:        0 bytes
   911 ;; Hardware stack levels required when called: 13
   912 ;; This function calls:
   913 ;;		___flmul
   914 ;;		___fltol
   915 ;;		___lwdiv
   916 ;;		___xxtofl
   917 ;;		_adc_int
   918 ;;		_adc_start_conversion_interrupt
   919 ;;		_chr_lcd_4_int
   920 ;;		_chr_lcd_4_send_cmd
   921 ;;		_chr_lcd_4_send_string_pos
   922 ;;		_convert_short_to_str
   923 ;; This function is called by:
   924 ;;		Startup code after reset
   925 ;; This function uses a non-reentrant model
   926 ;;
   927                           
   928                           	psect	text0
   929   001706                     __ptext0:
   930                           	callstack 0
   931   001706                     _main:
   932                           	callstack 18
   933   001706                     
   934                           ;Application.c: 85:     adc_int(&adc_1);
   935   001706  0EEB               	movlw	low _adc_1
   936   001708  6E0F               	movwf	adc_int@adc^0,c
   937   00170A  0E00               	movlw	high _adc_1
   938   00170C  6E10               	movwf	(adc_int@adc+1)^0,c
   939   00170E  EC03  F013         	call	_adc_int	;wreg free
   940   001712                     
   941                           ;Application.c: 86:     chr_lcd_4_int(&lcd);
   942   001712  0EF2               	movlw	low _lcd
   943   001714  6E20               	movwf	chr_lcd_4_int@lcd^0,c
   944   001716  0E00               	movlw	high _lcd
   945   001718  6E21               	movwf	(chr_lcd_4_int@lcd+1)^0,c
   946   00171A  ECE2  F00F         	call	_chr_lcd_4_int	;wreg free
   947   00171E                     
   948                           ;Application.c: 87:     chr_lcd_4_send_cmd(&lcd,(0x0C));
   949   00171E  0EF2               	movlw	low _lcd
   950   001720  6E1D               	movwf	chr_lcd_4_send_cmd@lcd^0,c
   951   001722  0E00               	movlw	high _lcd
   952   001724  6E1E               	movwf	(chr_lcd_4_send_cmd@lcd+1)^0,c
   953   001726  0E0C               	movlw	12
   954   001728  6E1F               	movwf	chr_lcd_4_send_cmd@cmd^0,c
   955   00172A  EC78  F015         	call	_chr_lcd_4_send_cmd	;wreg free
   956   00172E                     
   957                           ;Application.c: 91:     chr_lcd_4_send_cmd(&lcd,(0x01));
   958   00172E  0EF2               	movlw	low _lcd
   959   001730  6E1D               	movwf	chr_lcd_4_send_cmd@lcd^0,c
   960   001732  0E00               	movlw	high _lcd
   961   001734  6E1E               	movwf	(chr_lcd_4_send_cmd@lcd+1)^0,c
   962   001736  0E01               	movlw	1
   963   001738  6E1F               	movwf	chr_lcd_4_send_cmd@cmd^0,c
   964   00173A  EC78  F015         	call	_chr_lcd_4_send_cmd	;wreg free
   965   00173E                     
   966                           ;Application.c: 93:             chr_lcd_4_send_string_pos(&lcd, 1, 1, "Deg_1: ");
   967   00173E  0EF2               	movlw	low _lcd
   968   001740  6E26               	movwf	chr_lcd_4_send_string_pos@lcd^0,c
   969   001742  0E00               	movlw	high _lcd
   970   001744  6E27               	movwf	(chr_lcd_4_send_string_pos@lcd+1)^0,c
   971   001746  0E01               	movlw	1
   972   001748  6E28               	movwf	chr_lcd_4_send_string_pos@row^0,c
   973   00174A  0E01               	movlw	1
   974   00174C  6E29               	movwf	chr_lcd_4_send_string_pos@col^0,c
   975   00174E  0E01               	movlw	low STR_4
   976   001750  6E2A               	movwf	chr_lcd_4_send_string_pos@data^0,c
   977   001752  0E10               	movlw	high STR_4
   978   001754  6E2B               	movwf	(chr_lcd_4_send_string_pos@data+1)^0,c
   979   001756  EC5D  F013         	call	_chr_lcd_4_send_string_pos	;wreg free
   980   00175A                     
   981                           ;Application.c: 95:     chr_lcd_4_send_string_pos(&lcd, 2, 1, "Deg_2: ");
   982   00175A  0EF2               	movlw	low _lcd
   983   00175C  6E26               	movwf	chr_lcd_4_send_string_pos@lcd^0,c
   984   00175E  0E00               	movlw	high _lcd
   985   001760  6E27               	movwf	(chr_lcd_4_send_string_pos@lcd+1)^0,c
   986   001762  0E02               	movlw	2
   987   001764  6E28               	movwf	chr_lcd_4_send_string_pos@row^0,c
   988   001766  0E01               	movlw	1
   989   001768  6E29               	movwf	chr_lcd_4_send_string_pos@col^0,c
   990   00176A  0E09               	movlw	low STR_5
   991   00176C  6E2A               	movwf	chr_lcd_4_send_string_pos@data^0,c
   992   00176E  0E10               	movlw	high STR_5
   993   001770  6E2B               	movwf	(chr_lcd_4_send_string_pos@data+1)^0,c
   994   001772  EC5D  F013         	call	_chr_lcd_4_send_string_pos	;wreg free
   995   001776                     l5725:
   996                           
   997                           ;Application.c: 103:         if (0 == ADC_Start) {
   998   001776  5062               	movf	_ADC_Start^0,w,c
   999   001778  A4D8               	btfss	status,2,c
  1000   00177A  EFC1  F00B         	goto	u5341
  1001   00177E  EFC3  F00B         	goto	u5340
  1002   001782                     u5341:
  1003   001782  EFCD  F00B         	goto	l5729
  1004   001786                     u5340:
  1005   001786                     
  1006                           ;Application.c: 104:              adc_start_conversion_interrupt(&adc_1, Channel_0_A0);
  1007   001786  0EEB               	movlw	low _adc_1
  1008   001788  6E13               	movwf	adc_start_conversion_interrupt@adc^0,c
  1009   00178A  0E00               	movlw	high _adc_1
  1010   00178C  6E14               	movwf	(adc_start_conversion_interrupt@adc+1)^0,c
  1011   00178E  0E00               	movlw	0
  1012   001790  6E15               	movwf	adc_start_conversion_interrupt@analog_channel_select^0,c
  1013   001792  ECCB  F016         	call	_adc_start_conversion_interrupt	;wreg free
  1014                           
  1015                           ;Application.c: 105:         } else if (1 == ADC_Start) {
  1016   001796  EFDD  F00B         	goto	l5733
  1017   00179A                     l5729:
  1018   00179A  0462               	decf	_ADC_Start^0,w,c
  1019   00179C  A4D8               	btfss	status,2,c
  1020   00179E  EFD3  F00B         	goto	u5351
  1021   0017A2  EFD5  F00B         	goto	u5350
  1022   0017A6                     u5351:
  1023   0017A6  EFDD  F00B         	goto	l5733
  1024   0017AA                     u5350:
  1025   0017AA                     
  1026                           ;Application.c: 106:             adc_start_conversion_interrupt(&adc_1, Channel_1_A1);
  1027   0017AA  0EEB               	movlw	low _adc_1
  1028   0017AC  6E13               	movwf	adc_start_conversion_interrupt@adc^0,c
  1029   0017AE  0E00               	movlw	high _adc_1
  1030   0017B0  6E14               	movwf	(adc_start_conversion_interrupt@adc+1)^0,c
  1031   0017B2  0E01               	movlw	1
  1032   0017B4  6E15               	movwf	adc_start_conversion_interrupt@analog_channel_select^0,c
  1033   0017B6  ECCB  F016         	call	_adc_start_conversion_interrupt	;wreg free
  1034   0017BA                     l5733:
  1035                           
  1036                           ;Application.c: 113:         Degree_1=reading_1*4.88f;
  1037   0017BA  0EF6               	movlw	246
  1038   0017BC  6E1E               	movwf	___flmul@a^0,c
  1039   0017BE  0E28               	movlw	40
  1040   0017C0  6E1F               	movwf	(___flmul@a+1)^0,c
  1041   0017C2  0E9C               	movlw	156
  1042   0017C4  6E20               	movwf	(___flmul@a+2)^0,c
  1043   0017C6  0E40               	movlw	64
  1044   0017C8  6E21               	movwf	(___flmul@a+3)^0,c
  1045   0017CA  C06D  F00C         	movff	_reading_1,___xxtofl@val
  1046   0017CE  C06E  F00D         	movff	_reading_1+1,___xxtofl@val+1
  1047   0017D2  6A0E               	clrf	(___xxtofl@val+2)^0,c
  1048   0017D4  6A0F               	clrf	(___xxtofl@val+3)^0,c
  1049   0017D6  0E00               	movlw	0
  1050   0017D8  EC81  F00C         	call	___xxtofl
  1051   0017DC  C00C  F01A         	movff	?___xxtofl,___flmul@b
  1052   0017E0  C00D  F01B         	movff	?___xxtofl+1,___flmul@b+1
  1053   0017E4  C00E  F01C         	movff	?___xxtofl+2,___flmul@b+2
  1054   0017E8  C00F  F01D         	movff	?___xxtofl+3,___flmul@b+3
  1055   0017EC  EC0B  F008         	call	___flmul	;wreg free
  1056   0017F0  C01A  F033         	movff	?___flmul,___fltol@f1
  1057   0017F4  C01B  F034         	movff	?___flmul+1,___fltol@f1+1
  1058   0017F8  C01C  F035         	movff	?___flmul+2,___fltol@f1+2
  1059   0017FC  C01D  F036         	movff	?___flmul+3,___fltol@f1+3
  1060   001800  EC6C  F010         	call	___fltol	;wreg free
  1061   001804  C033  F05D         	movff	?___fltol,_Degree_1
  1062   001808  C034  F05E         	movff	?___fltol+1,_Degree_1+1
  1063   00180C                     
  1064                           ;Application.c: 114:                   Degree_1/=10;
  1065   00180C  C05D  F00C         	movff	_Degree_1,___lwdiv@dividend
  1066   001810  C05E  F00D         	movff	_Degree_1+1,___lwdiv@dividend+1
  1067   001814  0E00               	movlw	0
  1068   001816  6E0F               	movwf	(___lwdiv@divisor+1)^0,c
  1069   001818  0E0A               	movlw	10
  1070   00181A  6E0E               	movwf	___lwdiv@divisor^0,c
  1071   00181C  EC3D  F014         	call	___lwdiv	;wreg free
  1072   001820  C00C  F05D         	movff	?___lwdiv,_Degree_1
  1073   001824  C00D  F05E         	movff	?___lwdiv+1,_Degree_1+1
  1074   001828                     
  1075                           ;Application.c: 116:                    Degree_2=reading_2*4.88f;
  1076   001828  0EF6               	movlw	246
  1077   00182A  6E1E               	movwf	___flmul@a^0,c
  1078   00182C  0E28               	movlw	40
  1079   00182E  6E1F               	movwf	(___flmul@a+1)^0,c
  1080   001830  0E9C               	movlw	156
  1081   001832  6E20               	movwf	(___flmul@a+2)^0,c
  1082   001834  0E40               	movlw	64
  1083   001836  6E21               	movwf	(___flmul@a+3)^0,c
  1084   001838  C06B  F00C         	movff	_reading_2,___xxtofl@val
  1085   00183C  C06C  F00D         	movff	_reading_2+1,___xxtofl@val+1
  1086   001840  6A0E               	clrf	(___xxtofl@val+2)^0,c
  1087   001842  6A0F               	clrf	(___xxtofl@val+3)^0,c
  1088   001844  0E00               	movlw	0
  1089   001846  EC81  F00C         	call	___xxtofl
  1090   00184A  C00C  F01A         	movff	?___xxtofl,___flmul@b
  1091   00184E  C00D  F01B         	movff	?___xxtofl+1,___flmul@b+1
  1092   001852  C00E  F01C         	movff	?___xxtofl+2,___flmul@b+2
  1093   001856  C00F  F01D         	movff	?___xxtofl+3,___flmul@b+3
  1094   00185A  EC0B  F008         	call	___flmul	;wreg free
  1095   00185E  C01A  F033         	movff	?___flmul,___fltol@f1
  1096   001862  C01B  F034         	movff	?___flmul+1,___fltol@f1+1
  1097   001866  C01C  F035         	movff	?___flmul+2,___fltol@f1+2
  1098   00186A  C01D  F036         	movff	?___flmul+3,___fltol@f1+3
  1099   00186E  EC6C  F010         	call	___fltol	;wreg free
  1100   001872  C033  F099         	movff	?___fltol,_Degree_2
  1101   001876  C034  F09A         	movff	?___fltol+1,_Degree_2+1
  1102                           
  1103                           ;Application.c: 117:                   Degree_2/=10;
  1104   00187A  C099  F00C         	movff	_Degree_2,___lwdiv@dividend
  1105   00187E  C09A  F00D         	movff	_Degree_2+1,___lwdiv@dividend+1
  1106   001882  0E00               	movlw	0
  1107   001884  6E0F               	movwf	(___lwdiv@divisor+1)^0,c
  1108   001886  0E0A               	movlw	10
  1109   001888  6E0E               	movwf	___lwdiv@divisor^0,c
  1110   00188A  EC3D  F014         	call	___lwdiv	;wreg free
  1111   00188E  C00C  F099         	movff	?___lwdiv,_Degree_2
  1112   001892  C00D  F09A         	movff	?___lwdiv+1,_Degree_2+1
  1113   001896                     
  1114                           ;Application.c: 119:                 convert_short_to_str(Degree_1,conv1);
  1115   001896  C05D  F0F8         	movff	_Degree_1,convert_short_to_str@number
  1116   00189A  C05E  F0F9         	movff	_Degree_1+1,convert_short_to_str@number+1
  1117   00189E  0EB7               	movlw	low _conv1
  1118   0018A0  0100               	movlb	0	; () banked
  1119   0018A2  6FFA               	movwf	convert_short_to_str@str& (0+255),b
  1120   0018A4  0E00               	movlw	high _conv1
  1121   0018A6  6FFB               	movwf	(convert_short_to_str@str+1)& (0+255),b
  1122   0018A8  EC4D  F012         	call	_convert_short_to_str	;wreg free
  1123   0018AC                     
  1124                           ;Application.c: 120:                 convert_short_to_str(Degree_2,conv2);
  1125   0018AC  C099  F0F8         	movff	_Degree_2,convert_short_to_str@number
  1126   0018B0  C09A  F0F9         	movff	_Degree_2+1,convert_short_to_str@number+1
  1127   0018B4  0EB1               	movlw	low _conv2
  1128   0018B6  0100               	movlb	0	; () banked
  1129   0018B8  6FFA               	movwf	convert_short_to_str@str& (0+255),b
  1130   0018BA  0E00               	movlw	high _conv2
  1131   0018BC  6FFB               	movwf	(convert_short_to_str@str+1)& (0+255),b
  1132   0018BE  EC4D  F012         	call	_convert_short_to_str	;wreg free
  1133   0018C2                     
  1134                           ;Application.c: 125:              chr_lcd_4_send_string_pos(&lcd, 1, 7,conv1);
  1135   0018C2  0EF2               	movlw	low _lcd
  1136   0018C4  6E26               	movwf	chr_lcd_4_send_string_pos@lcd^0,c
  1137   0018C6  0E00               	movlw	high _lcd
  1138   0018C8  6E27               	movwf	(chr_lcd_4_send_string_pos@lcd+1)^0,c
  1139   0018CA  0E01               	movlw	1
  1140   0018CC  6E28               	movwf	chr_lcd_4_send_string_pos@row^0,c
  1141   0018CE  0E07               	movlw	7
  1142   0018D0  6E29               	movwf	chr_lcd_4_send_string_pos@col^0,c
  1143   0018D2  0EB7               	movlw	low _conv1
  1144   0018D4  6E2A               	movwf	chr_lcd_4_send_string_pos@data^0,c
  1145   0018D6  0E00               	movlw	high _conv1
  1146   0018D8  6E2B               	movwf	(chr_lcd_4_send_string_pos@data+1)^0,c
  1147   0018DA  EC5D  F013         	call	_chr_lcd_4_send_string_pos	;wreg free
  1148   0018DE                     
  1149                           ;Application.c: 128:              chr_lcd_4_send_string_pos(&lcd, 2, 7,conv2);
  1150   0018DE  0EF2               	movlw	low _lcd
  1151   0018E0  6E26               	movwf	chr_lcd_4_send_string_pos@lcd^0,c
  1152   0018E2  0E00               	movlw	high _lcd
  1153   0018E4  6E27               	movwf	(chr_lcd_4_send_string_pos@lcd+1)^0,c
  1154   0018E6  0E02               	movlw	2
  1155   0018E8  6E28               	movwf	chr_lcd_4_send_string_pos@row^0,c
  1156   0018EA  0E07               	movlw	7
  1157   0018EC  6E29               	movwf	chr_lcd_4_send_string_pos@col^0,c
  1158   0018EE  0EB1               	movlw	low _conv2
  1159   0018F0  6E2A               	movwf	chr_lcd_4_send_string_pos@data^0,c
  1160   0018F2  0E00               	movlw	high _conv2
  1161   0018F4  6E2B               	movwf	(chr_lcd_4_send_string_pos@data+1)^0,c
  1162   0018F6  EC5D  F013         	call	_chr_lcd_4_send_string_pos	;wreg free
  1163   0018FA  EFBB  F00B         	goto	l5725
  1164   0018FE  EF07  F000         	goto	start
  1165   001902                     __end_of_main:
  1166                           	callstack 0
  1167                           
  1168 ;; *************** function _convert_short_to_str *****************
  1169 ;; Defined at:
  1170 ;;		line 320 in file "ECU_Layer/chr_lcd/chr_lcd.c"
  1171 ;; Parameters:    Size  Location     Type
  1172 ;;  number          2    0[BANK0 ] unsigned short 
  1173 ;;  str             2    2[BANK0 ] PTR unsigned char 
  1174 ;;		 -> conv2(6), conv1(6), 
  1175 ;; Auto vars:     Size  Location     Type
  1176 ;;  Temp_str        6    0[BANK1 ] unsigned char [6]
  1177 ;;  counter         1    6[BANK1 ] unsigned char 
  1178 ;; Return value:  Size  Location     Type
  1179 ;;                  1    wreg      void 
  1180 ;; Registers used:
  1181 ;;		wreg, fsr1l, fsr1h, fsr2l, fsr2h, status,2, status,0, tblptrl, tblptrh, tblptru, cstack
  1182 ;; Tracked objects:
  1183 ;;		On entry : 0/0
  1184 ;;		On exit  : 0/0
  1185 ;;		Unchanged: 0/0
  1186 ;; Data sizes:     COMRAM   BANK0   BANK1   BANK2   BANK3   BANK4   BANK5   BANK6   BANK7   BANK8   BANK9  BANK10  BANK1
      +1  BANK12  BANK13  BANK14  BANK15
  1187 ;;      Params:         0       4       0       0       0       0       0       0       0       0       0       0       
      +0       0       0       0       0
  1188 ;;      Locals:         0       0       7       0       0       0       0       0       0       0       0       0       
      +0       0       0       0       0
  1189 ;;      Temps:          0       0       0       0       0       0       0       0       0       0       0       0       
      +0       0       0       0       0
  1190 ;;      Totals:         0       4       7       0       0       0       0       0       0       0       0       0       
      +0       0       0       0       0
  1191 ;;Total ram usage:       11 bytes
  1192 ;; Hardware stack levels used: 1
  1193 ;; Hardware stack levels required when called: 12
  1194 ;; This function calls:
  1195 ;;		_memset
  1196 ;;		_sprintf
  1197 ;; This function is called by:
  1198 ;;		_main
  1199 ;; This function uses a non-reentrant model
  1200 ;;
  1201                           
  1202                           	psect	text1
  1203   00249A                     __ptext1:
  1204                           	callstack 0
  1205   00249A                     _convert_short_to_str:
  1206                           	callstack 18
  1207   00249A                     
  1208                           ;ECU_Layer/chr_lcd/chr_lcd.c: 321:      uint8 Temp_str[6]={0};
  1209   00249A  EE21  F020         	lfsr	2,convert_short_to_str@Temp_str
  1210   00249E  0E05               	movlw	5
  1211   0024A0                     u5261:
  1212   0024A0  6ADE               	clrf	postinc2,c
  1213   0024A2  06E8               	decf	wreg,f,c
  1214   0024A4  E2FD               	bc	u5261
  1215   0024A6                     
  1216                           ;ECU_Layer/chr_lcd/chr_lcd.c: 322:      uint8 counter=0;
  1217   0024A6  0E00               	movlw	0
  1218   0024A8  0101               	movlb	1	; () banked
  1219   0024AA  6F26               	movwf	convert_short_to_str@counter& (0+255),b
  1220   0024AC                     
  1221                           ; BSR set to: 1
  1222                           ;ECU_Layer/chr_lcd/chr_lcd.c: 323:     memset(str,' ',5);
  1223   0024AC  C0FA  F00C         	movff	convert_short_to_str@str,memset@dest
  1224   0024B0  C0FB  F00D         	movff	convert_short_to_str@str+1,memset@dest+1
  1225   0024B4  0E00               	movlw	0
  1226   0024B6  6E0F               	movwf	(memset@c+1)^0,c
  1227   0024B8  0E20               	movlw	32
  1228   0024BA  6E0E               	movwf	memset@c^0,c
  1229   0024BC  0E00               	movlw	0
  1230   0024BE  6E11               	movwf	(memset@n+1)^0,c
  1231   0024C0  0E05               	movlw	5
  1232   0024C2  6E10               	movwf	memset@n^0,c
  1233   0024C4  EC5B  F00D         	call	_memset	;wreg free
  1234   0024C8                     
  1235                           ;ECU_Layer/chr_lcd/chr_lcd.c: 324:      str[5]='\0';
  1236   0024C8  0100               	movlb	0	; () banked
  1237   0024CA  EE20 F005          	lfsr	2,5
  1238   0024CE  51FA               	movf	convert_short_to_str@str& (0+255),w,b
  1239   0024D0  26D9               	addwf	fsr2l,f,c
  1240   0024D2  51FB               	movf	(convert_short_to_str@str+1)& (0+255),w,b
  1241   0024D4  22DA               	addwfc	fsr2h,f,c
  1242   0024D6  6ADF               	clrf	indf2,c
  1243   0024D8                     
  1244                           ; BSR set to: 0
  1245                           ;ECU_Layer/chr_lcd/chr_lcd.c: 325:     if(((void*)0)!=str){
  1246   0024D8  51FA               	movf	convert_short_to_str@str& (0+255),w,b
  1247   0024DA  11FB               	iorwf	(convert_short_to_str@str+1)& (0+255),w,b
  1248   0024DC  B4D8               	btfsc	status,2,c
  1249   0024DE  EF73  F012         	goto	u5271
  1250   0024E2  EF75  F012         	goto	u5270
  1251   0024E6                     u5271:
  1252   0024E6  EF98  F012         	goto	l5677
  1253   0024EA                     u5270:
  1254   0024EA                     
  1255                           ; BSR set to: 0
  1256                           ;ECU_Layer/chr_lcd/chr_lcd.c: 326:         sprintf(Temp_str,"%u",number);
  1257   0024EA  0E20               	movlw	low convert_short_to_str@Temp_str
  1258   0024EC  6E47               	movwf	sprintf@s^0,c
  1259   0024EE  0E01               	movlw	high convert_short_to_str@Temp_str
  1260   0024F0  6E48               	movwf	(sprintf@s+1)^0,c
  1261   0024F2  0E11               	movlw	low STR_1
  1262   0024F4  6E49               	movwf	sprintf@fmt^0,c
  1263   0024F6  0E10               	movlw	high STR_1
  1264   0024F8  6E4A               	movwf	(sprintf@fmt+1)^0,c
  1265   0024FA  C0F8  F04B         	movff	convert_short_to_str@number,?_sprintf+4
  1266   0024FE  C0F9  F04C         	movff	convert_short_to_str@number+1,?_sprintf+5
  1267   002502  EC25  F016         	call	_sprintf	;wreg free
  1268   002506  EF98  F012         	goto	l5677
  1269   00250A                     l5673:
  1270                           
  1271                           ; BSR set to: 1
  1272                           ;ECU_Layer/chr_lcd/chr_lcd.c: 329:         str[counter]=Temp_str[counter];
  1273   00250A  0E20               	movlw	low convert_short_to_str@Temp_str
  1274   00250C  2526               	addwf	convert_short_to_str@counter& (0+255),w,b
  1275   00250E  6ED9               	movwf	fsr2l,c
  1276   002510  6ADA               	clrf	fsr2h,c
  1277   002512  0E01               	movlw	high convert_short_to_str@Temp_str
  1278   002514  22DA               	addwfc	fsr2h,f,c
  1279   002516  5126               	movf	convert_short_to_str@counter& (0+255),w,b
  1280   002518  0100               	movlb	0	; () banked
  1281   00251A  25FA               	addwf	convert_short_to_str@str& (0+255),w,b
  1282   00251C  6EE1               	movwf	fsr1l,c
  1283   00251E  0101               	movlb	1	; () banked
  1284   002520  0E00               	movlw	0
  1285   002522  0100               	movlb	0	; () banked
  1286   002524  21FB               	addwfc	(convert_short_to_str@str+1)& (0+255),w,b
  1287   002526  6EE2               	movwf	fsr1h,c
  1288   002528  CFDF FFE7          	movff	indf2,indf1
  1289   00252C                     
  1290                           ; BSR set to: 0
  1291                           ;ECU_Layer/chr_lcd/chr_lcd.c: 330:         counter++;
  1292   00252C  0101               	movlb	1	; () banked
  1293   00252E  2B26               	incf	convert_short_to_str@counter& (0+255),f,b
  1294   002530                     l5677:
  1295                           
  1296                           ;ECU_Layer/chr_lcd/chr_lcd.c: 328:     while(Temp_str[counter]!='\0'){
  1297   002530  0E20               	movlw	low convert_short_to_str@Temp_str
  1298   002532  0101               	movlb	1	; () banked
  1299   002534  2526               	addwf	convert_short_to_str@counter& (0+255),w,b
  1300   002536  6ED9               	movwf	fsr2l,c
  1301   002538  6ADA               	clrf	fsr2h,c
  1302   00253A  0E01               	movlw	high convert_short_to_str@Temp_str
  1303   00253C  22DA               	addwfc	fsr2h,f,c
  1304   00253E  50DF               	movf	indf2,w,c
  1305   002540  A4D8               	btfss	status,2,c
  1306   002542  EFA5  F012         	goto	u5281
  1307   002546  EFA7  F012         	goto	u5280
  1308   00254A                     u5281:
  1309   00254A  EF85  F012         	goto	l5673
  1310   00254E                     u5280:
  1311   00254E                     
  1312                           ; BSR set to: 1
  1313   00254E  0012               	return		;funcret
  1314   002550                     __end_of_convert_short_to_str:
  1315                           	callstack 0
  1316                           
  1317 ;; *************** function _sprintf *****************
  1318 ;; Defined at:
  1319 ;;		line 9 in file "E:\Program Files\Microchip\xc8\v2.41\pic\sources\c99\common\nf_sprintf.c"
  1320 ;; Parameters:    Size  Location     Type
  1321 ;;  s               2   70[COMRAM] PTR unsigned char 
  1322 ;;		 -> convert_int_to_str@Temp_str(11), convert_short_to_str@Temp_str(6), convert_byte_to_str@Temp_str(4), 
  1323 ;;  fmt             2   72[COMRAM] PTR const unsigned char 
  1324 ;;		 -> STR_3(3), STR_2(3), STR_1(3), 
  1325 ;; Auto vars:     Size  Location     Type
  1326 ;;  f              12   80[COMRAM] struct _IO_FILE
  1327 ;;  ap              2   78[COMRAM] PTR void [1]
  1328 ;;		 -> ?_sprintf(2), 
  1329 ;;  ret             2    0        int 
  1330 ;; Return value:  Size  Location     Type
  1331 ;;                  2   70[COMRAM] int 
  1332 ;; Registers used:
  1333 ;;		wreg, fsr1l, fsr1h, fsr2l, fsr2h, status,2, status,0, tblptrl, tblptrh, tblptru, cstack
  1334 ;; Tracked objects:
  1335 ;;		On entry : 0/0
  1336 ;;		On exit  : 0/0
  1337 ;;		Unchanged: 0/0
  1338 ;; Data sizes:     COMRAM   BANK0   BANK1   BANK2   BANK3   BANK4   BANK5   BANK6   BANK7   BANK8   BANK9  BANK10  BANK1
      +1  BANK12  BANK13  BANK14  BANK15
  1339 ;;      Params:         8       0       0       0       0       0       0       0       0       0       0       0       
      +0       0       0       0       0
  1340 ;;      Locals:        14       0       0       0       0       0       0       0       0       0       0       0       
      +0       0       0       0       0
  1341 ;;      Temps:          0       0       0       0       0       0       0       0       0       0       0       0       
      +0       0       0       0       0
  1342 ;;      Totals:        22       0       0       0       0       0       0       0       0       0       0       0       
      +0       0       0       0       0
  1343 ;;Total ram usage:       22 bytes
  1344 ;; Hardware stack levels used: 1
  1345 ;; Hardware stack levels required when called: 11
  1346 ;; This function calls:
  1347 ;;		_vfprintf
  1348 ;; This function is called by:
  1349 ;;		_convert_short_to_str
  1350 ;;		_convert_byte_to_str
  1351 ;;		_convert_int_to_str
  1352 ;; This function uses a non-reentrant model
  1353 ;;
  1354                           
  1355                           	psect	text2
  1356   002C4A                     __ptext2:
  1357                           	callstack 0
  1358   002C4A                     _sprintf:
  1359                           	callstack 18
  1360   002C4A  0E4B               	movlw	low (?_sprintf+4)
  1361   002C4C  6E4F               	movwf	sprintf@ap^0,c
  1362   002C4E  0E00               	movlw	high (?_sprintf+4)
  1363   002C50  6E50               	movwf	(sprintf@ap+1)^0,c
  1364   002C52  C047  F051         	movff	sprintf@s,sprintf@f
  1365   002C56  C048  F052         	movff	sprintf@s+1,sprintf@f+1
  1366   002C5A  0E00               	movlw	0
  1367   002C5C  6E55               	movwf	(sprintf@f+4)^0,c
  1368   002C5E  0E00               	movlw	0
  1369   002C60  6E54               	movwf	(sprintf@f+3)^0,c
  1370   002C62  0E00               	movlw	0
  1371   002C64  6E5C               	movwf	(sprintf@f+11)^0,c
  1372   002C66  0E00               	movlw	0
  1373   002C68  6E5B               	movwf	(sprintf@f+10)^0,c
  1374   002C6A  0E51               	movlw	low sprintf@f
  1375   002C6C  6E3F               	movwf	vfprintf@fp^0,c
  1376   002C6E  0E00               	movlw	high sprintf@f
  1377   002C70  6E40               	movwf	(vfprintf@fp+1)^0,c
  1378   002C72  C049  F041         	movff	sprintf@fmt,vfprintf@fmt
  1379   002C76  C04A  F042         	movff	sprintf@fmt+1,vfprintf@fmt+1
  1380   002C7A  0E4F               	movlw	low sprintf@ap
  1381   002C7C  6E43               	movwf	vfprintf@ap^0,c
  1382   002C7E  0E00               	movlw	high sprintf@ap
  1383   002C80  6E44               	movwf	(vfprintf@ap+1)^0,c
  1384   002C82  ECFD  F015         	call	_vfprintf	;wreg free
  1385   002C86  5054               	movf	(sprintf@f+3)^0,w,c
  1386   002C88  2447               	addwf	sprintf@s^0,w,c
  1387   002C8A  6ED9               	movwf	fsr2l,c
  1388   002C8C  5055               	movf	(sprintf@f+4)^0,w,c
  1389   002C8E  2048               	addwfc	(sprintf@s+1)^0,w,c
  1390   002C90  6EDA               	movwf	fsr2h,c
  1391   002C92  6ADF               	clrf	indf2,c
  1392   002C94  0012               	return		;funcret
  1393   002C96                     __end_of_sprintf:
  1394                           	callstack 0
  1395                           
  1396 ;; *************** function _vfprintf *****************
  1397 ;; Defined at:
  1398 ;;		line 1546 in file "E:\Program Files\Microchip\xc8\v2.41\pic\sources\c99\common\doprnt.c"
  1399 ;; Parameters:    Size  Location     Type
  1400 ;;  fp              2   62[COMRAM] PTR struct _IO_FILE
  1401 ;;		 -> sprintf@f(12), 
  1402 ;;  fmt             2   64[COMRAM] PTR const unsigned char 
  1403 ;;		 -> STR_3(3), STR_2(3), STR_1(3), 
  1404 ;;  ap              2   66[COMRAM] PTR PTR void 
  1405 ;;		 -> sprintf@ap(2), 
  1406 ;; Auto vars:     Size  Location     Type
  1407 ;;  cfmt            2   68[COMRAM] PTR unsigned char 
  1408 ;;		 -> STR_3(3), STR_2(3), STR_1(3), 
  1409 ;; Return value:  Size  Location     Type
  1410 ;;                  2   62[COMRAM] int 
  1411 ;; Registers used:
  1412 ;;		wreg, fsr1l, fsr1h, fsr2l, fsr2h, status,2, status,0, tblptrl, tblptrh, tblptru, cstack
  1413 ;; Tracked objects:
  1414 ;;		On entry : 0/0
  1415 ;;		On exit  : 0/0
  1416 ;;		Unchanged: 0/0
  1417 ;; Data sizes:     COMRAM   BANK0   BANK1   BANK2   BANK3   BANK4   BANK5   BANK6   BANK7   BANK8   BANK9  BANK10  BANK1
      +1  BANK12  BANK13  BANK14  BANK15
  1418 ;;      Params:         6       0       0       0       0       0       0       0       0       0       0       0       
      +0       0       0       0       0
  1419 ;;      Locals:         2       0       0       0       0       0       0       0       0       0       0       0       
      +0       0       0       0       0
  1420 ;;      Temps:          0       0       0       0       0       0       0       0       0       0       0       0       
      +0       0       0       0       0
  1421 ;;      Totals:         8       0       0       0       0       0       0       0       0       0       0       0       
      +0       0       0       0       0
  1422 ;;Total ram usage:        8 bytes
  1423 ;; Hardware stack levels used: 1
  1424 ;; Hardware stack levels required when called: 10
  1425 ;; This function calls:
  1426 ;;		_vfpfcnvrt
  1427 ;; This function is called by:
  1428 ;;		_sprintf
  1429 ;; This function uses a non-reentrant model
  1430 ;;
  1431                           
  1432                           	psect	text3
  1433   002BFA                     __ptext3:
  1434                           	callstack 0
  1435   002BFA                     _vfprintf:
  1436                           	callstack 18
  1437   002BFA                     
  1438                           ;E:\Program Files\Microchip\xc8\v2.41\pic\sources\c99\common\doprnt.c: 1546: int vfprint
      +                          f(FILE *fp, const char *fmt, va_list ap);E:\Program Files\Microchip\xc8\v2.41\pic\source
      +                          s\c99\common\doprnt.c: 1547: {;E:\Program Files\Microchip\xc8\v2.41\pic\sources\c99\comm
      +                          on\doprnt.c: 1549:     char *cfmt;;E:\Program Files\Microchip\xc8\v2.41\pic\sources\c99\
      +                          common\doprnt.c: 1551:     cfmt = (char *)fmt;
  1439   002BFA  C041  F045         	movff	vfprintf@fmt,vfprintf@cfmt
  1440   002BFE  C042  F046         	movff	vfprintf@fmt+1,vfprintf@cfmt+1
  1441                           
  1442                           ;E:\Program Files\Microchip\xc8\v2.41\pic\sources\c99\common\doprnt.c: 1555:     while (
      +                          *cfmt) {
  1443   002C02  EF11  F016         	goto	l5611
  1444   002C06                     l5609:
  1445                           
  1446                           ;E:\Program Files\Microchip\xc8\v2.41\pic\sources\c99\common\doprnt.c: 1559:    vfpfcnvr
      +                          t(fp, &cfmt, ap);
  1447   002C06  C03F  F031         	movff	vfprintf@fp,vfpfcnvrt@fp
  1448   002C0A  C040  F032         	movff	vfprintf@fp+1,vfpfcnvrt@fp+1
  1449   002C0E  0E45               	movlw	low vfprintf@cfmt
  1450   002C10  6E33               	movwf	vfpfcnvrt@fmt^0,c
  1451   002C12  0E00               	movlw	high vfprintf@cfmt
  1452   002C14  6E34               	movwf	(vfpfcnvrt@fmt+1)^0,c
  1453   002C16  C043  F035         	movff	vfprintf@ap,vfpfcnvrt@ap
  1454   002C1A  C044  F036         	movff	vfprintf@ap+1,vfpfcnvrt@ap+1
  1455   002C1E  EC16  F00E         	call	_vfpfcnvrt	;wreg free
  1456   002C22                     l5611:
  1457                           
  1458                           ;E:\Program Files\Microchip\xc8\v2.41\pic\sources\c99\common\doprnt.c: 1555:     while (
      +                          *cfmt) {
  1459   002C22  C045  FFF6         	movff	vfprintf@cfmt,tblptrl
  1460   002C26  C046  FFF7         	movff	vfprintf@cfmt+1,tblptrh
  1461   002C2A                     	if	1	;Program memory is < 0x10000, tblptru is always zero
  1462   002C2A  6AF8               	clrf	tblptru,c
  1463   002C2C                     	endif
  1464   002C2C                     	if	0	;tblptru may be non-zero
  1465   002C2C                     	endif
  1466   002C2C  0008               	tblrd		*
  1467   002C2E  50F5               	movf	tablat,w,c
  1468   002C30  0900               	iorlw	0
  1469   002C32  A4D8               	btfss	status,2,c
  1470   002C34  EF1E  F016         	goto	u5201
  1471   002C38  EF20  F016         	goto	u5200
  1472   002C3C                     u5201:
  1473   002C3C  EF03  F016         	goto	l5609
  1474   002C40                     u5200:
  1475   002C40                     
  1476                           ;E:\Program Files\Microchip\xc8\v2.41\pic\sources\c99\common\doprnt.c: 1564:  return 0;
  1477   002C40  0E00               	movlw	0
  1478   002C42  6E40               	movwf	(?_vfprintf+1)^0,c
  1479   002C44  0E00               	movlw	0
  1480   002C46  6E3F               	movwf	?_vfprintf^0,c
  1481   002C48  0012               	return		;funcret
  1482   002C4A                     __end_of_vfprintf:
  1483                           	callstack 0
  1484                           
  1485 ;; *************** function _vfpfcnvrt *****************
  1486 ;; Defined at:
  1487 ;;		line 1048 in file "E:\Program Files\Microchip\xc8\v2.41\pic\sources\c99\common\doprnt.c"
  1488 ;; Parameters:    Size  Location     Type
  1489 ;;  fp              2   48[COMRAM] PTR struct _IO_FILE
  1490 ;;		 -> sprintf@f(12), 
  1491 ;;  fmt             2   50[COMRAM] PTR PTR unsigned char 
  1492 ;;		 -> vfprintf@cfmt(2), 
  1493 ;;  ap              2   52[COMRAM] PTR PTR void 
  1494 ;;		 -> sprintf@ap(2), 
  1495 ;; Auto vars:     Size  Location     Type
  1496 ;;  convarg         4   56[COMRAM] struct .
  1497 ;;  cp              2   60[COMRAM] PTR unsigned char 
  1498 ;;		 -> STR_3(3), STR_2(3), STR_1(3), 
  1499 ;;  i               2    0        int 
  1500 ;;  done            2    0        int 
  1501 ;;  c               1    0        unsigned char 
  1502 ;; Return value:  Size  Location     Type
  1503 ;;                  1    wreg      void 
  1504 ;; Registers used:
  1505 ;;		wreg, fsr1l, fsr1h, fsr2l, fsr2h, status,2, status,0, tblptrl, tblptrh, tblptru, cstack
  1506 ;; Tracked objects:
  1507 ;;		On entry : 0/0
  1508 ;;		On exit  : 0/0
  1509 ;;		Unchanged: 0/0
  1510 ;; Data sizes:     COMRAM   BANK0   BANK1   BANK2   BANK3   BANK4   BANK5   BANK6   BANK7   BANK8   BANK9  BANK10  BANK1
      +1  BANK12  BANK13  BANK14  BANK15
  1511 ;;      Params:         6       0       0       0       0       0       0       0       0       0       0       0       
      +0       0       0       0       0
  1512 ;;      Locals:         6       0       0       0       0       0       0       0       0       0       0       0       
      +0       0       0       0       0
  1513 ;;      Temps:          2       0       0       0       0       0       0       0       0       0       0       0       
      +0       0       0       0       0
  1514 ;;      Totals:        14       0       0       0       0       0       0       0       0       0       0       0       
      +0       0       0       0       0
  1515 ;;Total ram usage:       14 bytes
  1516 ;; Hardware stack levels used: 1
  1517 ;; Hardware stack levels required when called: 9
  1518 ;; This function calls:
  1519 ;;		_fputc
  1520 ;;		_utoa
  1521 ;; This function is called by:
  1522 ;;		_vfprintf
  1523 ;; This function uses a non-reentrant model
  1524 ;;
  1525                           
  1526                           	psect	text4
  1527   001C2C                     __ptext4:
  1528                           	callstack 0
  1529   001C2C                     _vfpfcnvrt:
  1530                           	callstack 18
  1531   001C2C                     
  1532                           ;E:\Program Files\Microchip\xc8\v2.41\pic\sources\c99\common\doprnt.c: 1048: vfpfcnvrt(F
      +                          ILE *fp, char *fmt[], va_list ap);E:\Program Files\Microchip\xc8\v2.41\pic\sources\c99\c
      +                          ommon\doprnt.c: 1049: {;E:\Program Files\Microchip\xc8\v2.41\pic\sources\c99\common\dopr
      +                          nt.c: 1050:     char c, *cp;;E:\Program Files\Microchip\xc8\v2.41\pic\sources\c99\common
      +                          \doprnt.c: 1051:     int done, i;;E:\Program Files\Microchip\xc8\v2.41\pic\sources\c99\c
      +                          ommon\doprnt.c: 1059:  } convarg;;E:\Program Files\Microchip\xc8\v2.41\pic\sources\c99\c
      +                          ommon\doprnt.c: 1062:     if ((*fmt)[0] == '%') {
  1533   001C2C  C033  FFD9         	movff	vfpfcnvrt@fmt,fsr2l
  1534   001C30  C034  FFDA         	movff	vfpfcnvrt@fmt+1,fsr2h
  1535   001C34  CFDE FFF6          	movff	postinc2,tblptrl
  1536   001C38  CFDD FFF7          	movff	postdec2,tblptrh
  1537   001C3C                     	if	1	;Program memory is < 0x10000, tblptru is always zero
  1538   001C3C  6AF8               	clrf	tblptru,c
  1539   001C3E                     	endif
  1540   001C3E                     	if	0	;tblptru may be non-zero
  1541   001C3E                     	endif
  1542   001C3E  0008               	tblrd		*
  1543   001C40  50F5               	movf	tablat,w,c
  1544   001C42  0A25               	xorlw	37
  1545   001C44  A4D8               	btfss	status,2,c
  1546   001C46  EF27  F00E         	goto	u5181
  1547   001C4A  EF29  F00E         	goto	u5180
  1548   001C4E                     u5181:
  1549   001C4E  EFA0  F00E         	goto	l5597
  1550   001C52                     u5180:
  1551   001C52                     
  1552                           ;E:\Program Files\Microchip\xc8\v2.41\pic\sources\c99\common\doprnt.c: 1063:         ++*
      +                          fmt;
  1553   001C52  C033  FFD9         	movff	vfpfcnvrt@fmt,fsr2l
  1554   001C56  C034  FFDA         	movff	vfpfcnvrt@fmt+1,fsr2h
  1555   001C5A  2ADE               	incf	postinc2,f,c
  1556   001C5C  0E00               	movlw	0
  1557   001C5E  22DD               	addwfc	postdec2,f,c
  1558   001C60                     
  1559                           ;E:\Program Files\Microchip\xc8\v2.41\pic\sources\c99\common\doprnt.c: 1065:         fla
      +                          gs = width = 0;
  1560   001C60  0E00               	movlw	0
  1561   001C62  0100               	movlb	0	; () banked
  1562   001C64  6F96               	movwf	(_width+1)& (0+255),b
  1563   001C66  0E00               	movlw	0
  1564   001C68  6F95               	movwf	_width& (0+255),b
  1565   001C6A  C095  F061         	movff	_width,_flags
  1566   001C6E                     
  1567                           ; BSR set to: 0
  1568                           ;E:\Program Files\Microchip\xc8\v2.41\pic\sources\c99\common\doprnt.c: 1066:         pre
      +                          c = -1;
  1569   001C6E  6997               	setf	_prec& (0+255),b
  1570   001C70  6998               	setf	(_prec+1)& (0+255),b
  1571   001C72                     
  1572                           ; BSR set to: 0
  1573                           ;E:\Program Files\Microchip\xc8\v2.41\pic\sources\c99\common\doprnt.c: 1265:   if (0
  1574   001C72  C033  FFD9         	movff	vfpfcnvrt@fmt,fsr2l
  1575   001C76  C034  FFDA         	movff	vfpfcnvrt@fmt+1,fsr2h
  1576   001C7A  CFDE F03D          	movff	postinc2,vfpfcnvrt@cp
  1577   001C7E  CFDD F03E          	movff	postdec2,vfpfcnvrt@cp+1
  1578   001C82                     
  1579                           ; BSR set to: 0
  1580   001C82  C03D  FFF6         	movff	vfpfcnvrt@cp,tblptrl
  1581   001C86  C03E  FFF7         	movff	vfpfcnvrt@cp+1,tblptrh
  1582   001C8A                     	if	1	;Program memory is < 0x10000, tblptru is always zero
  1583   001C8A  6AF8               	clrf	tblptru,c
  1584   001C8C                     	endif
  1585   001C8C                     	if	0	;tblptru may be non-zero
  1586   001C8C                     	endif
  1587   001C8C  0008               	tblrd		*
  1588   001C8E  50F5               	movf	tablat,w,c
  1589   001C90  0A75               	xorlw	117
  1590   001C92  A4D8               	btfss	status,2,c
  1591   001C94  EF4E  F00E         	goto	u5191
  1592   001C98  EF50  F00E         	goto	u5190
  1593   001C9C                     u5191:
  1594   001C9C  EF97  F00E         	goto	l5593
  1595   001CA0                     u5190:
  1596   001CA0                     
  1597                           ; BSR set to: 0
  1598                           ;E:\Program Files\Microchip\xc8\v2.41\pic\sources\c99\common\doprnt.c: 1278:     ) {;E:\
      +                          Program Files\Microchip\xc8\v2.41\pic\sources\c99\common\doprnt.c: 1321:    convarg.uint
      +                           = (vfpf_uint_t)(unsigned int)(*(unsigned int *)__va_arg(*(unsigned int **)ap, (unsigned
      +                           int)0));
  1599   001CA0  C035  FFD9         	movff	vfpfcnvrt@ap,fsr2l
  1600   001CA4  C036  FFDA         	movff	vfpfcnvrt@ap+1,fsr2h
  1601   001CA8  CFDF F037          	movff	indf2,??_vfpfcnvrt
  1602   001CAC  0E02               	movlw	2
  1603   001CAE  26DE               	addwf	postinc2,f,c
  1604   001CB0  CFDF F038          	movff	indf2,??_vfpfcnvrt+1
  1605   001CB4  0E00               	movlw	0
  1606   001CB6  22DD               	addwfc	postdec2,f,c
  1607   001CB8  C037  FFD9         	movff	??_vfpfcnvrt,fsr2l
  1608   001CBC  C038  FFDA         	movff	??_vfpfcnvrt+1,fsr2h
  1609   001CC0  CFDE F039          	movff	postinc2,vfpfcnvrt@convarg
  1610   001CC4  CFDD F03A          	movff	postdec2,vfpfcnvrt@convarg+1
  1611                           
  1612                           ;E:\Program Files\Microchip\xc8\v2.41\pic\sources\c99\common\doprnt.c: 1323:    *fmt = c
      +                          p+1;
  1613   001CC8  0E01               	movlw	1
  1614   001CCA  243D               	addwf	vfpfcnvrt@cp^0,w,c
  1615   001CCC  6E37               	movwf	??_vfpfcnvrt^0,c
  1616   001CCE  0E00               	movlw	0
  1617   001CD0  203E               	addwfc	(vfpfcnvrt@cp+1)^0,w,c
  1618   001CD2  6E38               	movwf	(??_vfpfcnvrt+1)^0,c
  1619   001CD4  C033  FFD9         	movff	vfpfcnvrt@fmt,fsr2l
  1620   001CD8  C034  FFDA         	movff	vfpfcnvrt@fmt+1,fsr2h
  1621   001CDC  C037  FFDE         	movff	??_vfpfcnvrt,postinc2
  1622   001CE0  C038  FFDD         	movff	??_vfpfcnvrt+1,postdec2
  1623                           
  1624                           ;E:\Program Files\Microchip\xc8\v2.41\pic\sources\c99\common\doprnt.c: 1324:    switch (
      +                          *cp) {
  1625   001CE4  EF80  F00E         	goto	l5591
  1626   001CE8                     l5585:
  1627                           
  1628                           ; BSR set to: 0
  1629                           ;E:\Program Files\Microchip\xc8\v2.41\pic\sources\c99\common\doprnt.c: 1331:      return
      +                           (void) utoa(fp, convarg.uint);;	Return value of _vfpfcnvrt is never used
  1630   001CE8  C031  F027         	movff	vfpfcnvrt@fp,utoa@fp
  1631   001CEC  C032  F028         	movff	vfpfcnvrt@fp+1,utoa@fp+1
  1632   001CF0  C039  F029         	movff	vfpfcnvrt@convarg,utoa@d
  1633   001CF4  C03A  F02A         	movff	vfpfcnvrt@convarg+1,utoa@d+1
  1634   001CF8  EC6F  F011         	call	_utoa	;wreg free
  1635   001CFC  EFB5  F00E         	goto	l1569
  1636   001D00                     l5591:
  1637                           
  1638                           ; BSR set to: 0
  1639   001D00  C03D  FFF6         	movff	vfpfcnvrt@cp,tblptrl
  1640   001D04  C03E  FFF7         	movff	vfpfcnvrt@cp+1,tblptrh
  1641   001D08                     	if	1	;Program memory is < 0x10000, tblptru is always zero
  1642   001D08  6AF8               	clrf	tblptru,c
  1643   001D0A                     	endif
  1644   001D0A                     	if	0	;tblptru may be non-zero
  1645   001D0A                     	endif
  1646   001D0A  0008               	tblrd		*
  1647   001D0C  50F5               	movf	tablat,w,c
  1648   001D0E  6E37               	movwf	??_vfpfcnvrt^0,c
  1649   001D10  6A38               	clrf	(??_vfpfcnvrt+1)^0,c
  1650                           
  1651                           ; Switch on 2 bytes has been partitioned into a top level switch of size 1, and 1 sub-sw
      +                          itches
  1652                           ; Switch size 1, requested type "simple"
  1653                           ; Number of cases is 1, Range of values is 0 to 0
  1654                           ; switch strategies available:
  1655                           ; Name         Instructions Cycles
  1656                           ; simple_byte            4     3 (average)
  1657                           ;	Chosen strategy is simple_byte
  1658   001D12  5038               	movf	(??_vfpfcnvrt+1)^0,w,c
  1659   001D14  0A00               	xorlw	0	; case 0
  1660   001D16  B4D8               	btfsc	status,2,c
  1661   001D18  EF90  F00E         	goto	l5847
  1662   001D1C  EF97  F00E         	goto	l5593
  1663   001D20                     l5847:
  1664                           
  1665                           ; BSR set to: 0
  1666                           ; Switch size 1, requested type "simple"
  1667                           ; Number of cases is 1, Range of values is 117 to 117
  1668                           ; switch strategies available:
  1669                           ; Name         Instructions Cycles
  1670                           ; simple_byte            4     3 (average)
  1671                           ;	Chosen strategy is simple_byte
  1672   001D20  5037               	movf	??_vfpfcnvrt^0,w,c
  1673   001D22  0A75               	xorlw	117	; case 117
  1674   001D24  B4D8               	btfsc	status,2,c
  1675   001D26  EF74  F00E         	goto	l5585
  1676   001D2A  EF97  F00E         	goto	l5593
  1677   001D2E                     l5593:
  1678                           
  1679                           ;E:\Program Files\Microchip\xc8\v2.41\pic\sources\c99\common\doprnt.c: 1535:         ++*
      +                          fmt;
  1680   001D2E  C033  FFD9         	movff	vfpfcnvrt@fmt,fsr2l
  1681   001D32  C034  FFDA         	movff	vfpfcnvrt@fmt+1,fsr2h
  1682   001D36  2ADE               	incf	postinc2,f,c
  1683   001D38  0E00               	movlw	0
  1684   001D3A  22DD               	addwfc	postdec2,f,c
  1685   001D3C  EFB5  F00E         	goto	l1569
  1686   001D40                     l5597:
  1687                           
  1688                           ;E:\Program Files\Microchip\xc8\v2.41\pic\sources\c99\common\doprnt.c: 1540:     fputc((
      +                          int)(*fmt)[0], fp);
  1689   001D40  C033  FFD9         	movff	vfpfcnvrt@fmt,fsr2l
  1690   001D44  C034  FFDA         	movff	vfpfcnvrt@fmt+1,fsr2h
  1691   001D48  CFDE FFF6          	movff	postinc2,tblptrl
  1692   001D4C  CFDD FFF7          	movff	postdec2,tblptrh
  1693   001D50                     	if	1	;Program memory is < 0x10000, tblptru is always zero
  1694   001D50  6AF8               	clrf	tblptru,c
  1695   001D52                     	endif
  1696   001D52                     	if	0	;tblptru may be non-zero
  1697   001D52                     	endif
  1698   001D52  0008               	tblrd		*
  1699   001D54  50F5               	movf	tablat,w,c
  1700   001D56  6E0C               	movwf	fputc@c^0,c
  1701   001D58  6A0D               	clrf	(fputc@c+1)^0,c
  1702   001D5A  C031  F00E         	movff	vfpfcnvrt@fp,fputc@fp
  1703   001D5E  C032  F00F         	movff	vfpfcnvrt@fp+1,fputc@fp+1
  1704   001D62  ECE8  F011         	call	_fputc	;wreg free
  1705   001D66  EF97  F00E         	goto	l5593
  1706   001D6A                     l1569:
  1707   001D6A  0012               	return		;funcret
  1708   001D6C                     __end_of_vfpfcnvrt:
  1709                           	callstack 0
  1710                           
  1711 ;; *************** function _utoa *****************
  1712 ;; Defined at:
  1713 ;;		line 917 in file "E:\Program Files\Microchip\xc8\v2.41\pic\sources\c99\common\doprnt.c"
  1714 ;; Parameters:    Size  Location     Type
  1715 ;;  fp              2   38[COMRAM] PTR struct _IO_FILE
  1716 ;;		 -> sprintf@f(12), 
  1717 ;;  d               2   40[COMRAM] unsigned int 
  1718 ;; Auto vars:     Size  Location     Type
  1719 ;;  i               2   46[COMRAM] int 
  1720 ;;  p               2   44[COMRAM] int 
  1721 ;;  w               2   42[COMRAM] int 
  1722 ;; Return value:  Size  Location     Type
  1723 ;;                  1    wreg      void 
  1724 ;; Registers used:
  1725 ;;		wreg, fsr1l, fsr1h, fsr2l, fsr2h, status,2, status,0, cstack
  1726 ;; Tracked objects:
  1727 ;;		On entry : 0/0
  1728 ;;		On exit  : 0/0
  1729 ;;		Unchanged: 0/0
  1730 ;; Data sizes:     COMRAM   BANK0   BANK1   BANK2   BANK3   BANK4   BANK5   BANK6   BANK7   BANK8   BANK9  BANK10  BANK1
      +1  BANK12  BANK13  BANK14  BANK15
  1731 ;;      Params:         4       0       0       0       0       0       0       0       0       0       0       0       
      +0       0       0       0       0
  1732 ;;      Locals:         6       0       0       0       0       0       0       0       0       0       0       0       
      +0       0       0       0       0
  1733 ;;      Temps:          0       0       0       0       0       0       0       0       0       0       0       0       
      +0       0       0       0       0
  1734 ;;      Totals:        10       0       0       0       0       0       0       0       0       0       0       0       
      +0       0       0       0       0
  1735 ;;Total ram usage:       10 bytes
  1736 ;; Hardware stack levels used: 1
  1737 ;; Hardware stack levels required when called: 8
  1738 ;; This function calls:
  1739 ;;		___lwdiv
  1740 ;;		___lwmod
  1741 ;;		_pad
  1742 ;; This function is called by:
  1743 ;;		_vfpfcnvrt
  1744 ;; This function uses a non-reentrant model
  1745 ;;
  1746                           
  1747                           	psect	text5
  1748   0022DE                     __ptext5:
  1749                           	callstack 0
  1750   0022DE                     _utoa:
  1751                           	callstack 18
  1752   0022DE                     
  1753                           ;E:\Program Files\Microchip\xc8\v2.41\pic\sources\c99\common\doprnt.c: 917: static void 
      +                          utoa(FILE *fp, vfpf_uint_t d);E:\Program Files\Microchip\xc8\v2.41\pic\sources\c99\commo
      +                          n\doprnt.c: 918: {;E:\Program Files\Microchip\xc8\v2.41\pic\sources\c99\common\doprnt.c:
      +                           919:     int i, p, w;;E:\Program Files\Microchip\xc8\v2.41\pic\sources\c99\common\doprn
      +                          t.c: 927:     p = (0 <= prec) ? prec : 1;
  1754   0022DE  0100               	movlb	0	; () banked
  1755   0022E0  BF98               	btfsc	(_prec+1)& (0+255),7,b
  1756   0022E2  EF77  F011         	goto	u5140
  1757   0022E6  EF75  F011         	goto	u5141
  1758   0022EA                     u5141:
  1759   0022EA  EF7D  F011         	goto	l1552
  1760   0022EE                     u5140:
  1761   0022EE                     
  1762                           ; BSR set to: 0
  1763   0022EE  0E00               	movlw	0
  1764   0022F0  6E2E               	movwf	(utoa@p+1)^0,c
  1765   0022F2  0E01               	movlw	1
  1766   0022F4  6E2D               	movwf	utoa@p^0,c
  1767   0022F6  EF81  F011         	goto	l1554
  1768   0022FA                     l1552:
  1769                           
  1770                           ; BSR set to: 0
  1771   0022FA  C097  F02D         	movff	_prec,utoa@p
  1772   0022FE  C098  F02E         	movff	_prec+1,utoa@p+1
  1773   002302                     l1554:
  1774                           
  1775                           ; BSR set to: 0
  1776                           ;E:\Program Files\Microchip\xc8\v2.41\pic\sources\c99\common\doprnt.c: 928:     w = widt
      +                          h;
  1777   002302  C095  F02B         	movff	_width,utoa@w
  1778   002306  C096  F02C         	movff	_width+1,utoa@w+1
  1779   00230A                     
  1780                           ; BSR set to: 0
  1781                           ;E:\Program Files\Microchip\xc8\v2.41\pic\sources\c99\common\doprnt.c: 931:     i = size
      +                          of(dbuf) - 1;
  1782   00230A  0E00               	movlw	0
  1783   00230C  6E30               	movwf	(utoa@i+1)^0,c
  1784   00230E  0E1F               	movlw	31
  1785   002310  6E2F               	movwf	utoa@i^0,c
  1786   002312                     
  1787                           ; BSR set to: 0
  1788                           ;E:\Program Files\Microchip\xc8\v2.41\pic\sources\c99\common\doprnt.c: 932:     dbuf[i] 
      +                          = '\0';
  1789   002312  0E00               	movlw	0
  1790   002314  0101               	movlb	1	; () banked
  1791   002316  6F1F               	movwf	(_dbuf+31)& (0+255),b
  1792                           
  1793                           ;E:\Program Files\Microchip\xc8\v2.41\pic\sources\c99\common\doprnt.c: 933:     while (i
      +                           && (d || (0 < p)
  1794   002318  EFB8  F011         	goto	l5561
  1795   00231C                     l5551:
  1796                           
  1797                           ;E:\Program Files\Microchip\xc8\v2.41\pic\sources\c99\common\doprnt.c: 937:     )) {;E:\
      +                          Program Files\Microchip\xc8\v2.41\pic\sources\c99\common\doprnt.c: 938:         --i;
  1798   00231C  062F               	decf	utoa@i^0,f,c
  1799   00231E  A0D8               	btfss	status,0,c
  1800   002320  0630               	decf	(utoa@i+1)^0,f,c
  1801   002322                     
  1802                           ;E:\Program Files\Microchip\xc8\v2.41\pic\sources\c99\common\doprnt.c: 939:         dbuf
      +                          [i] = '0' + (d % 10);
  1803   002322  0E00               	movlw	low _dbuf
  1804   002324  242F               	addwf	utoa@i^0,w,c
  1805   002326  6ED9               	movwf	fsr2l,c
  1806   002328  0E01               	movlw	high _dbuf
  1807   00232A  2030               	addwfc	(utoa@i+1)^0,w,c
  1808   00232C  6EDA               	movwf	fsr2h,c
  1809   00232E  C029  F00C         	movff	utoa@d,___lwmod@dividend
  1810   002332  C02A  F00D         	movff	utoa@d+1,___lwmod@dividend+1
  1811   002336  0E00               	movlw	0
  1812   002338  6E0F               	movwf	(___lwmod@divisor+1)^0,c
  1813   00233A  0E0A               	movlw	10
  1814   00233C  6E0E               	movwf	___lwmod@divisor^0,c
  1815   00233E  ECE5  F014         	call	___lwmod	;wreg free
  1816   002342  500C               	movf	?___lwmod^0,w,c
  1817   002344  0F30               	addlw	48
  1818   002346  6EDF               	movwf	indf2,c
  1819   002348                     
  1820                           ;E:\Program Files\Microchip\xc8\v2.41\pic\sources\c99\common\doprnt.c: 940:         --p;
  1821   002348  062D               	decf	utoa@p^0,f,c
  1822   00234A  A0D8               	btfss	status,0,c
  1823   00234C  062E               	decf	(utoa@p+1)^0,f,c
  1824   00234E                     
  1825                           ;E:\Program Files\Microchip\xc8\v2.41\pic\sources\c99\common\doprnt.c: 941:         --w;
  1826   00234E  062B               	decf	utoa@w^0,f,c
  1827   002350  A0D8               	btfss	status,0,c
  1828   002352  062C               	decf	(utoa@w+1)^0,f,c
  1829   002354                     
  1830                           ;E:\Program Files\Microchip\xc8\v2.41\pic\sources\c99\common\doprnt.c: 942:         d = 
      +                          d / 10;
  1831   002354  C029  F00C         	movff	utoa@d,___lwdiv@dividend
  1832   002358  C02A  F00D         	movff	utoa@d+1,___lwdiv@dividend+1
  1833   00235C  0E00               	movlw	0
  1834   00235E  6E0F               	movwf	(___lwdiv@divisor+1)^0,c
  1835   002360  0E0A               	movlw	10
  1836   002362  6E0E               	movwf	___lwdiv@divisor^0,c
  1837   002364  EC3D  F014         	call	___lwdiv	;wreg free
  1838   002368  C00C  F029         	movff	?___lwdiv,utoa@d
  1839   00236C  C00D  F02A         	movff	?___lwdiv+1,utoa@d+1
  1840   002370                     l5561:
  1841                           
  1842                           ;E:\Program Files\Microchip\xc8\v2.41\pic\sources\c99\common\doprnt.c: 933:     while (i
      +                           && (d || (0 < p)
  1843   002370  502F               	movf	utoa@i^0,w,c
  1844   002372  1030               	iorwf	(utoa@i+1)^0,w,c
  1845   002374  B4D8               	btfsc	status,2,c
  1846   002376  EFBF  F011         	goto	u5151
  1847   00237A  EFC1  F011         	goto	u5150
  1848   00237E                     u5151:
  1849   00237E  EFD7  F011         	goto	l5567
  1850   002382                     u5150:
  1851   002382  5029               	movf	utoa@d^0,w,c
  1852   002384  102A               	iorwf	(utoa@d+1)^0,w,c
  1853   002386  A4D8               	btfss	status,2,c
  1854   002388  EFC8  F011         	goto	u5161
  1855   00238C  EFCA  F011         	goto	u5160
  1856   002390                     u5161:
  1857   002390  EF8E  F011         	goto	l5551
  1858   002394                     u5160:
  1859   002394  BE2E               	btfsc	(utoa@p+1)^0,7,c
  1860   002396  EFD7  F011         	goto	u5170
  1861   00239A  502E               	movf	(utoa@p+1)^0,w,c
  1862   00239C  E106               	bnz	u5171
  1863   00239E  042D               	decf	utoa@p^0,w,c
  1864   0023A0  B0D8               	btfsc	status,0,c
  1865   0023A2  EFD5  F011         	goto	u5171
  1866   0023A6  EFD7  F011         	goto	u5170
  1867   0023AA                     u5171:
  1868   0023AA  EF8E  F011         	goto	l5551
  1869   0023AE                     u5170:
  1870   0023AE                     l5567:
  1871                           
  1872                           ;E:\Program Files\Microchip\xc8\v2.41\pic\sources\c99\common\doprnt.c: 946:     return (
      +                          void) pad(fp, &dbuf[i], w);
  1873   0023AE  C027  F01C         	movff	utoa@fp,pad@fp
  1874   0023B2  C028  F01D         	movff	utoa@fp+1,pad@fp+1
  1875   0023B6  0E00               	movlw	low _dbuf
  1876   0023B8  242F               	addwf	utoa@i^0,w,c
  1877   0023BA  6E1E               	movwf	pad@buf^0,c
  1878   0023BC  0E01               	movlw	high _dbuf
  1879   0023BE  2030               	addwfc	(utoa@i+1)^0,w,c
  1880   0023C0  6E1F               	movwf	(pad@buf+1)^0,c
  1881   0023C2  C02B  F020         	movff	utoa@w,pad@p
  1882   0023C6  C02C  F021         	movff	utoa@w+1,pad@p+1
  1883   0023CA  EC00  F014         	call	_pad	;wreg free
  1884   0023CE  0012               	return		;funcret
  1885   0023D0                     __end_of_utoa:
  1886                           	callstack 0
  1887                           
  1888 ;; *************** function _pad *****************
  1889 ;; Defined at:
  1890 ;;		line 152 in file "E:\Program Files\Microchip\xc8\v2.41\pic\sources\c99\common\doprnt.c"
  1891 ;; Parameters:    Size  Location     Type
  1892 ;;  fp              2   27[COMRAM] PTR struct _IO_FILE
  1893 ;;		 -> sprintf@f(12), 
  1894 ;;  buf             2   29[COMRAM] PTR unsigned char 
  1895 ;;		 -> dbuf(32), 
  1896 ;;  p               2   31[COMRAM] int 
  1897 ;; Auto vars:     Size  Location     Type
  1898 ;;  w               2   36[COMRAM] int 
  1899 ;;  i               2   34[COMRAM] int 
  1900 ;; Return value:  Size  Location     Type
  1901 ;;                  1    wreg      void 
  1902 ;; Registers used:
  1903 ;;		wreg, fsr1l, fsr1h, fsr2l, fsr2h, status,2, status,0, cstack
  1904 ;; Tracked objects:
  1905 ;;		On entry : 0/0
  1906 ;;		On exit  : 0/0
  1907 ;;		Unchanged: 0/0
  1908 ;; Data sizes:     COMRAM   BANK0   BANK1   BANK2   BANK3   BANK4   BANK5   BANK6   BANK7   BANK8   BANK9  BANK10  BANK1
      +1  BANK12  BANK13  BANK14  BANK15
  1909 ;;      Params:         6       0       0       0       0       0       0       0       0       0       0       0       
      +0       0       0       0       0
  1910 ;;      Locals:         4       0       0       0       0       0       0       0       0       0       0       0       
      +0       0       0       0       0
  1911 ;;      Temps:          1       0       0       0       0       0       0       0       0       0       0       0       
      +0       0       0       0       0
  1912 ;;      Totals:        11       0       0       0       0       0       0       0       0       0       0       0       
      +0       0       0       0       0
  1913 ;;Total ram usage:       11 bytes
  1914 ;; Hardware stack levels used: 1
  1915 ;; Hardware stack levels required when called: 7
  1916 ;; This function calls:
  1917 ;;		_fputc
  1918 ;;		_fputs
  1919 ;; This function is called by:
  1920 ;;		_utoa
  1921 ;; This function uses a non-reentrant model
  1922 ;;
  1923                           
  1924                           	psect	text6
  1925   002800                     __ptext6:
  1926                           	callstack 0
  1927   002800                     _pad:
  1928                           	callstack 18
  1929   002800                     
  1930                           ;E:\Program Files\Microchip\xc8\v2.41\pic\sources\c99\common\doprnt.c: 152: static void 
      +                          pad(FILE *fp, char *buf, int p);E:\Program Files\Microchip\xc8\v2.41\pic\sources\c99\com
      +                          mon\doprnt.c: 153: {;E:\Program Files\Microchip\xc8\v2.41\pic\sources\c99\common\doprnt.
      +                          c: 154:     int i, w;;E:\Program Files\Microchip\xc8\v2.41\pic\sources\c99\common\doprnt
      +                          .c: 164:     w = (p < 0) ? 0 : p;
  1931   002800  BE21               	btfsc	(pad@p+1)^0,7,c
  1932   002802  EF05  F014         	goto	u5121
  1933   002806  EF07  F014         	goto	u5120
  1934   00280A                     u5121:
  1935   00280A  EF0D  F014         	goto	l5533
  1936   00280E                     u5120:
  1937   00280E  C020  F025         	movff	pad@p,pad@w
  1938   002812  C021  F026         	movff	pad@p+1,pad@w+1
  1939   002816  EF11  F014         	goto	l1544
  1940   00281A                     l5533:
  1941   00281A  0E00               	movlw	0
  1942   00281C  6E26               	movwf	(pad@w+1)^0,c
  1943   00281E  0E00               	movlw	0
  1944   002820  6E25               	movwf	pad@w^0,c
  1945   002822                     l1544:
  1946                           
  1947                           ;E:\Program Files\Microchip\xc8\v2.41\pic\sources\c99\common\doprnt.c: 165:     i = 0;
  1948   002822  0E00               	movlw	0
  1949   002824  6E24               	movwf	(pad@i+1)^0,c
  1950   002826  0E00               	movlw	0
  1951   002828  6E23               	movwf	pad@i^0,c
  1952                           
  1953                           ;E:\Program Files\Microchip\xc8\v2.41\pic\sources\c99\common\doprnt.c: 166:     while (i
      +                           < w) {
  1954   00282A  EF23  F014         	goto	l5539
  1955   00282E                     l5535:
  1956                           
  1957                           ;E:\Program Files\Microchip\xc8\v2.41\pic\sources\c99\common\doprnt.c: 167:         fput
      +                          c(' ', fp);
  1958   00282E  0E00               	movlw	0
  1959   002830  6E0D               	movwf	(fputc@c+1)^0,c
  1960   002832  0E20               	movlw	32
  1961   002834  6E0C               	movwf	fputc@c^0,c
  1962   002836  C01C  F00E         	movff	pad@fp,fputc@fp
  1963   00283A  C01D  F00F         	movff	pad@fp+1,fputc@fp+1
  1964   00283E  ECE8  F011         	call	_fputc	;wreg free
  1965   002842                     
  1966                           ;E:\Program Files\Microchip\xc8\v2.41\pic\sources\c99\common\doprnt.c: 168:         ++i;
  1967   002842  4A23               	infsnz	pad@i^0,f,c
  1968   002844  2A24               	incf	(pad@i+1)^0,f,c
  1969   002846                     l5539:
  1970                           
  1971                           ;E:\Program Files\Microchip\xc8\v2.41\pic\sources\c99\common\doprnt.c: 166:     while (i
      +                           < w) {
  1972   002846  5025               	movf	pad@w^0,w,c
  1973   002848  5C23               	subwf	pad@i^0,w,c
  1974   00284A  5024               	movf	(pad@i+1)^0,w,c
  1975   00284C  0A80               	xorlw	128
  1976   00284E  6E22               	movwf	??_pad^0,c
  1977   002850  5026               	movf	(pad@w+1)^0,w,c
  1978   002852  0A80               	xorlw	128
  1979   002854  5822               	subwfb	??_pad^0,w,c
  1980   002856  A0D8               	btfss	status,0,c
  1981   002858  EF30  F014         	goto	u5131
  1982   00285C  EF32  F014         	goto	u5130
  1983   002860                     u5131:
  1984   002860  EF17  F014         	goto	l5535
  1985   002864                     u5130:
  1986   002864                     
  1987                           ;E:\Program Files\Microchip\xc8\v2.41\pic\sources\c99\common\doprnt.c: 175:         fput
      +                          s((const char *)buf, fp);
  1988   002864  C01E  F015         	movff	pad@buf,fputs@s
  1989   002868  C01F  F016         	movff	pad@buf+1,fputs@s+1
  1990   00286C  C01C  F017         	movff	pad@fp,fputs@fp
  1991   002870  C01D  F018         	movff	pad@fp+1,fputs@fp+1
  1992   002874  EC4B  F016         	call	_fputs	;wreg free
  1993   002878  0012               	return		;funcret
  1994   00287A                     __end_of_pad:
  1995                           	callstack 0
  1996                           
  1997 ;; *************** function _fputs *****************
  1998 ;; Defined at:
  1999 ;;		line 8 in file "E:\Program Files\Microchip\xc8\v2.41\pic\sources\c99\common\nf_fputs.c"
  2000 ;; Parameters:    Size  Location     Type
  2001 ;;  s               2   20[COMRAM] PTR const unsigned char 
  2002 ;;		 -> dbuf(32), 
  2003 ;;  fp              2   22[COMRAM] PTR struct _IO_FILE
  2004 ;;		 -> sprintf@f(12), 
  2005 ;; Auto vars:     Size  Location     Type
  2006 ;;  i               2   25[COMRAM] int 
  2007 ;;  c               1   24[COMRAM] unsigned char 
  2008 ;; Return value:  Size  Location     Type
  2009 ;;                  2   20[COMRAM] int 
  2010 ;; Registers used:
  2011 ;;		wreg, fsr1l, fsr1h, fsr2l, fsr2h, status,2, status,0, cstack
  2012 ;; Tracked objects:
  2013 ;;		On entry : 0/0
  2014 ;;		On exit  : 0/0
  2015 ;;		Unchanged: 0/0
  2016 ;; Data sizes:     COMRAM   BANK0   BANK1   BANK2   BANK3   BANK4   BANK5   BANK6   BANK7   BANK8   BANK9  BANK10  BANK1
      +1  BANK12  BANK13  BANK14  BANK15
  2017 ;;      Params:         4       0       0       0       0       0       0       0       0       0       0       0       
      +0       0       0       0       0
  2018 ;;      Locals:         3       0       0       0       0       0       0       0       0       0       0       0       
      +0       0       0       0       0
  2019 ;;      Temps:          0       0       0       0       0       0       0       0       0       0       0       0       
      +0       0       0       0       0
  2020 ;;      Totals:         7       0       0       0       0       0       0       0       0       0       0       0       
      +0       0       0       0       0
  2021 ;;Total ram usage:        7 bytes
  2022 ;; Hardware stack levels used: 1
  2023 ;; Hardware stack levels required when called: 6
  2024 ;; This function calls:
  2025 ;;		_fputc
  2026 ;; This function is called by:
  2027 ;;		_pad
  2028 ;; This function uses a non-reentrant model
  2029 ;;
  2030                           
  2031                           	psect	text7
  2032   002C96                     __ptext7:
  2033                           	callstack 0
  2034   002C96                     _fputs:
  2035                           	callstack 18
  2036   002C96  0E00               	movlw	0
  2037   002C98  6E1B               	movwf	(fputs@i+1)^0,c
  2038   002C9A  0E00               	movlw	0
  2039   002C9C  6E1A               	movwf	fputs@i^0,c
  2040   002C9E  EF5C  F016         	goto	l5489
  2041   002CA2                     l5485:
  2042   002CA2  C019  F00C         	movff	fputs@c,fputc@c
  2043   002CA6  6A0D               	clrf	(fputc@c+1)^0,c
  2044   002CA8  C017  F00E         	movff	fputs@fp,fputc@fp
  2045   002CAC  C018  F00F         	movff	fputs@fp+1,fputc@fp+1
  2046   002CB0  ECE8  F011         	call	_fputc	;wreg free
  2047   002CB4  4A1A               	infsnz	fputs@i^0,f,c
  2048   002CB6  2A1B               	incf	(fputs@i+1)^0,f,c
  2049   002CB8                     l5489:
  2050   002CB8  501A               	movf	fputs@i^0,w,c
  2051   002CBA  2415               	addwf	fputs@s^0,w,c
  2052   002CBC  6ED9               	movwf	fsr2l,c
  2053   002CBE  501B               	movf	(fputs@i+1)^0,w,c
  2054   002CC0  2016               	addwfc	(fputs@s+1)^0,w,c
  2055   002CC2  6EDA               	movwf	fsr2h,c
  2056   002CC4  50DF               	movf	indf2,w,c
  2057   002CC6  6E19               	movwf	fputs@c^0,c
  2058   002CC8  5019               	movf	fputs@c^0,w,c
  2059   002CCA  A4D8               	btfss	status,2,c
  2060   002CCC  EF6A  F016         	goto	u5051
  2061   002CD0  EF6C  F016         	goto	u5050
  2062   002CD4                     u5051:
  2063   002CD4  EF51  F016         	goto	l5485
  2064   002CD8                     u5050:
  2065   002CD8  0012               	return		;funcret
  2066   002CDA                     __end_of_fputs:
  2067                           	callstack 0
  2068                           
  2069 ;; *************** function _fputc *****************
  2070 ;; Defined at:
  2071 ;;		line 8 in file "E:\Program Files\Microchip\xc8\v2.41\pic\sources\c99\common\nf_fputc.c"
  2072 ;; Parameters:    Size  Location     Type
  2073 ;;  c               2   11[COMRAM] int 
  2074 ;;  fp              2   13[COMRAM] PTR struct _IO_FILE
  2075 ;;		 -> sprintf@f(12), 
  2076 ;; Auto vars:     Size  Location     Type
  2077 ;;		None
  2078 ;; Return value:  Size  Location     Type
  2079 ;;                  2   11[COMRAM] int 
  2080 ;; Registers used:
  2081 ;;		wreg, fsr1l, fsr1h, fsr2l, fsr2h, status,2, status,0, cstack
  2082 ;; Tracked objects:
  2083 ;;		On entry : 0/0
  2084 ;;		On exit  : 0/0
  2085 ;;		Unchanged: 0/0
  2086 ;; Data sizes:     COMRAM   BANK0   BANK1   BANK2   BANK3   BANK4   BANK5   BANK6   BANK7   BANK8   BANK9  BANK10  BANK1
      +1  BANK12  BANK13  BANK14  BANK15
  2087 ;;      Params:         4       0       0       0       0       0       0       0       0       0       0       0       
      +0       0       0       0       0
  2088 ;;      Locals:         0       0       0       0       0       0       0       0       0       0       0       0       
      +0       0       0       0       0
  2089 ;;      Temps:          5       0       0       0       0       0       0       0       0       0       0       0       
      +0       0       0       0       0
  2090 ;;      Totals:         9       0       0       0       0       0       0       0       0       0       0       0       
      +0       0       0       0       0
  2091 ;;Total ram usage:        9 bytes
  2092 ;; Hardware stack levels used: 1
  2093 ;; Hardware stack levels required when called: 5
  2094 ;; This function calls:
  2095 ;;		_putch
  2096 ;; This function is called by:
  2097 ;;		_pad
  2098 ;;		_vfpfcnvrt
  2099 ;;		_fputs
  2100 ;; This function uses a non-reentrant model
  2101 ;;
  2102                           
  2103                           	psect	text8
  2104   0023D0                     __ptext8:
  2105                           	callstack 0
  2106   0023D0                     _fputc:
  2107                           	callstack 18
  2108   0023D0  500E               	movf	fputc@fp^0,w,c
  2109   0023D2  100F               	iorwf	(fputc@fp+1)^0,w,c
  2110   0023D4  B4D8               	btfsc	status,2,c
  2111   0023D6  EFEF  F011         	goto	u5011
  2112   0023DA  EFF1  F011         	goto	u5010
  2113   0023DE                     u5011:
  2114   0023DE  EFFA  F011         	goto	l5473
  2115   0023E2                     u5010:
  2116   0023E2  500E               	movf	fputc@fp^0,w,c
  2117   0023E4  100F               	iorwf	(fputc@fp+1)^0,w,c
  2118   0023E6  A4D8               	btfss	status,2,c
  2119   0023E8  EFF8  F011         	goto	u5021
  2120   0023EC  EFFA  F011         	goto	u5020
  2121   0023F0                     u5021:
  2122   0023F0  EFFF  F011         	goto	l5475
  2123   0023F4                     u5020:
  2124   0023F4                     l5473:
  2125   0023F4  500C               	movf	fputc@c^0,w,c
  2126   0023F6  EC57  F017         	call	_putch
  2127   0023FA  EF4C  F012         	goto	l1588
  2128   0023FE                     l5475:
  2129   0023FE  EE20 F00A          	lfsr	2,10
  2130   002402  500E               	movf	fputc@fp^0,w,c
  2131   002404  26D9               	addwf	fsr2l,f,c
  2132   002406  500F               	movf	(fputc@fp+1)^0,w,c
  2133   002408  22DA               	addwfc	fsr2h,f,c
  2134   00240A  50DE               	movf	postinc2,w,c
  2135   00240C  10DE               	iorwf	postinc2,w,c
  2136   00240E  B4D8               	btfsc	status,2,c
  2137   002410  EF0C  F012         	goto	u5031
  2138   002414  EF0E  F012         	goto	u5030
  2139   002418                     u5031:
  2140   002418  EF29  F012         	goto	l5479
  2141   00241C                     u5030:
  2142   00241C  EE20 F00A          	lfsr	2,10
  2143   002420  500E               	movf	fputc@fp^0,w,c
  2144   002422  26D9               	addwf	fsr2l,f,c
  2145   002424  500F               	movf	(fputc@fp+1)^0,w,c
  2146   002426  22DA               	addwfc	fsr2h,f,c
  2147   002428  EE10 F003          	lfsr	1,3
  2148   00242C  500E               	movf	fputc@fp^0,w,c
  2149   00242E  26E1               	addwf	fsr1l,f,c
  2150   002430  500F               	movf	(fputc@fp+1)^0,w,c
  2151   002432  22E2               	addwfc	fsr1h,f,c
  2152   002434  50DE               	movf	postinc2,w,c
  2153   002436  5CE6               	subwf	postinc1,w,c
  2154   002438  50E6               	movf	postinc1,w,c
  2155   00243A  0A80               	xorlw	128
  2156   00243C  6E14               	movwf	(??_fputc+4)^0,c
  2157   00243E  50DE               	movf	postinc2,w,c
  2158   002440  0A80               	xorlw	128
  2159   002442  5814               	subwfb	(??_fputc+4)^0,w,c
  2160   002444  B0D8               	btfsc	status,0,c
  2161   002446  EF27  F012         	goto	u5041
  2162   00244A  EF29  F012         	goto	u5040
  2163   00244E                     u5041:
  2164   00244E  EF4C  F012         	goto	l1588
  2165   002452                     u5040:
  2166   002452                     l5479:
  2167   002452  EE20 F003          	lfsr	2,3
  2168   002456  500E               	movf	fputc@fp^0,w,c
  2169   002458  26D9               	addwf	fsr2l,f,c
  2170   00245A  500F               	movf	(fputc@fp+1)^0,w,c
  2171   00245C  22DA               	addwfc	fsr2h,f,c
  2172   00245E  CFDE F010          	movff	postinc2,??_fputc
  2173   002462  CFDD F011          	movff	postdec2,??_fputc+1
  2174   002466  C00E  FFD9         	movff	fputc@fp,fsr2l
  2175   00246A  C00F  FFDA         	movff	fputc@fp+1,fsr2h
  2176   00246E  CFDE F012          	movff	postinc2,??_fputc+2
  2177   002472  CFDD F013          	movff	postdec2,??_fputc+3
  2178   002476  5010               	movf	??_fputc^0,w,c
  2179   002478  2412               	addwf	(??_fputc+2)^0,w,c
  2180   00247A  6ED9               	movwf	fsr2l,c
  2181   00247C  5011               	movf	(??_fputc+1)^0,w,c
  2182   00247E  2013               	addwfc	(??_fputc+3)^0,w,c
  2183   002480  6EDA               	movwf	fsr2h,c
  2184   002482  C00C  FFDF         	movff	fputc@c,indf2
  2185   002486  EE20 F003          	lfsr	2,3
  2186   00248A  500E               	movf	fputc@fp^0,w,c
  2187   00248C  26D9               	addwf	fsr2l,f,c
  2188   00248E  500F               	movf	(fputc@fp+1)^0,w,c
  2189   002490  22DA               	addwfc	fsr2h,f,c
  2190   002492  2ADE               	incf	postinc2,f,c
  2191   002494  0E00               	movlw	0
  2192   002496  22DD               	addwfc	postdec2,f,c
  2193   002498                     l1588:
  2194   002498  0012               	return		;funcret
  2195   00249A                     __end_of_fputc:
  2196                           	callstack 0
  2197                           
  2198 ;; *************** function _putch *****************
  2199 ;; Defined at:
  2200 ;;		line 7 in file "E:\Program Files\Microchip\xc8\v2.41\pic\sources\c99\common\putch.c"
  2201 ;; Parameters:    Size  Location     Type
  2202 ;;  c               1    wreg     unsigned char 
  2203 ;; Auto vars:     Size  Location     Type
  2204 ;;  c               1    0[COMRAM] unsigned char 
  2205 ;; Return value:  Size  Location     Type
  2206 ;;                  1    wreg      void 
  2207 ;; Registers used:
  2208 ;;		wreg
  2209 ;; Tracked objects:
  2210 ;;		On entry : 0/0
  2211 ;;		On exit  : 0/0
  2212 ;;		Unchanged: 0/0
  2213 ;; Data sizes:     COMRAM   BANK0   BANK1   BANK2   BANK3   BANK4   BANK5   BANK6   BANK7   BANK8   BANK9  BANK10  BANK1
      +1  BANK12  BANK13  BANK14  BANK15
  2214 ;;      Params:         0       0       0       0       0       0       0       0       0       0       0       0       
      +0       0       0       0       0
  2215 ;;      Locals:         0       0       0       0       0       0       0       0       0       0       0       0       
      +0       0       0       0       0
  2216 ;;      Temps:          0       0       0       0       0       0       0       0       0       0       0       0       
      +0       0       0       0       0
  2217 ;;      Totals:         0       0       0       0       0       0       0       0       0       0       0       0       
      +0       0       0       0       0
  2218 ;;Total ram usage:        0 bytes
  2219 ;; Hardware stack levels used: 1
  2220 ;; Hardware stack levels required when called: 4
  2221 ;; This function calls:
  2222 ;;		Nothing
  2223 ;; This function is called by:
  2224 ;;		_fputc
  2225 ;; This function uses a non-reentrant model
  2226 ;;
  2227                           
  2228                           	psect	text9
  2229   002EAE                     __ptext9:
  2230                           	callstack 0
  2231   002EAE                     _putch:
  2232                           	callstack 18
  2233   002EAE  0012               	return		;funcret
  2234   002EB0                     __end_of_putch:
  2235                           	callstack 0
  2236                           
  2237 ;; *************** function ___lwmod *****************
  2238 ;; Defined at:
  2239 ;;		line 7 in file "E:\Program Files\Microchip\xc8\v2.41\pic\sources\c99\common\lwmod.c"
  2240 ;; Parameters:    Size  Location     Type
  2241 ;;  dividend        2   11[COMRAM] unsigned int 
  2242 ;;  divisor         2   13[COMRAM] unsigned int 
  2243 ;; Auto vars:     Size  Location     Type
  2244 ;;  counter         1   15[COMRAM] unsigned char 
  2245 ;; Return value:  Size  Location     Type
  2246 ;;                  2   11[COMRAM] unsigned int 
  2247 ;; Registers used:
  2248 ;;		wreg, status,2, status,0
  2249 ;; Tracked objects:
  2250 ;;		On entry : 0/0
  2251 ;;		On exit  : 0/0
  2252 ;;		Unchanged: 0/0
  2253 ;; Data sizes:     COMRAM   BANK0   BANK1   BANK2   BANK3   BANK4   BANK5   BANK6   BANK7   BANK8   BANK9  BANK10  BANK1
      +1  BANK12  BANK13  BANK14  BANK15
  2254 ;;      Params:         4       0       0       0       0       0       0       0       0       0       0       0       
      +0       0       0       0       0
  2255 ;;      Locals:         1       0       0       0       0       0       0       0       0       0       0       0       
      +0       0       0       0       0
  2256 ;;      Temps:          0       0       0       0       0       0       0       0       0       0       0       0       
      +0       0       0       0       0
  2257 ;;      Totals:         5       0       0       0       0       0       0       0       0       0       0       0       
      +0       0       0       0       0
  2258 ;;Total ram usage:        5 bytes
  2259 ;; Hardware stack levels used: 1
  2260 ;; Hardware stack levels required when called: 4
  2261 ;; This function calls:
  2262 ;;		Nothing
  2263 ;; This function is called by:
  2264 ;;		_utoa
  2265 ;; This function uses a non-reentrant model
  2266 ;;
  2267                           
  2268                           	psect	text10
  2269   0029CA                     __ptext10:
  2270                           	callstack 0
  2271   0029CA                     ___lwmod:
  2272                           	callstack 21
  2273   0029CA  500E               	movf	___lwmod@divisor^0,w,c
  2274   0029CC  100F               	iorwf	(___lwmod@divisor+1)^0,w,c
  2275   0029CE  B4D8               	btfsc	status,2,c
  2276   0029D0  EFEC  F014         	goto	u5091
  2277   0029D4  EFEE  F014         	goto	u5090
  2278   0029D8                     u5091:
  2279   0029D8  EF12  F015         	goto	l1337
  2280   0029DC                     u5090:
  2281   0029DC  0E01               	movlw	1
  2282   0029DE  6E10               	movwf	___lwmod@counter^0,c
  2283   0029E0  EFF6  F014         	goto	l5519
  2284   0029E4                     l5517:
  2285   0029E4  90D8               	bcf	status,0,c
  2286   0029E6  360E               	rlcf	___lwmod@divisor^0,f,c
  2287   0029E8  360F               	rlcf	(___lwmod@divisor+1)^0,f,c
  2288   0029EA  2A10               	incf	___lwmod@counter^0,f,c
  2289   0029EC                     l5519:
  2290   0029EC  AE0F               	btfss	(___lwmod@divisor+1)^0,7,c
  2291   0029EE  EFFB  F014         	goto	u5101
  2292   0029F2  EFFD  F014         	goto	u5100
  2293   0029F6                     u5101:
  2294   0029F6  EFF2  F014         	goto	l5517
  2295   0029FA                     u5100:
  2296   0029FA                     l5521:
  2297   0029FA  500E               	movf	___lwmod@divisor^0,w,c
  2298   0029FC  5C0C               	subwf	___lwmod@dividend^0,w,c
  2299   0029FE  500F               	movf	(___lwmod@divisor+1)^0,w,c
  2300   002A00  580D               	subwfb	(___lwmod@dividend+1)^0,w,c
  2301   002A02  A0D8               	btfss	status,0,c
  2302   002A04  EF06  F015         	goto	u5111
  2303   002A08  EF08  F015         	goto	u5110
  2304   002A0C                     u5111:
  2305   002A0C  EF0C  F015         	goto	l5525
  2306   002A10                     u5110:
  2307   002A10  500E               	movf	___lwmod@divisor^0,w,c
  2308   002A12  5E0C               	subwf	___lwmod@dividend^0,f,c
  2309   002A14  500F               	movf	(___lwmod@divisor+1)^0,w,c
  2310   002A16  5A0D               	subwfb	(___lwmod@dividend+1)^0,f,c
  2311   002A18                     l5525:
  2312   002A18  90D8               	bcf	status,0,c
  2313   002A1A  320F               	rrcf	(___lwmod@divisor+1)^0,f,c
  2314   002A1C  320E               	rrcf	___lwmod@divisor^0,f,c
  2315   002A1E  2E10               	decfsz	___lwmod@counter^0,f,c
  2316   002A20  EFFD  F014         	goto	l5521
  2317   002A24                     l1337:
  2318   002A24  C00C  F00C         	movff	___lwmod@dividend,?___lwmod
  2319   002A28  C00D  F00D         	movff	___lwmod@dividend+1,?___lwmod+1
  2320   002A2C  0012               	return		;funcret
  2321   002A2E                     __end_of___lwmod:
  2322                           	callstack 0
  2323                           
  2324 ;; *************** function ___lwdiv *****************
  2325 ;; Defined at:
  2326 ;;		line 7 in file "E:\Program Files\Microchip\xc8\v2.41\pic\sources\c99\common\lwdiv.c"
  2327 ;; Parameters:    Size  Location     Type
  2328 ;;  dividend        2   11[COMRAM] unsigned int 
  2329 ;;  divisor         2   13[COMRAM] unsigned int 
  2330 ;; Auto vars:     Size  Location     Type
  2331 ;;  quotient        2   16[COMRAM] unsigned int 
  2332 ;;  counter         1   15[COMRAM] unsigned char 
  2333 ;; Return value:  Size  Location     Type
  2334 ;;                  2   11[COMRAM] unsigned int 
  2335 ;; Registers used:
  2336 ;;		wreg, status,2, status,0
  2337 ;; Tracked objects:
  2338 ;;		On entry : 0/0
  2339 ;;		On exit  : 0/0
  2340 ;;		Unchanged: 0/0
  2341 ;; Data sizes:     COMRAM   BANK0   BANK1   BANK2   BANK3   BANK4   BANK5   BANK6   BANK7   BANK8   BANK9  BANK10  BANK1
      +1  BANK12  BANK13  BANK14  BANK15
  2342 ;;      Params:         4       0       0       0       0       0       0       0       0       0       0       0       
      +0       0       0       0       0
  2343 ;;      Locals:         3       0       0       0       0       0       0       0       0       0       0       0       
      +0       0       0       0       0
  2344 ;;      Temps:          0       0       0       0       0       0       0       0       0       0       0       0       
      +0       0       0       0       0
  2345 ;;      Totals:         7       0       0       0       0       0       0       0       0       0       0       0       
      +0       0       0       0       0
  2346 ;;Total ram usage:        7 bytes
  2347 ;; Hardware stack levels used: 1
  2348 ;; Hardware stack levels required when called: 4
  2349 ;; This function calls:
  2350 ;;		Nothing
  2351 ;; This function is called by:
  2352 ;;		_main
  2353 ;;		_utoa
  2354 ;; This function uses a non-reentrant model
  2355 ;;
  2356                           
  2357                           	psect	text11
  2358   00287A                     __ptext11:
  2359                           	callstack 0
  2360   00287A                     ___lwdiv:
  2361                           	callstack 21
  2362   00287A  0E00               	movlw	0
  2363   00287C  6E12               	movwf	(___lwdiv@quotient+1)^0,c
  2364   00287E  0E00               	movlw	0
  2365   002880  6E11               	movwf	___lwdiv@quotient^0,c
  2366   002882  500E               	movf	___lwdiv@divisor^0,w,c
  2367   002884  100F               	iorwf	(___lwdiv@divisor+1)^0,w,c
  2368   002886  B4D8               	btfsc	status,2,c
  2369   002888  EF48  F014         	goto	u5061
  2370   00288C  EF4A  F014         	goto	u5060
  2371   002890                     u5061:
  2372   002890  EF72  F014         	goto	l1327
  2373   002894                     u5060:
  2374   002894  0E01               	movlw	1
  2375   002896  6E10               	movwf	___lwdiv@counter^0,c
  2376   002898  EF52  F014         	goto	l5499
  2377   00289C                     l5497:
  2378   00289C  90D8               	bcf	status,0,c
  2379   00289E  360E               	rlcf	___lwdiv@divisor^0,f,c
  2380   0028A0  360F               	rlcf	(___lwdiv@divisor+1)^0,f,c
  2381   0028A2  2A10               	incf	___lwdiv@counter^0,f,c
  2382   0028A4                     l5499:
  2383   0028A4  AE0F               	btfss	(___lwdiv@divisor+1)^0,7,c
  2384   0028A6  EF57  F014         	goto	u5071
  2385   0028AA  EF59  F014         	goto	u5070
  2386   0028AE                     u5071:
  2387   0028AE  EF4E  F014         	goto	l5497
  2388   0028B2                     u5070:
  2389   0028B2                     l5501:
  2390   0028B2  90D8               	bcf	status,0,c
  2391   0028B4  3611               	rlcf	___lwdiv@quotient^0,f,c
  2392   0028B6  3612               	rlcf	(___lwdiv@quotient+1)^0,f,c
  2393   0028B8  500E               	movf	___lwdiv@divisor^0,w,c
  2394   0028BA  5C0C               	subwf	___lwdiv@dividend^0,w,c
  2395   0028BC  500F               	movf	(___lwdiv@divisor+1)^0,w,c
  2396   0028BE  580D               	subwfb	(___lwdiv@dividend+1)^0,w,c
  2397   0028C0  A0D8               	btfss	status,0,c
  2398   0028C2  EF65  F014         	goto	u5081
  2399   0028C6  EF67  F014         	goto	u5080
  2400   0028CA                     u5081:
  2401   0028CA  EF6C  F014         	goto	l5509
  2402   0028CE                     u5080:
  2403   0028CE  500E               	movf	___lwdiv@divisor^0,w,c
  2404   0028D0  5E0C               	subwf	___lwdiv@dividend^0,f,c
  2405   0028D2  500F               	movf	(___lwdiv@divisor+1)^0,w,c
  2406   0028D4  5A0D               	subwfb	(___lwdiv@dividend+1)^0,f,c
  2407   0028D6  8011               	bsf	___lwdiv@quotient^0,0,c
  2408   0028D8                     l5509:
  2409   0028D8  90D8               	bcf	status,0,c
  2410   0028DA  320F               	rrcf	(___lwdiv@divisor+1)^0,f,c
  2411   0028DC  320E               	rrcf	___lwdiv@divisor^0,f,c
  2412   0028DE  2E10               	decfsz	___lwdiv@counter^0,f,c
  2413   0028E0  EF59  F014         	goto	l5501
  2414   0028E4                     l1327:
  2415   0028E4  C011  F00C         	movff	___lwdiv@quotient,?___lwdiv
  2416   0028E8  C012  F00D         	movff	___lwdiv@quotient+1,?___lwdiv+1
  2417   0028EC  0012               	return		;funcret
  2418   0028EE                     __end_of___lwdiv:
  2419                           	callstack 0
  2420                           
  2421 ;; *************** function _memset *****************
  2422 ;; Defined at:
  2423 ;;		line 4 in file "E:\Program Files\Microchip\xc8\v2.41\pic\sources\c99\common\memset.c"
  2424 ;; Parameters:    Size  Location     Type
  2425 ;;  dest            2   11[COMRAM] PTR void 
  2426 ;;		 -> conv2(6), conv1(6), 
  2427 ;;  c               2   13[COMRAM] int 
  2428 ;;  n               2   15[COMRAM] unsigned int 
  2429 ;; Auto vars:     Size  Location     Type
  2430 ;;  s               2   21[COMRAM] PTR unsigned char 
  2431 ;;		 -> conv2(6), conv1(6), 
  2432 ;;  k               2   19[COMRAM] unsigned int 
  2433 ;; Return value:  Size  Location     Type
  2434 ;;                  2   11[COMRAM] PTR void 
  2435 ;; Registers used:
  2436 ;;		wreg, fsr2l, fsr2h, status,2, status,0
  2437 ;; Tracked objects:
  2438 ;;		On entry : 0/0
  2439 ;;		On exit  : 0/0
  2440 ;;		Unchanged: 0/0
  2441 ;; Data sizes:     COMRAM   BANK0   BANK1   BANK2   BANK3   BANK4   BANK5   BANK6   BANK7   BANK8   BANK9  BANK10  BANK1
      +1  BANK12  BANK13  BANK14  BANK15
  2442 ;;      Params:         6       0       0       0       0       0       0       0       0       0       0       0       
      +0       0       0       0       0
  2443 ;;      Locals:         4       0       0       0       0       0       0       0       0       0       0       0       
      +0       0       0       0       0
  2444 ;;      Temps:          2       0       0       0       0       0       0       0       0       0       0       0       
      +0       0       0       0       0
  2445 ;;      Totals:        12       0       0       0       0       0       0       0       0       0       0       0       
      +0       0       0       0       0
  2446 ;;Total ram usage:       12 bytes
  2447 ;; Hardware stack levels used: 1
  2448 ;; Hardware stack levels required when called: 4
  2449 ;; This function calls:
  2450 ;;		Nothing
  2451 ;; This function is called by:
  2452 ;;		_convert_short_to_str
  2453 ;;		_convert_byte_to_str
  2454 ;;		_convert_int_to_str
  2455 ;; This function uses a non-reentrant model
  2456 ;;
  2457                           
  2458                           	psect	text12
  2459   001AB6                     __ptext12:
  2460                           	callstack 0
  2461   001AB6                     _memset:
  2462                           	callstack 25
  2463   001AB6  C00C  F016         	movff	memset@dest,memset@s
  2464   001ABA  C00D  F017         	movff	memset@dest+1,memset@s+1
  2465   001ABE  5010               	movf	memset@n^0,w,c
  2466   001AC0  1011               	iorwf	(memset@n+1)^0,w,c
  2467   001AC2  A4D8               	btfss	status,2,c
  2468   001AC4  EF66  F00D         	goto	u5211
  2469   001AC8  EF68  F00D         	goto	u5210
  2470   001ACC                     u5211:
  2471   001ACC  EF6A  F00D         	goto	l5621
  2472   001AD0                     u5210:
  2473   001AD0  EF15  F00E         	goto	l1511
  2474   001AD4                     l5621:
  2475   001AD4  C016  FFD9         	movff	memset@s,fsr2l
  2476   001AD8  C017  FFDA         	movff	memset@s+1,fsr2h
  2477   001ADC  C00E  FFDF         	movff	memset@c,indf2
  2478   001AE0  5010               	movf	memset@n^0,w,c
  2479   001AE2  2416               	addwf	memset@s^0,w,c
  2480   001AE4  6E12               	movwf	??_memset^0,c
  2481   001AE6  5011               	movf	(memset@n+1)^0,w,c
  2482   001AE8  2017               	addwfc	(memset@s+1)^0,w,c
  2483   001AEA  6E13               	movwf	(??_memset+1)^0,c
  2484   001AEC  0EFF               	movlw	255
  2485   001AEE  2412               	addwf	??_memset^0,w,c
  2486   001AF0  6ED9               	movwf	fsr2l,c
  2487   001AF2  0EFF               	movlw	255
  2488   001AF4  2013               	addwfc	(??_memset+1)^0,w,c
  2489   001AF6  6EDA               	movwf	fsr2h,c
  2490   001AF8  C00E  FFDF         	movff	memset@c,indf2
  2491   001AFC  5011               	movf	(memset@n+1)^0,w,c
  2492   001AFE  E107               	bnz	u5221
  2493   001B00  0E03               	movlw	3
  2494   001B02  5C10               	subwf	memset@n^0,w,c
  2495   001B04  B0D8               	btfsc	status,0,c
  2496   001B06  EF87  F00D         	goto	u5221
  2497   001B0A  EF89  F00D         	goto	u5220
  2498   001B0E                     u5221:
  2499   001B0E  EF8B  F00D         	goto	l5627
  2500   001B12                     u5220:
  2501   001B12  EF15  F00E         	goto	l1511
  2502   001B16                     l5627:
  2503   001B16  EE20 F001          	lfsr	2,1
  2504   001B1A  5016               	movf	memset@s^0,w,c
  2505   001B1C  26D9               	addwf	fsr2l,f,c
  2506   001B1E  5017               	movf	(memset@s+1)^0,w,c
  2507   001B20  22DA               	addwfc	fsr2h,f,c
  2508   001B22  C00E  FFDF         	movff	memset@c,indf2
  2509   001B26  EE20 F002          	lfsr	2,2
  2510   001B2A  5016               	movf	memset@s^0,w,c
  2511   001B2C  26D9               	addwf	fsr2l,f,c
  2512   001B2E  5017               	movf	(memset@s+1)^0,w,c
  2513   001B30  22DA               	addwfc	fsr2h,f,c
  2514   001B32  C00E  FFDF         	movff	memset@c,indf2
  2515   001B36  5010               	movf	memset@n^0,w,c
  2516   001B38  2416               	addwf	memset@s^0,w,c
  2517   001B3A  6E12               	movwf	??_memset^0,c
  2518   001B3C  5011               	movf	(memset@n+1)^0,w,c
  2519   001B3E  2017               	addwfc	(memset@s+1)^0,w,c
  2520   001B40  6E13               	movwf	(??_memset+1)^0,c
  2521   001B42  0EFE               	movlw	254
  2522   001B44  2412               	addwf	??_memset^0,w,c
  2523   001B46  6ED9               	movwf	fsr2l,c
  2524   001B48  0EFF               	movlw	255
  2525   001B4A  2013               	addwfc	(??_memset+1)^0,w,c
  2526   001B4C  6EDA               	movwf	fsr2h,c
  2527   001B4E  C00E  FFDF         	movff	memset@c,indf2
  2528   001B52  5010               	movf	memset@n^0,w,c
  2529   001B54  2416               	addwf	memset@s^0,w,c
  2530   001B56  6E12               	movwf	??_memset^0,c
  2531   001B58  5011               	movf	(memset@n+1)^0,w,c
  2532   001B5A  2017               	addwfc	(memset@s+1)^0,w,c
  2533   001B5C  6E13               	movwf	(??_memset+1)^0,c
  2534   001B5E  0EFD               	movlw	253
  2535   001B60  2412               	addwf	??_memset^0,w,c
  2536   001B62  6ED9               	movwf	fsr2l,c
  2537   001B64  0EFF               	movlw	255
  2538   001B66  2013               	addwfc	(??_memset+1)^0,w,c
  2539   001B68  6EDA               	movwf	fsr2h,c
  2540   001B6A  C00E  FFDF         	movff	memset@c,indf2
  2541   001B6E  5011               	movf	(memset@n+1)^0,w,c
  2542   001B70  E107               	bnz	u5231
  2543   001B72  0E07               	movlw	7
  2544   001B74  5C10               	subwf	memset@n^0,w,c
  2545   001B76  B0D8               	btfsc	status,0,c
  2546   001B78  EFC0  F00D         	goto	u5231
  2547   001B7C  EFC2  F00D         	goto	u5230
  2548   001B80                     u5231:
  2549   001B80  EFC4  F00D         	goto	l5633
  2550   001B84                     u5230:
  2551   001B84  EF15  F00E         	goto	l1511
  2552   001B88                     l5633:
  2553   001B88  EE20 F003          	lfsr	2,3
  2554   001B8C  5016               	movf	memset@s^0,w,c
  2555   001B8E  26D9               	addwf	fsr2l,f,c
  2556   001B90  5017               	movf	(memset@s+1)^0,w,c
  2557   001B92  22DA               	addwfc	fsr2h,f,c
  2558   001B94  C00E  FFDF         	movff	memset@c,indf2
  2559   001B98  5010               	movf	memset@n^0,w,c
  2560   001B9A  2416               	addwf	memset@s^0,w,c
  2561   001B9C  6E12               	movwf	??_memset^0,c
  2562   001B9E  5011               	movf	(memset@n+1)^0,w,c
  2563   001BA0  2017               	addwfc	(memset@s+1)^0,w,c
  2564   001BA2  6E13               	movwf	(??_memset+1)^0,c
  2565   001BA4  0EFC               	movlw	252
  2566   001BA6  2412               	addwf	??_memset^0,w,c
  2567   001BA8  6ED9               	movwf	fsr2l,c
  2568   001BAA  0EFF               	movlw	255
  2569   001BAC  2013               	addwfc	(??_memset+1)^0,w,c
  2570   001BAE  6EDA               	movwf	fsr2h,c
  2571   001BB0  C00E  FFDF         	movff	memset@c,indf2
  2572   001BB4  5011               	movf	(memset@n+1)^0,w,c
  2573   001BB6  E107               	bnz	u5241
  2574   001BB8  0E09               	movlw	9
  2575   001BBA  5C10               	subwf	memset@n^0,w,c
  2576   001BBC  B0D8               	btfsc	status,0,c
  2577   001BBE  EFE3  F00D         	goto	u5241
  2578   001BC2  EFE5  F00D         	goto	u5240
  2579   001BC6                     u5241:
  2580   001BC6  EFE7  F00D         	goto	l5639
  2581   001BCA                     u5240:
  2582   001BCA  EF15  F00E         	goto	l1511
  2583   001BCE                     l5639:
  2584   001BCE  C016  F012         	movff	memset@s,??_memset
  2585   001BD2  C017  F013         	movff	memset@s+1,??_memset+1
  2586   001BD6  1E12               	comf	??_memset^0,f,c
  2587   001BD8  1E13               	comf	(??_memset+1)^0,f,c
  2588   001BDA  4A12               	infsnz	??_memset^0,f,c
  2589   001BDC  2A13               	incf	(??_memset+1)^0,f,c
  2590   001BDE  0E03               	movlw	3
  2591   001BE0  1412               	andwf	??_memset^0,w,c
  2592   001BE2  6E14               	movwf	memset@k^0,c
  2593   001BE4  6A15               	clrf	(memset@k+1)^0,c
  2594   001BE6  5014               	movf	memset@k^0,w,c
  2595   001BE8  2616               	addwf	memset@s^0,f,c
  2596   001BEA  5015               	movf	(memset@k+1)^0,w,c
  2597   001BEC  2217               	addwfc	(memset@s+1)^0,f,c
  2598   001BEE  5014               	movf	memset@k^0,w,c
  2599   001BF0  5E10               	subwf	memset@n^0,f,c
  2600   001BF2  5015               	movf	(memset@k+1)^0,w,c
  2601   001BF4  5A11               	subwfb	(memset@n+1)^0,f,c
  2602   001BF6  0EFC               	movlw	252
  2603   001BF8  1610               	andwf	memset@n^0,f,c
  2604   001BFA  0EFF               	movlw	255
  2605   001BFC  1611               	andwf	(memset@n+1)^0,f,c
  2606   001BFE  EF0C  F00E         	goto	l5647
  2607   001C02                     l5641:
  2608   001C02  C016  FFD9         	movff	memset@s,fsr2l
  2609   001C06  C017  FFDA         	movff	memset@s+1,fsr2h
  2610   001C0A  C00E  FFDF         	movff	memset@c,indf2
  2611   001C0E  0610               	decf	memset@n^0,f,c
  2612   001C10  A0D8               	btfss	status,0,c
  2613   001C12  0611               	decf	(memset@n+1)^0,f,c
  2614   001C14  4A16               	infsnz	memset@s^0,f,c
  2615   001C16  2A17               	incf	(memset@s+1)^0,f,c
  2616   001C18                     l5647:
  2617   001C18  5010               	movf	memset@n^0,w,c
  2618   001C1A  1011               	iorwf	(memset@n+1)^0,w,c
  2619   001C1C  A4D8               	btfss	status,2,c
  2620   001C1E  EF13  F00E         	goto	u5251
  2621   001C22  EF15  F00E         	goto	u5250
  2622   001C26                     u5251:
  2623   001C26  EF01  F00E         	goto	l5641
  2624   001C2A                     u5250:
  2625   001C2A                     l1511:
  2626   001C2A  0012               	return		;funcret
  2627   001C2C                     __end_of_memset:
  2628                           	callstack 0
  2629                           
  2630 ;; *************** function _chr_lcd_4_send_string_pos *****************
  2631 ;; Defined at:
  2632 ;;		line 95 in file "ECU_Layer/chr_lcd/chr_lcd.c"
  2633 ;; Parameters:    Size  Location     Type
  2634 ;;  lcd             2   37[COMRAM] PTR const struct .
  2635 ;;		 -> lcd(6), 
  2636 ;;  row             1   39[COMRAM] unsigned char 
  2637 ;;  col             1   40[COMRAM] unsigned char 
  2638 ;;  data            2   41[COMRAM] PTR unsigned char 
  2639 ;;		 -> conv2(6), conv1(6), STR_5(8), STR_4(8), 
  2640 ;; Auto vars:     Size  Location     Type
  2641 ;;  i               1   45[COMRAM] unsigned char 
  2642 ;;  return_statu    1    0        unsigned char 
  2643 ;; Return value:  Size  Location     Type
  2644 ;;                  1    wreg      unsigned char 
  2645 ;; Registers used:
  2646 ;;		wreg, fsr0l, fsr0h, fsr2l, fsr2h, status,2, status,0, tblptrl, tblptrh, tblptru, prodl, prodh, cstack
  2647 ;; Tracked objects:
  2648 ;;		On entry : 0/0
  2649 ;;		On exit  : 0/0
  2650 ;;		Unchanged: 0/0
  2651 ;; Data sizes:     COMRAM   BANK0   BANK1   BANK2   BANK3   BANK4   BANK5   BANK6   BANK7   BANK8   BANK9  BANK10  BANK1
      +1  BANK12  BANK13  BANK14  BANK15
  2652 ;;      Params:         6       0       0       0       0       0       0       0       0       0       0       0       
      +0       0       0       0       0
  2653 ;;      Locals:         1       0       0       0       0       0       0       0       0       0       0       0       
      +0       0       0       0       0
  2654 ;;      Temps:          2       0       0       0       0       0       0       0       0       0       0       0       
      +0       0       0       0       0
  2655 ;;      Totals:         9       0       0       0       0       0       0       0       0       0       0       0       
      +0       0       0       0       0
  2656 ;;Total ram usage:        9 bytes
  2657 ;; Hardware stack levels used: 1
  2658 ;; Hardware stack levels required when called: 8
  2659 ;; This function calls:
  2660 ;;		_chr_lcd_4_send_char
  2661 ;;		_lcd_4_bit_pos
  2662 ;; This function is called by:
  2663 ;;		_main
  2664 ;; This function uses a non-reentrant model
  2665 ;;
  2666                           
  2667                           	psect	text13
  2668   0026BA                     __ptext13:
  2669                           	callstack 0
  2670   0026BA                     _chr_lcd_4_send_string_pos:
  2671                           	callstack 22
  2672   0026BA                     
  2673                           ;ECU_Layer/chr_lcd/chr_lcd.c: 97:     uint8 i=0;
  2674   0026BA  0E00               	movlw	0
  2675   0026BC  6E2E               	movwf	chr_lcd_4_send_string_pos@i^0,c
  2676   0026BE                     
  2677                           ;ECU_Layer/chr_lcd/chr_lcd.c: 98:     if(((void*)0)!=lcd){
  2678   0026BE  5026               	movf	chr_lcd_4_send_string_pos@lcd^0,w,c
  2679   0026C0  1027               	iorwf	(chr_lcd_4_send_string_pos@lcd+1)^0,w,c
  2680   0026C2  B4D8               	btfsc	status,2,c
  2681   0026C4  EF66  F013         	goto	u3211
  2682   0026C8  EF68  F013         	goto	u3210
  2683   0026CC                     u3211:
  2684   0026CC  EFB2  F013         	goto	l77
  2685   0026D0                     u3210:
  2686   0026D0                     
  2687                           ;ECU_Layer/chr_lcd/chr_lcd.c: 99:         lcd_4_bit_pos(lcd,row,col);
  2688   0026D0  C026  F020         	movff	chr_lcd_4_send_string_pos@lcd,lcd_4_bit_pos@lcd
  2689   0026D4  C027  F021         	movff	chr_lcd_4_send_string_pos@lcd+1,lcd_4_bit_pos@lcd+1
  2690   0026D8  C028  F022         	movff	chr_lcd_4_send_string_pos@row,lcd_4_bit_pos@row
  2691   0026DC  C029  F023         	movff	chr_lcd_4_send_string_pos@col,lcd_4_bit_pos@colmn
  2692   0026E0  ECB3  F013         	call	_lcd_4_bit_pos	;wreg free
  2693                           
  2694                           ;ECU_Layer/chr_lcd/chr_lcd.c: 100:         while(data[i]!='\0'){
  2695   0026E4  EF93  F013         	goto	l4081
  2696   0026E8                     l4077:
  2697                           
  2698                           ;ECU_Layer/chr_lcd/chr_lcd.c: 101:             chr_lcd_4_send_char(lcd,data[i]);
  2699   0026E8  C026  F01D         	movff	chr_lcd_4_send_string_pos@lcd,chr_lcd_4_send_char@lcd
  2700   0026EC  C027  F01E         	movff	chr_lcd_4_send_string_pos@lcd+1,chr_lcd_4_send_char@lcd+1
  2701   0026F0  502E               	movf	chr_lcd_4_send_string_pos@i^0,w,c
  2702   0026F2  242A               	addwf	chr_lcd_4_send_string_pos@data^0,w,c
  2703   0026F4  6E2C               	movwf	??_chr_lcd_4_send_string_pos^0,c
  2704   0026F6  0E00               	movlw	0
  2705   0026F8  202B               	addwfc	(chr_lcd_4_send_string_pos@data+1)^0,w,c
  2706   0026FA  6E2D               	movwf	(??_chr_lcd_4_send_string_pos+1)^0,c
  2707   0026FC  C02C  FFF6         	movff	??_chr_lcd_4_send_string_pos,tblptrl
  2708   002700  C02D  FFF7         	movff	??_chr_lcd_4_send_string_pos+1,tblptrh
  2709   002704  0E00               	movlw	low (__smallconst shr (0+16))
  2710   002706  6EF8               	movwf	tblptru,c
  2711   002708  0E0F               	movlw	(high __ramtop+-1)
  2712   00270A  64F7               	cpfsgt	tblptrh,c
  2713   00270C  D003               	bra	u3227
  2714   00270E  0008               	tblrd		*
  2715   002710  50F5               	movf	tablat,w,c
  2716   002712  D005               	bra	u3220
  2717   002714                     u3227:
  2718   002714  CFF6 FFE9          	movff	tblptrl,fsr0l
  2719   002718  CFF7 FFEA          	movff	tblptrh,fsr0h
  2720   00271C  50EF               	movf	indf0,w,c
  2721   00271E                     u3220:
  2722   00271E  6E1F               	movwf	chr_lcd_4_send_char@data^0,c
  2723   002720  EC49  F015         	call	_chr_lcd_4_send_char	;wreg free
  2724   002724                     
  2725                           ;ECU_Layer/chr_lcd/chr_lcd.c: 102:             i++;
  2726   002724  2A2E               	incf	chr_lcd_4_send_string_pos@i^0,f,c
  2727   002726                     l4081:
  2728                           
  2729                           ;ECU_Layer/chr_lcd/chr_lcd.c: 100:         while(data[i]!='\0'){
  2730   002726  502E               	movf	chr_lcd_4_send_string_pos@i^0,w,c
  2731   002728  242A               	addwf	chr_lcd_4_send_string_pos@data^0,w,c
  2732   00272A  6E2C               	movwf	??_chr_lcd_4_send_string_pos^0,c
  2733   00272C  0E00               	movlw	0
  2734   00272E  202B               	addwfc	(chr_lcd_4_send_string_pos@data+1)^0,w,c
  2735   002730  6E2D               	movwf	(??_chr_lcd_4_send_string_pos+1)^0,c
  2736   002732  C02C  FFF6         	movff	??_chr_lcd_4_send_string_pos,tblptrl
  2737   002736  C02D  FFF7         	movff	??_chr_lcd_4_send_string_pos+1,tblptrh
  2738   00273A  0E00               	movlw	low (__smallconst shr (0+16))
  2739   00273C  6EF8               	movwf	tblptru,c
  2740   00273E  0E0F               	movlw	(high __ramtop+-1)
  2741   002740  64F7               	cpfsgt	tblptrh,c
  2742   002742  D003               	bra	u3237
  2743   002744  0008               	tblrd		*
  2744   002746  50F5               	movf	tablat,w,c
  2745   002748  D005               	bra	u3230
  2746   00274A                     u3237:
  2747   00274A  CFF6 FFE9          	movff	tblptrl,fsr0l
  2748   00274E  CFF7 FFEA          	movff	tblptrh,fsr0h
  2749   002752  50EF               	movf	indf0,w,c
  2750   002754                     u3230:
  2751   002754  0900               	iorlw	0
  2752   002756  A4D8               	btfss	status,2,c
  2753   002758  EFB0  F013         	goto	u3241
  2754   00275C  EFB2  F013         	goto	u3240
  2755   002760                     u3241:
  2756   002760  EF74  F013         	goto	l4077
  2757   002764                     u3240:
  2758   002764                     l77:
  2759   002764  0012               	return		;funcret
  2760   002766                     __end_of_chr_lcd_4_send_string_pos:
  2761                           	callstack 0
  2762                           
  2763 ;; *************** function _lcd_4_bit_pos *****************
  2764 ;; Defined at:
  2765 ;;		line 286 in file "ECU_Layer/chr_lcd/chr_lcd.c"
  2766 ;; Parameters:    Size  Location     Type
  2767 ;;  lcd             2   31[COMRAM] PTR const struct .
  2768 ;;		 -> lcd(6), 
  2769 ;;  row             1   33[COMRAM] unsigned char 
  2770 ;;  colmn           1   34[COMRAM] unsigned char 
  2771 ;; Auto vars:     Size  Location     Type
  2772 ;;		None
  2773 ;; Return value:  Size  Location     Type
  2774 ;;                  1    wreg      void 
  2775 ;; Registers used:
  2776 ;;		wreg, fsr2l, fsr2h, status,2, status,0, prodl, prodh, cstack
  2777 ;; Tracked objects:
  2778 ;;		On entry : 0/0
  2779 ;;		On exit  : 0/0
  2780 ;;		Unchanged: 0/0
  2781 ;; Data sizes:     COMRAM   BANK0   BANK1   BANK2   BANK3   BANK4   BANK5   BANK6   BANK7   BANK8   BANK9  BANK10  BANK1
      +1  BANK12  BANK13  BANK14  BANK15
  2782 ;;      Params:         4       0       0       0       0       0       0       0       0       0       0       0       
      +0       0       0       0       0
  2783 ;;      Locals:         0       0       0       0       0       0       0       0       0       0       0       0       
      +0       0       0       0       0
  2784 ;;      Temps:          2       0       0       0       0       0       0       0       0       0       0       0       
      +0       0       0       0       0
  2785 ;;      Totals:         6       0       0       0       0       0       0       0       0       0       0       0       
      +0       0       0       0       0
  2786 ;;Total ram usage:        6 bytes
  2787 ;; Hardware stack levels used: 1
  2788 ;; Hardware stack levels required when called: 7
  2789 ;; This function calls:
  2790 ;;		_chr_lcd_4_send_cmd
  2791 ;; This function is called by:
  2792 ;;		_chr_lcd_4_send_string_pos
  2793 ;;		_chr_lcd_4_send_char_pos
  2794 ;; This function uses a non-reentrant model
  2795 ;;
  2796                           
  2797                           	psect	text14
  2798   002766                     __ptext14:
  2799                           	callstack 0
  2800   002766                     _lcd_4_bit_pos:
  2801                           	callstack 22
  2802   002766                     
  2803                           ;ECU_Layer/chr_lcd/chr_lcd.c: 287:     colmn--;
  2804   002766  0623               	decf	lcd_4_bit_pos@colmn^0,f,c
  2805                           
  2806                           ;ECU_Layer/chr_lcd/chr_lcd.c: 288:     switch(row){
  2807   002768  EFE2  F013         	goto	l3911
  2808   00276C                     l3901:
  2809                           
  2810                           ;ECU_Layer/chr_lcd/chr_lcd.c: 290:             chr_lcd_4_send_cmd(lcd,0x80+colmn);
  2811   00276C  C020  F01D         	movff	lcd_4_bit_pos@lcd,chr_lcd_4_send_cmd@lcd
  2812   002770  C021  F01E         	movff	lcd_4_bit_pos@lcd+1,chr_lcd_4_send_cmd@lcd+1
  2813   002774  5023               	movf	lcd_4_bit_pos@colmn^0,w,c
  2814   002776  0F80               	addlw	128
  2815   002778  6E1F               	movwf	chr_lcd_4_send_cmd@cmd^0,c
  2816   00277A  EC78  F015         	call	_chr_lcd_4_send_cmd	;wreg free
  2817                           
  2818                           ;ECU_Layer/chr_lcd/chr_lcd.c: 291:             break;
  2819   00277E  EFFF  F013         	goto	l159
  2820   002782                     l3903:
  2821                           
  2822                           ;ECU_Layer/chr_lcd/chr_lcd.c: 293:             chr_lcd_4_send_cmd(lcd,0xc0+colmn);
  2823   002782  C020  F01D         	movff	lcd_4_bit_pos@lcd,chr_lcd_4_send_cmd@lcd
  2824   002786  C021  F01E         	movff	lcd_4_bit_pos@lcd+1,chr_lcd_4_send_cmd@lcd+1
  2825   00278A  5023               	movf	lcd_4_bit_pos@colmn^0,w,c
  2826   00278C  0FC0               	addlw	192
  2827   00278E  6E1F               	movwf	chr_lcd_4_send_cmd@cmd^0,c
  2828   002790  EC78  F015         	call	_chr_lcd_4_send_cmd	;wreg free
  2829                           
  2830                           ;ECU_Layer/chr_lcd/chr_lcd.c: 294:             break;
  2831   002794  EFFF  F013         	goto	l159
  2832   002798                     l3905:
  2833                           
  2834                           ;ECU_Layer/chr_lcd/chr_lcd.c: 296:             chr_lcd_4_send_cmd(lcd,0x94+colmn);
  2835   002798  C020  F01D         	movff	lcd_4_bit_pos@lcd,chr_lcd_4_send_cmd@lcd
  2836   00279C  C021  F01E         	movff	lcd_4_bit_pos@lcd+1,chr_lcd_4_send_cmd@lcd+1
  2837   0027A0  5023               	movf	lcd_4_bit_pos@colmn^0,w,c
  2838   0027A2  0F94               	addlw	148
  2839   0027A4  6E1F               	movwf	chr_lcd_4_send_cmd@cmd^0,c
  2840   0027A6  EC78  F015         	call	_chr_lcd_4_send_cmd	;wreg free
  2841                           
  2842                           ;ECU_Layer/chr_lcd/chr_lcd.c: 297:             break;
  2843   0027AA  EFFF  F013         	goto	l159
  2844   0027AE                     l3907:
  2845                           
  2846                           ;ECU_Layer/chr_lcd/chr_lcd.c: 299:             chr_lcd_4_send_cmd(lcd,0xd4+colmn);
  2847   0027AE  C020  F01D         	movff	lcd_4_bit_pos@lcd,chr_lcd_4_send_cmd@lcd
  2848   0027B2  C021  F01E         	movff	lcd_4_bit_pos@lcd+1,chr_lcd_4_send_cmd@lcd+1
  2849   0027B6  5023               	movf	lcd_4_bit_pos@colmn^0,w,c
  2850   0027B8  0FD4               	addlw	212
  2851   0027BA  6E1F               	movwf	chr_lcd_4_send_cmd@cmd^0,c
  2852   0027BC  EC78  F015         	call	_chr_lcd_4_send_cmd	;wreg free
  2853                           
  2854                           ;ECU_Layer/chr_lcd/chr_lcd.c: 300:             break;
  2855   0027C0  EFFF  F013         	goto	l159
  2856   0027C4                     l3911:
  2857   0027C4  5022               	movf	lcd_4_bit_pos@row^0,w,c
  2858   0027C6  6E24               	movwf	??_lcd_4_bit_pos^0,c
  2859   0027C8  6A25               	clrf	(??_lcd_4_bit_pos+1)^0,c
  2860                           
  2861                           ; Switch on 2 bytes has been partitioned into a top level switch of size 1, and 1 sub-sw
      +                          itches
  2862                           ; Switch size 1, requested type "simple"
  2863                           ; Number of cases is 1, Range of values is 0 to 0
  2864                           ; switch strategies available:
  2865                           ; Name         Instructions Cycles
  2866                           ; simple_byte            4     3 (average)
  2867                           ;	Chosen strategy is simple_byte
  2868   0027CA  5025               	movf	(??_lcd_4_bit_pos+1)^0,w,c
  2869   0027CC  0A00               	xorlw	0	; case 0
  2870   0027CE  B4D8               	btfsc	status,2,c
  2871   0027D0  EFEC  F013         	goto	l5849
  2872   0027D4  EFFF  F013         	goto	l159
  2873   0027D8                     l5849:
  2874                           
  2875                           ; Switch size 1, requested type "simple"
  2876                           ; Number of cases is 4, Range of values is 1 to 4
  2877                           ; switch strategies available:
  2878                           ; Name         Instructions Cycles
  2879                           ; simple_byte           13     7 (average)
  2880                           ;	Chosen strategy is simple_byte
  2881   0027D8  5024               	movf	??_lcd_4_bit_pos^0,w,c
  2882   0027DA  0A01               	xorlw	1	; case 1
  2883   0027DC  B4D8               	btfsc	status,2,c
  2884   0027DE  EFB6  F013         	goto	l3901
  2885   0027E2  0A03               	xorlw	3	; case 2
  2886   0027E4  B4D8               	btfsc	status,2,c
  2887   0027E6  EFC1  F013         	goto	l3903
  2888   0027EA  0A01               	xorlw	1	; case 3
  2889   0027EC  B4D8               	btfsc	status,2,c
  2890   0027EE  EFCC  F013         	goto	l3905
  2891   0027F2  0A07               	xorlw	7	; case 4
  2892   0027F4  B4D8               	btfsc	status,2,c
  2893   0027F6  EFD7  F013         	goto	l3907
  2894   0027FA  EFFF  F013         	goto	l159
  2895   0027FE                     l159:
  2896   0027FE  0012               	return		;funcret
  2897   002800                     __end_of_lcd_4_bit_pos:
  2898                           	callstack 0
  2899                           
  2900 ;; *************** function _chr_lcd_4_send_char *****************
  2901 ;; Defined at:
  2902 ;;		line 52 in file "ECU_Layer/chr_lcd/chr_lcd.c"
  2903 ;; Parameters:    Size  Location     Type
  2904 ;;  lcd             2   28[COMRAM] PTR const struct .
  2905 ;;		 -> lcd(6), 
  2906 ;;  data            1   30[COMRAM] unsigned char 
  2907 ;; Auto vars:     Size  Location     Type
  2908 ;;  return_statu    1    0        unsigned char 
  2909 ;; Return value:  Size  Location     Type
  2910 ;;                  1    wreg      unsigned char 
  2911 ;; Registers used:
  2912 ;;		wreg, fsr2l, fsr2h, status,2, status,0, prodl, prodh, cstack
  2913 ;; Tracked objects:
  2914 ;;		On entry : 0/0
  2915 ;;		On exit  : 0/0
  2916 ;;		Unchanged: 0/0
  2917 ;; Data sizes:     COMRAM   BANK0   BANK1   BANK2   BANK3   BANK4   BANK5   BANK6   BANK7   BANK8   BANK9  BANK10  BANK1
      +1  BANK12  BANK13  BANK14  BANK15
  2918 ;;      Params:         3       0       0       0       0       0       0       0       0       0       0       0       
      +0       0       0       0       0
  2919 ;;      Locals:         0       0       0       0       0       0       0       0       0       0       0       0       
      +0       0       0       0       0
  2920 ;;      Temps:          0       0       0       0       0       0       0       0       0       0       0       0       
      +0       0       0       0       0
  2921 ;;      Totals:         3       0       0       0       0       0       0       0       0       0       0       0       
      +0       0       0       0       0
  2922 ;;Total ram usage:        3 bytes
  2923 ;; Hardware stack levels used: 1
  2924 ;; Hardware stack levels required when called: 6
  2925 ;; This function calls:
  2926 ;;		_gpio_pin_write_level
  2927 ;;		_lcd_send_4_bit
  2928 ;;		_lcd_send_4_bit_enable
  2929 ;; This function is called by:
  2930 ;;		_chr_lcd_4_send_string_pos
  2931 ;;		_chr_lcd_4_send_string
  2932 ;;		_chr_lcd_4_send_custom_char
  2933 ;; This function uses a non-reentrant model
  2934 ;;
  2935                           
  2936                           	psect	text15
  2937   002A92                     __ptext15:
  2938                           	callstack 0
  2939   002A92                     _chr_lcd_4_send_char:
  2940                           	callstack 23
  2941   002A92                     
  2942                           ;ECU_Layer/chr_lcd/chr_lcd.c: 55:     if(((void*)0)!=lcd){
  2943   002A92  501D               	movf	chr_lcd_4_send_char@lcd^0,w,c
  2944   002A94  101E               	iorwf	(chr_lcd_4_send_char@lcd+1)^0,w,c
  2945   002A96  B4D8               	btfsc	status,2,c
  2946   002A98  EF50  F015         	goto	u3001
  2947   002A9C  EF52  F015         	goto	u3000
  2948   002AA0                     u3001:
  2949   002AA0  EF77  F015         	goto	l59
  2950   002AA4                     u3000:
  2951   002AA4                     
  2952                           ;ECU_Layer/chr_lcd/chr_lcd.c: 56:         gpio_pin_write_level(&(lcd->chr_lcd_rs_pin),GP
      +                          IO_HIGH);
  2953   002AA4  C01D  F00C         	movff	chr_lcd_4_send_char@lcd,gpio_pin_write_level@pin_cfg
  2954   002AA8  C01E  F00D         	movff	chr_lcd_4_send_char@lcd+1,gpio_pin_write_level@pin_cfg+1
  2955   002AAC  0E01               	movlw	1
  2956   002AAE  6E0E               	movwf	gpio_pin_write_level@level^0,c
  2957   002AB0  ECEF  F010         	call	_gpio_pin_write_level	;wreg free
  2958                           
  2959                           ;ECU_Layer/chr_lcd/chr_lcd.c: 57:         lcd_send_4_bit(lcd,data>>4);
  2960   002AB4  C01D  F015         	movff	chr_lcd_4_send_char@lcd,lcd_send_4_bit@lcd
  2961   002AB8  C01E  F016         	movff	chr_lcd_4_send_char@lcd+1,lcd_send_4_bit@lcd+1
  2962   002ABC  381F               	swapf	chr_lcd_4_send_char@data^0,w,c
  2963   002ABE  0B0F               	andlw	15
  2964   002AC0  6E17               	movwf	lcd_send_4_bit@_data_command^0,c
  2965   002AC2  EC17  F015         	call	_lcd_send_4_bit	;wreg free
  2966                           
  2967                           ;ECU_Layer/chr_lcd/chr_lcd.c: 58:         lcd_send_4_bit_enable(lcd);
  2968   002AC6  C01D  F015         	movff	chr_lcd_4_send_char@lcd,lcd_send_4_bit_enable@lcd
  2969   002ACA  C01E  F016         	movff	chr_lcd_4_send_char@lcd+1,lcd_send_4_bit_enable@lcd+1
  2970   002ACE  EC6D  F016         	call	_lcd_send_4_bit_enable	;wreg free
  2971                           
  2972                           ;ECU_Layer/chr_lcd/chr_lcd.c: 59:         lcd_send_4_bit(lcd,data);
  2973   002AD2  C01D  F015         	movff	chr_lcd_4_send_char@lcd,lcd_send_4_bit@lcd
  2974   002AD6  C01E  F016         	movff	chr_lcd_4_send_char@lcd+1,lcd_send_4_bit@lcd+1
  2975   002ADA  C01F  F017         	movff	chr_lcd_4_send_char@data,lcd_send_4_bit@_data_command
  2976   002ADE  EC17  F015         	call	_lcd_send_4_bit	;wreg free
  2977                           
  2978                           ;ECU_Layer/chr_lcd/chr_lcd.c: 60:         lcd_send_4_bit_enable(lcd);
  2979   002AE2  C01D  F015         	movff	chr_lcd_4_send_char@lcd,lcd_send_4_bit_enable@lcd
  2980   002AE6  C01E  F016         	movff	chr_lcd_4_send_char@lcd+1,lcd_send_4_bit_enable@lcd+1
  2981   002AEA  EC6D  F016         	call	_lcd_send_4_bit_enable	;wreg free
  2982   002AEE                     l59:
  2983   002AEE  0012               	return		;funcret
  2984   002AF0                     __end_of_chr_lcd_4_send_char:
  2985                           	callstack 0
  2986                           
  2987 ;; *************** function _chr_lcd_4_int *****************
  2988 ;; Defined at:
  2989 ;;		line 11 in file "ECU_Layer/chr_lcd/chr_lcd.c"
  2990 ;; Parameters:    Size  Location     Type
  2991 ;;  lcd             2   31[COMRAM] PTR const struct .
  2992 ;;		 -> lcd(6), 
  2993 ;; Auto vars:     Size  Location     Type
  2994 ;;  i               1   35[COMRAM] unsigned char 
  2995 ;;  return_statu    1    0        unsigned char 
  2996 ;; Return value:  Size  Location     Type
  2997 ;;                  1    wreg      unsigned char 
  2998 ;; Registers used:
  2999 ;;		wreg, fsr2l, fsr2h, status,2, status,0, prodl, prodh, cstack
  3000 ;; Tracked objects:
  3001 ;;		On entry : 0/0
  3002 ;;		On exit  : 0/0
  3003 ;;		Unchanged: 0/0
  3004 ;; Data sizes:     COMRAM   BANK0   BANK1   BANK2   BANK3   BANK4   BANK5   BANK6   BANK7   BANK8   BANK9  BANK10  BANK1
      +1  BANK12  BANK13  BANK14  BANK15
  3005 ;;      Params:         2       0       0       0       0       0       0       0       0       0       0       0       
      +0       0       0       0       0
  3006 ;;      Locals:         1       0       0       0       0       0       0       0       0       0       0       0       
      +0       0       0       0       0
  3007 ;;      Temps:          2       0       0       0       0       0       0       0       0       0       0       0       
      +0       0       0       0       0
  3008 ;;      Totals:         5       0       0       0       0       0       0       0       0       0       0       0       
      +0       0       0       0       0
  3009 ;;Total ram usage:        5 bytes
  3010 ;; Hardware stack levels used: 1
  3011 ;; Hardware stack levels required when called: 7
  3012 ;; This function calls:
  3013 ;;		_chr_lcd_4_send_cmd
  3014 ;;		_gpio_pin_int
  3015 ;; This function is called by:
  3016 ;;		_main
  3017 ;; This function uses a non-reentrant model
  3018 ;;
  3019                           
  3020                           	psect	text16
  3021   001FC4                     __ptext16:
  3022                           	callstack 0
  3023   001FC4                     _chr_lcd_4_int:
  3024                           	callstack 23
  3025   001FC4                     
  3026                           ;ECU_Layer/chr_lcd/chr_lcd.c: 14:     if(((void*)0)!=lcd){
  3027   001FC4  5020               	movf	chr_lcd_4_int@lcd^0,w,c
  3028   001FC6  1021               	iorwf	(chr_lcd_4_int@lcd+1)^0,w,c
  3029   001FC8  B4D8               	btfsc	status,2,c
  3030   001FCA  EFE9  F00F         	goto	u3181
  3031   001FCE  EFEB  F00F         	goto	u3180
  3032   001FD2                     u3181:
  3033   001FD2  EF6B  F010         	goto	l51
  3034   001FD6                     u3180:
  3035   001FD6                     
  3036                           ;ECU_Layer/chr_lcd/chr_lcd.c: 15:         gpio_pin_int(&(lcd->chr_lcd_e_pin));
  3037   001FD6  0E01               	movlw	1
  3038   001FD8  2420               	addwf	chr_lcd_4_int@lcd^0,w,c
  3039   001FDA  6E15               	movwf	gpio_pin_int@pin_cfg^0,c
  3040   001FDC  0E00               	movlw	0
  3041   001FDE  2021               	addwfc	(chr_lcd_4_int@lcd+1)^0,w,c
  3042   001FE0  6E16               	movwf	(gpio_pin_int@pin_cfg+1)^0,c
  3043   001FE2  EC8F  F016         	call	_gpio_pin_int	;wreg free
  3044                           
  3045                           ;ECU_Layer/chr_lcd/chr_lcd.c: 16:         gpio_pin_int(&(lcd->chr_lcd_rs_pin));
  3046   001FE6  C020  F015         	movff	chr_lcd_4_int@lcd,gpio_pin_int@pin_cfg
  3047   001FEA  C021  F016         	movff	chr_lcd_4_int@lcd+1,gpio_pin_int@pin_cfg+1
  3048   001FEE  EC8F  F016         	call	_gpio_pin_int	;wreg free
  3049   001FF2                     
  3050                           ;ECU_Layer/chr_lcd/chr_lcd.c: 17:         for(uint8 i=0;i<4;i++){
  3051   001FF2  0E00               	movlw	0
  3052   001FF4  6E24               	movwf	chr_lcd_4_int@i^0,c
  3053   001FF6                     l4033:
  3054                           
  3055                           ;ECU_Layer/chr_lcd/chr_lcd.c: 18:             gpio_pin_int(&(lcd->data_pin[i]));
  3056   001FF6  5024               	movf	chr_lcd_4_int@i^0,w,c
  3057   001FF8  2420               	addwf	chr_lcd_4_int@lcd^0,w,c
  3058   001FFA  6E22               	movwf	??_chr_lcd_4_int^0,c
  3059   001FFC  0E00               	movlw	0
  3060   001FFE  2021               	addwfc	(chr_lcd_4_int@lcd+1)^0,w,c
  3061   002000  6E23               	movwf	(??_chr_lcd_4_int+1)^0,c
  3062   002002  0E02               	movlw	2
  3063   002004  2422               	addwf	??_chr_lcd_4_int^0,w,c
  3064   002006  6E15               	movwf	gpio_pin_int@pin_cfg^0,c
  3065   002008  0E00               	movlw	0
  3066   00200A  2023               	addwfc	(??_chr_lcd_4_int+1)^0,w,c
  3067   00200C  6E16               	movwf	(gpio_pin_int@pin_cfg+1)^0,c
  3068   00200E  EC8F  F016         	call	_gpio_pin_int	;wreg free
  3069   002012                     
  3070                           ;ECU_Layer/chr_lcd/chr_lcd.c: 19:         }
  3071   002012  2A24               	incf	chr_lcd_4_int@i^0,f,c
  3072   002014  0E03               	movlw	3
  3073   002016  6424               	cpfsgt	chr_lcd_4_int@i^0,c
  3074   002018  EF10  F010         	goto	u3191
  3075   00201C  EF12  F010         	goto	u3190
  3076   002020                     u3191:
  3077   002020  EFFB  F00F         	goto	l4033
  3078   002024                     u3190:
  3079   002024                     
  3080                           ;ECU_Layer/chr_lcd/chr_lcd.c: 20:         _delay((unsigned long)((20)*(8000000UL/4000.0)
      +                          ));
  3081   002024  0E34               	movlw	52
  3082   002026  6E22               	movwf	??_chr_lcd_4_int^0,c
  3083   002028  0EF2               	movlw	242
  3084   00202A                     u5367:
  3085   00202A  2EE8               	decfsz	wreg,f,c
  3086   00202C  D7FE               	bra	u5367
  3087   00202E  2E22               	decfsz	??_chr_lcd_4_int^0,f,c
  3088   002030  D7FC               	bra	u5367
  3089   002032                     
  3090                           ;ECU_Layer/chr_lcd/chr_lcd.c: 21:          chr_lcd_4_send_cmd(lcd,(0x38));
  3091   002032  C020  F01D         	movff	chr_lcd_4_int@lcd,chr_lcd_4_send_cmd@lcd
  3092   002036  C021  F01E         	movff	chr_lcd_4_int@lcd+1,chr_lcd_4_send_cmd@lcd+1
  3093   00203A  0E38               	movlw	56
  3094   00203C  6E1F               	movwf	chr_lcd_4_send_cmd@cmd^0,c
  3095   00203E  EC78  F015         	call	_chr_lcd_4_send_cmd	;wreg free
  3096   002042                     
  3097                           ;ECU_Layer/chr_lcd/chr_lcd.c: 22:          _delay((unsigned long)((5)*(8000000UL/4000.0)
      +                          ));
  3098   002042  0E0D               	movlw	13
  3099   002044  6E22               	movwf	??_chr_lcd_4_int^0,c
  3100   002046  0EFC               	movlw	252
  3101   002048                     u5377:
  3102   002048  2EE8               	decfsz	wreg,f,c
  3103   00204A  D7FE               	bra	u5377
  3104   00204C  2E22               	decfsz	??_chr_lcd_4_int^0,f,c
  3105   00204E  D7FC               	bra	u5377
  3106                           
  3107                           ;ECU_Layer/chr_lcd/chr_lcd.c: 23:           chr_lcd_4_send_cmd(lcd,(0x38));
  3108   002050  C020  F01D         	movff	chr_lcd_4_int@lcd,chr_lcd_4_send_cmd@lcd
  3109   002054  C021  F01E         	movff	chr_lcd_4_int@lcd+1,chr_lcd_4_send_cmd@lcd+1
  3110   002058  0E38               	movlw	56
  3111   00205A  6E1F               	movwf	chr_lcd_4_send_cmd@cmd^0,c
  3112   00205C  EC78  F015         	call	_chr_lcd_4_send_cmd	;wreg free
  3113   002060                     
  3114                           ;ECU_Layer/chr_lcd/chr_lcd.c: 24:           _delay((unsigned long)((150)*(8000000UL/4000
      +                          000.0)));
  3115   002060  0E64               	movlw	100
  3116   002062                     u5387:
  3117   002062  2EE8               	decfsz	wreg,f,c
  3118   002064  D7FE               	bra	u5387
  3119   002066                     
  3120                           ;ECU_Layer/chr_lcd/chr_lcd.c: 25:           chr_lcd_4_send_cmd(lcd,(0x38));
  3121   002066  C020  F01D         	movff	chr_lcd_4_int@lcd,chr_lcd_4_send_cmd@lcd
  3122   00206A  C021  F01E         	movff	chr_lcd_4_int@lcd+1,chr_lcd_4_send_cmd@lcd+1
  3123   00206E  0E38               	movlw	56
  3124   002070  6E1F               	movwf	chr_lcd_4_send_cmd@cmd^0,c
  3125   002072  EC78  F015         	call	_chr_lcd_4_send_cmd	;wreg free
  3126   002076                     
  3127                           ;ECU_Layer/chr_lcd/chr_lcd.c: 26:           chr_lcd_4_send_cmd(lcd,(0x01));
  3128   002076  C020  F01D         	movff	chr_lcd_4_int@lcd,chr_lcd_4_send_cmd@lcd
  3129   00207A  C021  F01E         	movff	chr_lcd_4_int@lcd+1,chr_lcd_4_send_cmd@lcd+1
  3130   00207E  0E01               	movlw	1
  3131   002080  6E1F               	movwf	chr_lcd_4_send_cmd@cmd^0,c
  3132   002082  EC78  F015         	call	_chr_lcd_4_send_cmd	;wreg free
  3133   002086                     
  3134                           ;ECU_Layer/chr_lcd/chr_lcd.c: 27:           chr_lcd_4_send_cmd(lcd,(0x02));
  3135   002086  C020  F01D         	movff	chr_lcd_4_int@lcd,chr_lcd_4_send_cmd@lcd
  3136   00208A  C021  F01E         	movff	chr_lcd_4_int@lcd+1,chr_lcd_4_send_cmd@lcd+1
  3137   00208E  0E02               	movlw	2
  3138   002090  6E1F               	movwf	chr_lcd_4_send_cmd@cmd^0,c
  3139   002092  EC78  F015         	call	_chr_lcd_4_send_cmd	;wreg free
  3140   002096                     
  3141                           ;ECU_Layer/chr_lcd/chr_lcd.c: 28:           chr_lcd_4_send_cmd(lcd,(0x06));
  3142   002096  C020  F01D         	movff	chr_lcd_4_int@lcd,chr_lcd_4_send_cmd@lcd
  3143   00209A  C021  F01E         	movff	chr_lcd_4_int@lcd+1,chr_lcd_4_send_cmd@lcd+1
  3144   00209E  0E06               	movlw	6
  3145   0020A0  6E1F               	movwf	chr_lcd_4_send_cmd@cmd^0,c
  3146   0020A2  EC78  F015         	call	_chr_lcd_4_send_cmd	;wreg free
  3147   0020A6                     
  3148                           ;ECU_Layer/chr_lcd/chr_lcd.c: 29:           chr_lcd_4_send_cmd(lcd,(0x0F));
  3149   0020A6  C020  F01D         	movff	chr_lcd_4_int@lcd,chr_lcd_4_send_cmd@lcd
  3150   0020AA  C021  F01E         	movff	chr_lcd_4_int@lcd+1,chr_lcd_4_send_cmd@lcd+1
  3151   0020AE  0E0F               	movlw	15
  3152   0020B0  6E1F               	movwf	chr_lcd_4_send_cmd@cmd^0,c
  3153   0020B2  EC78  F015         	call	_chr_lcd_4_send_cmd	;wreg free
  3154   0020B6                     
  3155                           ;ECU_Layer/chr_lcd/chr_lcd.c: 30:           chr_lcd_4_send_cmd(lcd,(0x28));
  3156   0020B6  C020  F01D         	movff	chr_lcd_4_int@lcd,chr_lcd_4_send_cmd@lcd
  3157   0020BA  C021  F01E         	movff	chr_lcd_4_int@lcd+1,chr_lcd_4_send_cmd@lcd+1
  3158   0020BE  0E28               	movlw	40
  3159   0020C0  6E1F               	movwf	chr_lcd_4_send_cmd@cmd^0,c
  3160   0020C2  EC78  F015         	call	_chr_lcd_4_send_cmd	;wreg free
  3161   0020C6                     
  3162                           ;ECU_Layer/chr_lcd/chr_lcd.c: 31:           chr_lcd_4_send_cmd(lcd,(0x80));
  3163   0020C6  C020  F01D         	movff	chr_lcd_4_int@lcd,chr_lcd_4_send_cmd@lcd
  3164   0020CA  C021  F01E         	movff	chr_lcd_4_int@lcd+1,chr_lcd_4_send_cmd@lcd+1
  3165   0020CE  0E80               	movlw	128
  3166   0020D0  6E1F               	movwf	chr_lcd_4_send_cmd@cmd^0,c
  3167   0020D2  EC78  F015         	call	_chr_lcd_4_send_cmd	;wreg free
  3168   0020D6                     l51:
  3169   0020D6  0012               	return		;funcret
  3170   0020D8                     __end_of_chr_lcd_4_int:
  3171                           	callstack 0
  3172                           
  3173 ;; *************** function _gpio_pin_int *****************
  3174 ;; Defined at:
  3175 ;;		line 128 in file "MCAL_Layer/GPIO/GPIO.c"
  3176 ;; Parameters:    Size  Location     Type
  3177 ;;  pin_cfg         2   20[COMRAM] PTR const struct .
  3178 ;;		 -> lcd.data_pin(4), lcd(6), led_int@pin_cfg(1), 
  3179 ;; Auto vars:     Size  Location     Type
  3180 ;;  return_statu    1    0        unsigned char 
  3181 ;; Return value:  Size  Location     Type
  3182 ;;                  1    wreg      unsigned char 
  3183 ;; Registers used:
  3184 ;;		wreg, fsr2l, fsr2h, status,2, status,0, prodl, prodh, cstack
  3185 ;; Tracked objects:
  3186 ;;		On entry : 0/0
  3187 ;;		On exit  : 0/0
  3188 ;;		Unchanged: 0/0
  3189 ;; Data sizes:     COMRAM   BANK0   BANK1   BANK2   BANK3   BANK4   BANK5   BANK6   BANK7   BANK8   BANK9  BANK10  BANK1
      +1  BANK12  BANK13  BANK14  BANK15
  3190 ;;      Params:         2       0       0       0       0       0       0       0       0       0       0       0       
      +0       0       0       0       0
  3191 ;;      Locals:         0       0       0       0       0       0       0       0       0       0       0       0       
      +0       0       0       0       0
  3192 ;;      Temps:          0       0       0       0       0       0       0       0       0       0       0       0       
      +0       0       0       0       0
  3193 ;;      Totals:         2       0       0       0       0       0       0       0       0       0       0       0       
      +0       0       0       0       0
  3194 ;;Total ram usage:        2 bytes
  3195 ;; Hardware stack levels used: 1
  3196 ;; Hardware stack levels required when called: 5
  3197 ;; This function calls:
  3198 ;;		_gpio_pin_direction_int
  3199 ;;		_gpio_pin_write_level
  3200 ;; This function is called by:
  3201 ;;		_chr_lcd_4_int
  3202 ;;		_chr_lcd_8_int
  3203 ;;		_keypad_int
  3204 ;;		_led_int
  3205 ;; This function uses a non-reentrant model
  3206 ;;
  3207                           
  3208                           	psect	text17
  3209   002D1E                     __ptext17:
  3210                           	callstack 0
  3211   002D1E                     _gpio_pin_int:
  3212                           	callstack 24
  3213   002D1E                     
  3214                           ;MCAL_Layer/GPIO/GPIO.c: 131:     if(((void*)0)!=pin_cfg)
  3215   002D1E  5015               	movf	gpio_pin_int@pin_cfg^0,w,c
  3216   002D20  1016               	iorwf	(gpio_pin_int@pin_cfg+1)^0,w,c
  3217   002D22  B4D8               	btfsc	status,2,c
  3218   002D24  EF96  F016         	goto	u2991
  3219   002D28  EF98  F016         	goto	u2990
  3220   002D2C                     u2991:
  3221   002D2C  EFAC  F016         	goto	l497
  3222   002D30                     u2990:
  3223   002D30                     
  3224                           ;MCAL_Layer/GPIO/GPIO.c: 132:     {;MCAL_Layer/GPIO/GPIO.c: 133:             gpio_pin_di
      +                          rection_int(pin_cfg);
  3225   002D30  C015  F00C         	movff	gpio_pin_int@pin_cfg,gpio_pin_direction_int@pin_cfg
  3226   002D34  C016  F00D         	movff	gpio_pin_int@pin_cfg+1,gpio_pin_direction_int@pin_cfg+1
  3227   002D38  EC56  F00F         	call	_gpio_pin_direction_int	;wreg free
  3228                           
  3229                           ;MCAL_Layer/GPIO/GPIO.c: 134:             gpio_pin_write_level(pin_cfg,pin_cfg->level);
  3230   002D3C  C015  F00C         	movff	gpio_pin_int@pin_cfg,gpio_pin_write_level@pin_cfg
  3231   002D40  C016  F00D         	movff	gpio_pin_int@pin_cfg+1,gpio_pin_write_level@pin_cfg+1
  3232   002D44  C015  FFD9         	movff	gpio_pin_int@pin_cfg,fsr2l
  3233   002D48  C016  FFDA         	movff	gpio_pin_int@pin_cfg+1,fsr2h
  3234   002D4C  0E00               	movlw	0
  3235   002D4E  B2DF               	btfsc	indf2,1,c
  3236   002D50  0E01               	movlw	1
  3237   002D52  6E0E               	movwf	gpio_pin_write_level@level^0,c
  3238   002D54  ECEF  F010         	call	_gpio_pin_write_level	;wreg free
  3239   002D58                     l497:
  3240   002D58  0012               	return		;funcret
  3241   002D5A                     __end_of_gpio_pin_int:
  3242                           	callstack 0
  3243                           
  3244 ;; *************** function _gpio_pin_direction_int *****************
  3245 ;; Defined at:
  3246 ;;		line 14 in file "MCAL_Layer/GPIO/GPIO.c"
  3247 ;; Parameters:    Size  Location     Type
  3248 ;;  pin_cfg         2   11[COMRAM] PTR const struct .
  3249 ;;		 -> lcd.data_pin(4), lcd(6), relay_int@relay_pin(1), led_int@pin_cfg(1), 
  3250 ;; Auto vars:     Size  Location     Type
  3251 ;;  return_statu    1    0        unsigned char 
  3252 ;; Return value:  Size  Location     Type
  3253 ;;                  1    wreg      unsigned char 
  3254 ;; Registers used:
  3255 ;;		wreg, fsr2l, fsr2h, status,2, status,0, prodl, prodh
  3256 ;; Tracked objects:
  3257 ;;		On entry : 0/0
  3258 ;;		On exit  : 0/0
  3259 ;;		Unchanged: 0/0
  3260 ;; Data sizes:     COMRAM   BANK0   BANK1   BANK2   BANK3   BANK4   BANK5   BANK6   BANK7   BANK8   BANK9  BANK10  BANK1
      +1  BANK12  BANK13  BANK14  BANK15
  3261 ;;      Params:         2       0       0       0       0       0       0       0       0       0       0       0       
      +0       0       0       0       0
  3262 ;;      Locals:         0       0       0       0       0       0       0       0       0       0       0       0       
      +0       0       0       0       0
  3263 ;;      Temps:          6       0       0       0       0       0       0       0       0       0       0       0       
      +0       0       0       0       0
  3264 ;;      Totals:         8       0       0       0       0       0       0       0       0       0       0       0       
      +0       0       0       0       0
  3265 ;;Total ram usage:        8 bytes
  3266 ;; Hardware stack levels used: 1
  3267 ;; Hardware stack levels required when called: 4
  3268 ;; This function calls:
  3269 ;;		Nothing
  3270 ;; This function is called by:
  3271 ;;		_gpio_pin_int
  3272 ;;		_button_int
  3273 ;;		_motor_int
  3274 ;;		_keypad_int
  3275 ;;		_relay_int
  3276 ;;		_seven_segment_int
  3277 ;;		_interrupt_rbx_int
  3278 ;;		_interrupt_intx_pin
  3279 ;; This function uses a non-reentrant model
  3280 ;;
  3281                           
  3282                           	psect	text18
  3283   001EAC                     __ptext18:
  3284                           	callstack 0
  3285   001EAC                     _gpio_pin_direction_int:
  3286                           	callstack 24
  3287   001EAC                     
  3288                           ;MCAL_Layer/GPIO/GPIO.c: 17:     if(((void*)0)!=pin_cfg)
  3289   001EAC  500C               	movf	gpio_pin_direction_int@pin_cfg^0,w,c
  3290   001EAE  100D               	iorwf	(gpio_pin_direction_int@pin_cfg+1)^0,w,c
  3291   001EB0  B4D8               	btfsc	status,2,c
  3292   001EB2  EF5D  F00F         	goto	u2871
  3293   001EB6  EF5F  F00F         	goto	u2870
  3294   001EBA                     u2871:
  3295   001EBA  EFE1  F00F         	goto	l473
  3296   001EBE                     u2870:
  3297   001EBE  EFC0  F00F         	goto	l3777
  3298   001EC2                     l3767:
  3299                           
  3300                           ;MCAL_Layer/GPIO/GPIO.c: 22:                 (*Tris_Regs[pin_cfg->port]&=~(1<<pin_cfg->p
      +                          in));
  3301   001EC2  C00C  FFD9         	movff	gpio_pin_direction_int@pin_cfg,fsr2l
  3302   001EC6  C00D  FFDA         	movff	gpio_pin_direction_int@pin_cfg+1,fsr2h
  3303   001ECA  30DF               	rrcf	223,w,c
  3304   001ECC  32E8               	rrcf	wreg,f,c
  3305   001ECE  0B07               	andlw	7
  3306   001ED0  6E0E               	movwf	??_gpio_pin_direction_int^0,c
  3307   001ED2  0E01               	movlw	1
  3308   001ED4  6E0F               	movwf	(??_gpio_pin_direction_int+1)^0,c
  3309   001ED6  2A0E               	incf	??_gpio_pin_direction_int^0,f,c
  3310   001ED8  EF70  F00F         	goto	u2884
  3311   001EDC                     u2885:
  3312   001EDC  90D8               	bcf	status,0,c
  3313   001EDE  360F               	rlcf	(??_gpio_pin_direction_int+1)^0,f,c
  3314   001EE0                     u2884:
  3315   001EE0  2E0E               	decfsz	??_gpio_pin_direction_int^0,f,c
  3316   001EE2  EF6E  F00F         	goto	u2885
  3317   001EE6  500F               	movf	(??_gpio_pin_direction_int+1)^0,w,c
  3318   001EE8  0AFF               	xorlw	255
  3319   001EEA  6E10               	movwf	(??_gpio_pin_direction_int+2)^0,c
  3320   001EEC  C00C  FFD9         	movff	gpio_pin_direction_int@pin_cfg,fsr2l
  3321   001EF0  C00D  FFDA         	movff	gpio_pin_direction_int@pin_cfg+1,fsr2h
  3322   001EF4  38DF               	swapf	223,w,c
  3323   001EF6  32E8               	rrcf	wreg,f,c
  3324   001EF8  0B07               	andlw	7
  3325   001EFA  6E11               	movwf	(??_gpio_pin_direction_int+3)^0,c
  3326   001EFC  5011               	movf	(??_gpio_pin_direction_int+3)^0,w,c
  3327   001EFE  0D02               	mullw	2
  3328   001F00  0ECD               	movlw	low _Tris_Regs
  3329   001F02  24F3               	addwf	243,w,c
  3330   001F04  6ED9               	movwf	fsr2l,c
  3331   001F06  0E00               	movlw	high _Tris_Regs
  3332   001F08  20F4               	addwfc	prodh,w,c
  3333   001F0A  6EDA               	movwf	fsr2h,c
  3334   001F0C  CFDE F012          	movff	postinc2,??_gpio_pin_direction_int+4
  3335   001F10  CFDD F013          	movff	postdec2,??_gpio_pin_direction_int+5
  3336   001F14  C012  FFD9         	movff	??_gpio_pin_direction_int+4,fsr2l
  3337   001F18  C013  FFDA         	movff	??_gpio_pin_direction_int+5,fsr2h
  3338   001F1C  5010               	movf	(??_gpio_pin_direction_int+2)^0,w,c
  3339   001F1E  16DF               	andwf	indf2,f,c
  3340   001F20                     l3769:
  3341                           
  3342                           ;MCAL_Layer/GPIO/GPIO.c: 24:                 break;
  3343   001F20  EFE1  F00F         	goto	l473
  3344   001F24                     l3771:
  3345                           
  3346                           ;MCAL_Layer/GPIO/GPIO.c: 27:                 (*Tris_Regs[pin_cfg->port]|=(1<<pin_cfg->pi
      +                          n));
  3347   001F24  C00C  FFD9         	movff	gpio_pin_direction_int@pin_cfg,fsr2l
  3348   001F28  C00D  FFDA         	movff	gpio_pin_direction_int@pin_cfg+1,fsr2h
  3349   001F2C  30DF               	rrcf	223,w,c
  3350   001F2E  32E8               	rrcf	wreg,f,c
  3351   001F30  0B07               	andlw	7
  3352   001F32  6E0E               	movwf	??_gpio_pin_direction_int^0,c
  3353   001F34  0E01               	movlw	1
  3354   001F36  6E0F               	movwf	(??_gpio_pin_direction_int+1)^0,c
  3355   001F38  2A0E               	incf	??_gpio_pin_direction_int^0,f,c
  3356   001F3A  EFA1  F00F         	goto	u2894
  3357   001F3E                     u2895:
  3358   001F3E  90D8               	bcf	status,0,c
  3359   001F40  360F               	rlcf	(??_gpio_pin_direction_int+1)^0,f,c
  3360   001F42                     u2894:
  3361   001F42  2E0E               	decfsz	??_gpio_pin_direction_int^0,f,c
  3362   001F44  EF9F  F00F         	goto	u2895
  3363   001F48  C00C  FFD9         	movff	gpio_pin_direction_int@pin_cfg,fsr2l
  3364   001F4C  C00D  FFDA         	movff	gpio_pin_direction_int@pin_cfg+1,fsr2h
  3365   001F50  38DF               	swapf	223,w,c
  3366   001F52  32E8               	rrcf	wreg,f,c
  3367   001F54  0B07               	andlw	7
  3368   001F56  6E10               	movwf	(??_gpio_pin_direction_int+2)^0,c
  3369   001F58  5010               	movf	(??_gpio_pin_direction_int+2)^0,w,c
  3370   001F5A  0D02               	mullw	2
  3371   001F5C  0ECD               	movlw	low _Tris_Regs
  3372   001F5E  24F3               	addwf	243,w,c
  3373   001F60  6ED9               	movwf	fsr2l,c
  3374   001F62  0E00               	movlw	high _Tris_Regs
  3375   001F64  20F4               	addwfc	prodh,w,c
  3376   001F66  6EDA               	movwf	fsr2h,c
  3377   001F68  CFDE F011          	movff	postinc2,??_gpio_pin_direction_int+3
  3378   001F6C  CFDD F012          	movff	postdec2,??_gpio_pin_direction_int+4
  3379   001F70  C011  FFD9         	movff	??_gpio_pin_direction_int+3,fsr2l
  3380   001F74  C012  FFDA         	movff	??_gpio_pin_direction_int+4,fsr2h
  3381   001F78  500F               	movf	(??_gpio_pin_direction_int+1)^0,w,c
  3382   001F7A  12DF               	iorwf	indf2,f,c
  3383   001F7C  EF90  F00F         	goto	l3769
  3384   001F80                     l3777:
  3385   001F80  C00C  FFD9         	movff	gpio_pin_direction_int@pin_cfg,fsr2l
  3386   001F84  C00D  FFDA         	movff	gpio_pin_direction_int@pin_cfg+1,fsr2h
  3387   001F88  B0DF               	btfsc	indf2,0,c
  3388   001F8A  EFC9  F00F         	goto	u2901
  3389   001F8E  EFCC  F00F         	goto	u2900
  3390   001F92                     u2901:
  3391   001F92  0E01               	movlw	1
  3392   001F94  EFCD  F00F         	goto	u2910
  3393   001F98                     u2900:
  3394   001F98  0E00               	movlw	0
  3395   001F9A                     u2910:
  3396   001F9A  6E0E               	movwf	??_gpio_pin_direction_int^0,c
  3397   001F9C  6A0F               	clrf	(??_gpio_pin_direction_int+1)^0,c
  3398                           
  3399                           ; Switch on 2 bytes has been partitioned into a top level switch of size 1, and 1 sub-sw
      +                          itches
  3400                           ; Switch size 1, requested type "simple"
  3401                           ; Number of cases is 1, Range of values is 0 to 0
  3402                           ; switch strategies available:
  3403                           ; Name         Instructions Cycles
  3404                           ; simple_byte            4     3 (average)
  3405                           ;	Chosen strategy is simple_byte
  3406   001F9E  500F               	movf	(??_gpio_pin_direction_int+1)^0,w,c
  3407   001FA0  0A00               	xorlw	0	; case 0
  3408   001FA2  B4D8               	btfsc	status,2,c
  3409   001FA4  EFD6  F00F         	goto	l5851
  3410   001FA8  EFE1  F00F         	goto	l473
  3411   001FAC                     l5851:
  3412                           
  3413                           ; Switch size 1, requested type "simple"
  3414                           ; Number of cases is 2, Range of values is 0 to 1
  3415                           ; switch strategies available:
  3416                           ; Name         Instructions Cycles
  3417                           ; simple_byte            7     4 (average)
  3418                           ;	Chosen strategy is simple_byte
  3419   001FAC  500E               	movf	??_gpio_pin_direction_int^0,w,c
  3420   001FAE  0A00               	xorlw	0	; case 0
  3421   001FB0  B4D8               	btfsc	status,2,c
  3422   001FB2  EF61  F00F         	goto	l3767
  3423   001FB6  0A01               	xorlw	1	; case 1
  3424   001FB8  B4D8               	btfsc	status,2,c
  3425   001FBA  EF92  F00F         	goto	l3771
  3426   001FBE  EFE1  F00F         	goto	l473
  3427   001FC2                     l473:
  3428   001FC2  0012               	return		;funcret
  3429   001FC4                     __end_of_gpio_pin_direction_int:
  3430                           	callstack 0
  3431                           
  3432 ;; *************** function _chr_lcd_4_send_cmd *****************
  3433 ;; Defined at:
  3434 ;;		line 38 in file "ECU_Layer/chr_lcd/chr_lcd.c"
  3435 ;; Parameters:    Size  Location     Type
  3436 ;;  lcd             2   28[COMRAM] PTR const struct .
  3437 ;;		 -> lcd(6), 
  3438 ;;  cmd             1   30[COMRAM] unsigned char 
  3439 ;; Auto vars:     Size  Location     Type
  3440 ;;  return_statu    1    0        unsigned char 
  3441 ;; Return value:  Size  Location     Type
  3442 ;;                  1    wreg      unsigned char 
  3443 ;; Registers used:
  3444 ;;		wreg, fsr2l, fsr2h, status,2, status,0, prodl, prodh, cstack
  3445 ;; Tracked objects:
  3446 ;;		On entry : 0/0
  3447 ;;		On exit  : 0/0
  3448 ;;		Unchanged: 0/0
  3449 ;; Data sizes:     COMRAM   BANK0   BANK1   BANK2   BANK3   BANK4   BANK5   BANK6   BANK7   BANK8   BANK9  BANK10  BANK1
      +1  BANK12  BANK13  BANK14  BANK15
  3450 ;;      Params:         3       0       0       0       0       0       0       0       0       0       0       0       
      +0       0       0       0       0
  3451 ;;      Locals:         0       0       0       0       0       0       0       0       0       0       0       0       
      +0       0       0       0       0
  3452 ;;      Temps:          0       0       0       0       0       0       0       0       0       0       0       0       
      +0       0       0       0       0
  3453 ;;      Totals:         3       0       0       0       0       0       0       0       0       0       0       0       
      +0       0       0       0       0
  3454 ;;Total ram usage:        3 bytes
  3455 ;; Hardware stack levels used: 1
  3456 ;; Hardware stack levels required when called: 6
  3457 ;; This function calls:
  3458 ;;		_gpio_pin_write_level
  3459 ;;		_lcd_send_4_bit
  3460 ;;		_lcd_send_4_bit_enable
  3461 ;; This function is called by:
  3462 ;;		_chr_lcd_4_int
  3463 ;;		_lcd_4_bit_pos
  3464 ;;		_main
  3465 ;;		_chr_lcd_4_send_custom_char
  3466 ;; This function uses a non-reentrant model
  3467 ;;
  3468                           
  3469                           	psect	text19
  3470   002AF0                     __ptext19:
  3471                           	callstack 0
  3472   002AF0                     _chr_lcd_4_send_cmd:
  3473                           	callstack 22
  3474   002AF0                     
  3475                           ;ECU_Layer/chr_lcd/chr_lcd.c: 41:     if(((void*)0)!=lcd){
  3476   002AF0  501D               	movf	chr_lcd_4_send_cmd@lcd^0,w,c
  3477   002AF2  101E               	iorwf	(chr_lcd_4_send_cmd@lcd+1)^0,w,c
  3478   002AF4  B4D8               	btfsc	status,2,c
  3479   002AF6  EF7F  F015         	goto	u2921
  3480   002AFA  EF81  F015         	goto	u2920
  3481   002AFE                     u2921:
  3482   002AFE  EFA6  F015         	goto	l55
  3483   002B02                     u2920:
  3484   002B02                     
  3485                           ;ECU_Layer/chr_lcd/chr_lcd.c: 42:         gpio_pin_write_level(&(lcd->chr_lcd_rs_pin),GP
      +                          IO_LOW);
  3486   002B02  C01D  F00C         	movff	chr_lcd_4_send_cmd@lcd,gpio_pin_write_level@pin_cfg
  3487   002B06  C01E  F00D         	movff	chr_lcd_4_send_cmd@lcd+1,gpio_pin_write_level@pin_cfg+1
  3488   002B0A  0E00               	movlw	0
  3489   002B0C  6E0E               	movwf	gpio_pin_write_level@level^0,c
  3490   002B0E  ECEF  F010         	call	_gpio_pin_write_level	;wreg free
  3491                           
  3492                           ;ECU_Layer/chr_lcd/chr_lcd.c: 43:         lcd_send_4_bit(lcd,cmd>>4);
  3493   002B12  C01D  F015         	movff	chr_lcd_4_send_cmd@lcd,lcd_send_4_bit@lcd
  3494   002B16  C01E  F016         	movff	chr_lcd_4_send_cmd@lcd+1,lcd_send_4_bit@lcd+1
  3495   002B1A  381F               	swapf	chr_lcd_4_send_cmd@cmd^0,w,c
  3496   002B1C  0B0F               	andlw	15
  3497   002B1E  6E17               	movwf	lcd_send_4_bit@_data_command^0,c
  3498   002B20  EC17  F015         	call	_lcd_send_4_bit	;wreg free
  3499                           
  3500                           ;ECU_Layer/chr_lcd/chr_lcd.c: 44:         lcd_send_4_bit_enable(lcd);
  3501   002B24  C01D  F015         	movff	chr_lcd_4_send_cmd@lcd,lcd_send_4_bit_enable@lcd
  3502   002B28  C01E  F016         	movff	chr_lcd_4_send_cmd@lcd+1,lcd_send_4_bit_enable@lcd+1
  3503   002B2C  EC6D  F016         	call	_lcd_send_4_bit_enable	;wreg free
  3504                           
  3505                           ;ECU_Layer/chr_lcd/chr_lcd.c: 45:         lcd_send_4_bit(lcd,cmd);
  3506   002B30  C01D  F015         	movff	chr_lcd_4_send_cmd@lcd,lcd_send_4_bit@lcd
  3507   002B34  C01E  F016         	movff	chr_lcd_4_send_cmd@lcd+1,lcd_send_4_bit@lcd+1
  3508   002B38  C01F  F017         	movff	chr_lcd_4_send_cmd@cmd,lcd_send_4_bit@_data_command
  3509   002B3C  EC17  F015         	call	_lcd_send_4_bit	;wreg free
  3510                           
  3511                           ;ECU_Layer/chr_lcd/chr_lcd.c: 46:         lcd_send_4_bit_enable(lcd);
  3512   002B40  C01D  F015         	movff	chr_lcd_4_send_cmd@lcd,lcd_send_4_bit_enable@lcd
  3513   002B44  C01E  F016         	movff	chr_lcd_4_send_cmd@lcd+1,lcd_send_4_bit_enable@lcd+1
  3514   002B48  EC6D  F016         	call	_lcd_send_4_bit_enable	;wreg free
  3515   002B4C                     l55:
  3516   002B4C  0012               	return		;funcret
  3517   002B4E                     __end_of_chr_lcd_4_send_cmd:
  3518                           	callstack 0
  3519                           
  3520 ;; *************** function _lcd_send_4_bit_enable *****************
  3521 ;; Defined at:
  3522 ;;		line 251 in file "ECU_Layer/chr_lcd/chr_lcd.c"
  3523 ;; Parameters:    Size  Location     Type
  3524 ;;  lcd             2   20[COMRAM] PTR const struct .
  3525 ;;		 -> lcd(6), 
  3526 ;; Auto vars:     Size  Location     Type
  3527 ;;		None
  3528 ;; Return value:  Size  Location     Type
  3529 ;;                  1    wreg      void 
  3530 ;; Registers used:
  3531 ;;		wreg, fsr2l, fsr2h, status,2, status,0, prodl, prodh, cstack
  3532 ;; Tracked objects:
  3533 ;;		On entry : 0/0
  3534 ;;		On exit  : 0/0
  3535 ;;		Unchanged: 0/0
  3536 ;; Data sizes:     COMRAM   BANK0   BANK1   BANK2   BANK3   BANK4   BANK5   BANK6   BANK7   BANK8   BANK9  BANK10  BANK1
      +1  BANK12  BANK13  BANK14  BANK15
  3537 ;;      Params:         2       0       0       0       0       0       0       0       0       0       0       0       
      +0       0       0       0       0
  3538 ;;      Locals:         0       0       0       0       0       0       0       0       0       0       0       0       
      +0       0       0       0       0
  3539 ;;      Temps:          0       0       0       0       0       0       0       0       0       0       0       0       
      +0       0       0       0       0
  3540 ;;      Totals:         2       0       0       0       0       0       0       0       0       0       0       0       
      +0       0       0       0       0
  3541 ;;Total ram usage:        2 bytes
  3542 ;; Hardware stack levels used: 1
  3543 ;; Hardware stack levels required when called: 5
  3544 ;; This function calls:
  3545 ;;		_gpio_pin_write_level
  3546 ;; This function is called by:
  3547 ;;		_chr_lcd_4_send_cmd
  3548 ;;		_chr_lcd_4_send_char
  3549 ;;		_chr_lcd_4_send_char_pos
  3550 ;; This function uses a non-reentrant model
  3551 ;;
  3552                           
  3553                           	psect	text20
  3554   002CDA                     __ptext20:
  3555                           	callstack 0
  3556   002CDA                     _lcd_send_4_bit_enable:
  3557                           	callstack 22
  3558   002CDA                     
  3559                           ;ECU_Layer/chr_lcd/chr_lcd.c: 252:     if(((void*)0)!=lcd){
  3560   002CDA  5015               	movf	lcd_send_4_bit_enable@lcd^0,w,c
  3561   002CDC  1016               	iorwf	(lcd_send_4_bit_enable@lcd+1)^0,w,c
  3562   002CDE  B4D8               	btfsc	status,2,c
  3563   002CE0  EF74  F016         	goto	u2841
  3564   002CE4  EF76  F016         	goto	u2840
  3565   002CE8                     u2841:
  3566   002CE8  EF8E  F016         	goto	l137
  3567   002CEC                     u2840:
  3568   002CEC                     
  3569                           ;ECU_Layer/chr_lcd/chr_lcd.c: 253:         gpio_pin_write_level(&(lcd->chr_lcd_e_pin),GP
      +                          IO_HIGH);
  3570   002CEC  0E01               	movlw	1
  3571   002CEE  2415               	addwf	lcd_send_4_bit_enable@lcd^0,w,c
  3572   002CF0  6E0C               	movwf	gpio_pin_write_level@pin_cfg^0,c
  3573   002CF2  0E00               	movlw	0
  3574   002CF4  2016               	addwfc	(lcd_send_4_bit_enable@lcd+1)^0,w,c
  3575   002CF6  6E0D               	movwf	(gpio_pin_write_level@pin_cfg+1)^0,c
  3576   002CF8  0E01               	movlw	1
  3577   002CFA  6E0E               	movwf	gpio_pin_write_level@level^0,c
  3578   002CFC  ECEF  F010         	call	_gpio_pin_write_level	;wreg free
  3579   002D00                     
  3580                           ;ECU_Layer/chr_lcd/chr_lcd.c: 254:         _delay((unsigned long)((5)*(8000000UL/4000000
      +                          .0)));
  3581   002D00  0E03               	movlw	3
  3582   002D02                     u5397:
  3583   002D02  2EE8               	decfsz	wreg,f,c
  3584   002D04  D7FE               	bra	u5397
  3585   002D06  F000               	nop	
  3586   002D08                     
  3587                           ;ECU_Layer/chr_lcd/chr_lcd.c: 255:         gpio_pin_write_level(&(lcd->chr_lcd_e_pin),GP
      +                          IO_LOW);
  3588   002D08  0E01               	movlw	1
  3589   002D0A  2415               	addwf	lcd_send_4_bit_enable@lcd^0,w,c
  3590   002D0C  6E0C               	movwf	gpio_pin_write_level@pin_cfg^0,c
  3591   002D0E  0E00               	movlw	0
  3592   002D10  2016               	addwfc	(lcd_send_4_bit_enable@lcd+1)^0,w,c
  3593   002D12  6E0D               	movwf	(gpio_pin_write_level@pin_cfg+1)^0,c
  3594   002D14  0E00               	movlw	0
  3595   002D16  6E0E               	movwf	gpio_pin_write_level@level^0,c
  3596   002D18  ECEF  F010         	call	_gpio_pin_write_level	;wreg free
  3597   002D1C                     l137:
  3598   002D1C  0012               	return		;funcret
  3599   002D1E                     __end_of_lcd_send_4_bit_enable:
  3600                           	callstack 0
  3601                           
  3602 ;; *************** function _lcd_send_4_bit *****************
  3603 ;; Defined at:
  3604 ;;		line 240 in file "ECU_Layer/chr_lcd/chr_lcd.c"
  3605 ;; Parameters:    Size  Location     Type
  3606 ;;  lcd             2   20[COMRAM] PTR const struct .
  3607 ;;		 -> lcd(6), 
  3608 ;;  _data_comman    1   22[COMRAM] unsigned char 
  3609 ;; Auto vars:     Size  Location     Type
  3610 ;;  i               1   27[COMRAM] unsigned char 
  3611 ;; Return value:  Size  Location     Type
  3612 ;;                  1    wreg      void 
  3613 ;; Registers used:
  3614 ;;		wreg, fsr2l, fsr2h, status,2, status,0, prodl, prodh, cstack
  3615 ;; Tracked objects:
  3616 ;;		On entry : 0/0
  3617 ;;		On exit  : 0/0
  3618 ;;		Unchanged: 0/0
  3619 ;; Data sizes:     COMRAM   BANK0   BANK1   BANK2   BANK3   BANK4   BANK5   BANK6   BANK7   BANK8   BANK9  BANK10  BANK1
      +1  BANK12  BANK13  BANK14  BANK15
  3620 ;;      Params:         3       0       0       0       0       0       0       0       0       0       0       0       
      +0       0       0       0       0
  3621 ;;      Locals:         1       0       0       0       0       0       0       0       0       0       0       0       
      +0       0       0       0       0
  3622 ;;      Temps:          4       0       0       0       0       0       0       0       0       0       0       0       
      +0       0       0       0       0
  3623 ;;      Totals:         8       0       0       0       0       0       0       0       0       0       0       0       
      +0       0       0       0       0
  3624 ;;Total ram usage:        8 bytes
  3625 ;; Hardware stack levels used: 1
  3626 ;; Hardware stack levels required when called: 5
  3627 ;; This function calls:
  3628 ;;		_gpio_pin_write_level
  3629 ;; This function is called by:
  3630 ;;		_chr_lcd_4_send_cmd
  3631 ;;		_chr_lcd_4_send_char
  3632 ;;		_chr_lcd_4_send_char_pos
  3633 ;; This function uses a non-reentrant model
  3634 ;;
  3635                           
  3636                           	psect	text21
  3637   002A2E                     __ptext21:
  3638                           	callstack 0
  3639   002A2E                     _lcd_send_4_bit:
  3640                           	callstack 22
  3641   002A2E                     
  3642                           ;ECU_Layer/chr_lcd/chr_lcd.c: 241:     if(((void*)0)!=lcd){
  3643   002A2E  5015               	movf	lcd_send_4_bit@lcd^0,w,c
  3644   002A30  1016               	iorwf	(lcd_send_4_bit@lcd+1)^0,w,c
  3645   002A32  B4D8               	btfsc	status,2,c
  3646   002A34  EF1E  F015         	goto	u2811
  3647   002A38  EF20  F015         	goto	u2810
  3648   002A3C                     u2811:
  3649   002A3C  EF48  F015         	goto	l133
  3650   002A40                     u2810:
  3651   002A40                     
  3652                           ;ECU_Layer/chr_lcd/chr_lcd.c: 242:         for(uint8 i=0;i<4;i++){
  3653   002A40  0E00               	movlw	0
  3654   002A42  6E1C               	movwf	lcd_send_4_bit@i^0,c
  3655   002A44                     l3711:
  3656                           
  3657                           ;ECU_Layer/chr_lcd/chr_lcd.c: 243:             gpio_pin_write_level(&(lcd->data_pin[i]),
      +                          (_data_command>>i)&0x01);
  3658   002A44  501C               	movf	lcd_send_4_bit@i^0,w,c
  3659   002A46  2415               	addwf	lcd_send_4_bit@lcd^0,w,c
  3660   002A48  6E18               	movwf	??_lcd_send_4_bit^0,c
  3661   002A4A  0E00               	movlw	0
  3662   002A4C  2016               	addwfc	(lcd_send_4_bit@lcd+1)^0,w,c
  3663   002A4E  6E19               	movwf	(??_lcd_send_4_bit+1)^0,c
  3664   002A50  0E02               	movlw	2
  3665   002A52  2418               	addwf	??_lcd_send_4_bit^0,w,c
  3666   002A54  6E0C               	movwf	gpio_pin_write_level@pin_cfg^0,c
  3667   002A56  0E00               	movlw	0
  3668   002A58  2019               	addwfc	(??_lcd_send_4_bit+1)^0,w,c
  3669   002A5A  6E0D               	movwf	(gpio_pin_write_level@pin_cfg+1)^0,c
  3670   002A5C  C01C  F01A         	movff	lcd_send_4_bit@i,??_lcd_send_4_bit+2
  3671   002A60  C017  F01B         	movff	lcd_send_4_bit@_data_command,??_lcd_send_4_bit+3
  3672   002A64  2A1A               	incf	(??_lcd_send_4_bit+2)^0,f,c
  3673   002A66  EF37  F015         	goto	u2824
  3674   002A6A                     u2825:
  3675   002A6A  90D8               	bcf	status,0,c
  3676   002A6C  321B               	rrcf	(??_lcd_send_4_bit+3)^0,f,c
  3677   002A6E                     u2824:
  3678   002A6E  2E1A               	decfsz	(??_lcd_send_4_bit+2)^0,f,c
  3679   002A70  EF35  F015         	goto	u2825
  3680   002A74  501B               	movf	(??_lcd_send_4_bit+3)^0,w,c
  3681   002A76  0B01               	andlw	1
  3682   002A78  6E0E               	movwf	gpio_pin_write_level@level^0,c
  3683   002A7A  ECEF  F010         	call	_gpio_pin_write_level	;wreg free
  3684   002A7E                     
  3685                           ;ECU_Layer/chr_lcd/chr_lcd.c: 244:         }
  3686   002A7E  2A1C               	incf	lcd_send_4_bit@i^0,f,c
  3687   002A80  0E03               	movlw	3
  3688   002A82  641C               	cpfsgt	lcd_send_4_bit@i^0,c
  3689   002A84  EF46  F015         	goto	u2831
  3690   002A88  EF48  F015         	goto	u2830
  3691   002A8C                     u2831:
  3692   002A8C  EF22  F015         	goto	l3711
  3693   002A90                     u2830:
  3694   002A90                     l133:
  3695   002A90  0012               	return		;funcret
  3696   002A92                     __end_of_lcd_send_4_bit:
  3697                           	callstack 0
  3698                           
  3699 ;; *************** function _gpio_pin_write_level *****************
  3700 ;; Defined at:
  3701 ;;		line 67 in file "MCAL_Layer/GPIO/GPIO.c"
  3702 ;; Parameters:    Size  Location     Type
  3703 ;;  pin_cfg         2   11[COMRAM] PTR const struct .
  3704 ;;		 -> lcd.data_pin(4), lcd(6), relay_off@relay_pin(1), relay_on@relay_pin(1), 
  3705 ;;		 -> relay_int@relay_pin(1), led_off@pin_cfg(1), led_on@pin_cfg(1), led_int@pin_cfg(1), 
  3706 ;;  level           1   13[COMRAM] enum E2974
  3707 ;; Auto vars:     Size  Location     Type
  3708 ;;  return_statu    1    0        unsigned char 
  3709 ;; Return value:  Size  Location     Type
  3710 ;;                  1    wreg      unsigned char 
  3711 ;; Registers used:
  3712 ;;		wreg, fsr2l, fsr2h, status,2, status,0, prodl, prodh
  3713 ;; Tracked objects:
  3714 ;;		On entry : 0/0
  3715 ;;		On exit  : 0/0
  3716 ;;		Unchanged: 0/0
  3717 ;; Data sizes:     COMRAM   BANK0   BANK1   BANK2   BANK3   BANK4   BANK5   BANK6   BANK7   BANK8   BANK9  BANK10  BANK1
      +1  BANK12  BANK13  BANK14  BANK15
  3718 ;;      Params:         3       0       0       0       0       0       0       0       0       0       0       0       
      +0       0       0       0       0
  3719 ;;      Locals:         0       0       0       0       0       0       0       0       0       0       0       0       
      +0       0       0       0       0
  3720 ;;      Temps:          6       0       0       0       0       0       0       0       0       0       0       0       
      +0       0       0       0       0
  3721 ;;      Totals:         9       0       0       0       0       0       0       0       0       0       0       0       
      +0       0       0       0       0
  3722 ;;Total ram usage:        9 bytes
  3723 ;; Hardware stack levels used: 1
  3724 ;; Hardware stack levels required when called: 4
  3725 ;; This function calls:
  3726 ;;		Nothing
  3727 ;; This function is called by:
  3728 ;;		_chr_lcd_4_send_cmd
  3729 ;;		_chr_lcd_4_send_char
  3730 ;;		_lcd_send_4_bit
  3731 ;;		_lcd_send_4_bit_enable
  3732 ;;		_gpio_pin_int
  3733 ;;		_chr_lcd_4_send_char_pos
  3734 ;;		_chr_lcd_8_send_cmd
  3735 ;;		_chr_lcd_8_send_char
  3736 ;;		_chr_lcd_8_send_char_pos
  3737 ;;		_lcd_send_8_bit_enable
  3738 ;;		_motor_int
  3739 ;;		_motor_right
  3740 ;;		_motor_left
  3741 ;;		_motor_stop
  3742 ;;		_keypad_get_value
  3743 ;;		_led_on
  3744 ;;		_led_off
  3745 ;;		_relay_int
  3746 ;;		_relay_on
  3747 ;;		_relay_off
  3748 ;;		_seven_segment_int
  3749 ;;		_seven_segment_write_number
  3750 ;; This function uses a non-reentrant model
  3751 ;;
  3752                           
  3753                           	psect	text22
  3754   0021DE                     __ptext22:
  3755                           	callstack 0
  3756   0021DE                     _gpio_pin_write_level:
  3757                           	callstack 22
  3758   0021DE                     
  3759                           ;MCAL_Layer/GPIO/GPIO.c: 71:     if(((void*)0)!=pin_cfg)
  3760   0021DE  500C               	movf	gpio_pin_write_level@pin_cfg^0,w,c
  3761   0021E0  100D               	iorwf	(gpio_pin_write_level@pin_cfg+1)^0,w,c
  3762   0021E2  B4D8               	btfsc	status,2,c
  3763   0021E4  EFF6  F010         	goto	u2741
  3764   0021E8  EFF8  F010         	goto	u2740
  3765   0021EC                     u2741:
  3766   0021EC  EF6E  F011         	goto	l485
  3767   0021F0                     u2740:
  3768   0021F0  EF59  F011         	goto	l3669
  3769   0021F4                     l3661:
  3770                           
  3771                           ;MCAL_Layer/GPIO/GPIO.c: 77:                  (*(Lat_Regs[pin_cfg->port])|=(1<<pin_cfg->
      +                          pin));
  3772   0021F4  C00C  FFD9         	movff	gpio_pin_write_level@pin_cfg,fsr2l
  3773   0021F8  C00D  FFDA         	movff	gpio_pin_write_level@pin_cfg+1,fsr2h
  3774   0021FC  30DF               	rrcf	223,w,c
  3775   0021FE  32E8               	rrcf	wreg,f,c
  3776   002200  0B07               	andlw	7
  3777   002202  6E0F               	movwf	??_gpio_pin_write_level^0,c
  3778   002204  0E01               	movlw	1
  3779   002206  6E10               	movwf	(??_gpio_pin_write_level+1)^0,c
  3780   002208  2A0F               	incf	??_gpio_pin_write_level^0,f,c
  3781   00220A  EF09  F011         	goto	u2754
  3782   00220E                     u2755:
  3783   00220E  90D8               	bcf	status,0,c
  3784   002210  3610               	rlcf	(??_gpio_pin_write_level+1)^0,f,c
  3785   002212                     u2754:
  3786   002212  2E0F               	decfsz	??_gpio_pin_write_level^0,f,c
  3787   002214  EF07  F011         	goto	u2755
  3788   002218  C00C  FFD9         	movff	gpio_pin_write_level@pin_cfg,fsr2l
  3789   00221C  C00D  FFDA         	movff	gpio_pin_write_level@pin_cfg+1,fsr2h
  3790   002220  38DF               	swapf	223,w,c
  3791   002222  32E8               	rrcf	wreg,f,c
  3792   002224  0B07               	andlw	7
  3793   002226  6E11               	movwf	(??_gpio_pin_write_level+2)^0,c
  3794   002228  5011               	movf	(??_gpio_pin_write_level+2)^0,w,c
  3795   00222A  0D02               	mullw	2
  3796   00222C  0ED7               	movlw	low _Lat_Regs
  3797   00222E  24F3               	addwf	243,w,c
  3798   002230  6ED9               	movwf	fsr2l,c
  3799   002232  0E00               	movlw	high _Lat_Regs
  3800   002234  20F4               	addwfc	prodh,w,c
  3801   002236  6EDA               	movwf	fsr2h,c
  3802   002238  CFDE F012          	movff	postinc2,??_gpio_pin_write_level+3
  3803   00223C  CFDD F013          	movff	postdec2,??_gpio_pin_write_level+4
  3804   002240  C012  FFD9         	movff	??_gpio_pin_write_level+3,fsr2l
  3805   002244  C013  FFDA         	movff	??_gpio_pin_write_level+4,fsr2h
  3806   002248  5010               	movf	(??_gpio_pin_write_level+1)^0,w,c
  3807   00224A  12DF               	iorwf	indf2,f,c
  3808                           
  3809                           ;MCAL_Layer/GPIO/GPIO.c: 79:                 break;
  3810   00224C  EF6E  F011         	goto	l485
  3811   002250                     l3663:
  3812                           
  3813                           ;MCAL_Layer/GPIO/GPIO.c: 82:                 (*Lat_Regs[pin_cfg->port]&=~(1<<pin_cfg->pi
      +                          n));
  3814   002250  C00C  FFD9         	movff	gpio_pin_write_level@pin_cfg,fsr2l
  3815   002254  C00D  FFDA         	movff	gpio_pin_write_level@pin_cfg+1,fsr2h
  3816   002258  30DF               	rrcf	223,w,c
  3817   00225A  32E8               	rrcf	wreg,f,c
  3818   00225C  0B07               	andlw	7
  3819   00225E  6E0F               	movwf	??_gpio_pin_write_level^0,c
  3820   002260  0E01               	movlw	1
  3821   002262  6E10               	movwf	(??_gpio_pin_write_level+1)^0,c
  3822   002264  2A0F               	incf	??_gpio_pin_write_level^0,f,c
  3823   002266  EF37  F011         	goto	u2764
  3824   00226A                     u2765:
  3825   00226A  90D8               	bcf	status,0,c
  3826   00226C  3610               	rlcf	(??_gpio_pin_write_level+1)^0,f,c
  3827   00226E                     u2764:
  3828   00226E  2E0F               	decfsz	??_gpio_pin_write_level^0,f,c
  3829   002270  EF35  F011         	goto	u2765
  3830   002274  5010               	movf	(??_gpio_pin_write_level+1)^0,w,c
  3831   002276  0AFF               	xorlw	255
  3832   002278  6E11               	movwf	(??_gpio_pin_write_level+2)^0,c
  3833   00227A  C00C  FFD9         	movff	gpio_pin_write_level@pin_cfg,fsr2l
  3834   00227E  C00D  FFDA         	movff	gpio_pin_write_level@pin_cfg+1,fsr2h
  3835   002282  38DF               	swapf	223,w,c
  3836   002284  32E8               	rrcf	wreg,f,c
  3837   002286  0B07               	andlw	7
  3838   002288  6E12               	movwf	(??_gpio_pin_write_level+3)^0,c
  3839   00228A  5012               	movf	(??_gpio_pin_write_level+3)^0,w,c
  3840   00228C  0D02               	mullw	2
  3841   00228E  0ED7               	movlw	low _Lat_Regs
  3842   002290  24F3               	addwf	243,w,c
  3843   002292  6ED9               	movwf	fsr2l,c
  3844   002294  0E00               	movlw	high _Lat_Regs
  3845   002296  20F4               	addwfc	prodh,w,c
  3846   002298  6EDA               	movwf	fsr2h,c
  3847   00229A  CFDE F013          	movff	postinc2,??_gpio_pin_write_level+4
  3848   00229E  CFDD F014          	movff	postdec2,??_gpio_pin_write_level+5
  3849   0022A2  C013  FFD9         	movff	??_gpio_pin_write_level+4,fsr2l
  3850   0022A6  C014  FFDA         	movff	??_gpio_pin_write_level+5,fsr2h
  3851   0022AA  5011               	movf	(??_gpio_pin_write_level+2)^0,w,c
  3852   0022AC  16DF               	andwf	indf2,f,c
  3853   0022AE                     
  3854                           ;MCAL_Layer/GPIO/GPIO.c: 84:                 break;
  3855   0022AE  EF6E  F011         	goto	l485
  3856   0022B2                     l3669:
  3857   0022B2  500E               	movf	gpio_pin_write_level@level^0,w,c
  3858   0022B4  6E0F               	movwf	??_gpio_pin_write_level^0,c
  3859   0022B6  6A10               	clrf	(??_gpio_pin_write_level+1)^0,c
  3860                           
  3861                           ; Switch on 2 bytes has been partitioned into a top level switch of size 1, and 1 sub-sw
      +                          itches
  3862                           ; Switch size 1, requested type "simple"
  3863                           ; Number of cases is 1, Range of values is 0 to 0
  3864                           ; switch strategies available:
  3865                           ; Name         Instructions Cycles
  3866                           ; simple_byte            4     3 (average)
  3867                           ;	Chosen strategy is simple_byte
  3868   0022B8  5010               	movf	(??_gpio_pin_write_level+1)^0,w,c
  3869   0022BA  0A00               	xorlw	0	; case 0
  3870   0022BC  B4D8               	btfsc	status,2,c
  3871   0022BE  EF63  F011         	goto	l5853
  3872   0022C2  EF6E  F011         	goto	l485
  3873   0022C6                     l5853:
  3874                           
  3875                           ; Switch size 1, requested type "simple"
  3876                           ; Number of cases is 2, Range of values is 0 to 1
  3877                           ; switch strategies available:
  3878                           ; Name         Instructions Cycles
  3879                           ; simple_byte            7     4 (average)
  3880                           ;	Chosen strategy is simple_byte
  3881   0022C6  500F               	movf	??_gpio_pin_write_level^0,w,c
  3882   0022C8  0A00               	xorlw	0	; case 0
  3883   0022CA  B4D8               	btfsc	status,2,c
  3884   0022CC  EF28  F011         	goto	l3663
  3885   0022D0  0A01               	xorlw	1	; case 1
  3886   0022D2  B4D8               	btfsc	status,2,c
  3887   0022D4  EFFA  F010         	goto	l3661
  3888   0022D8  EF6E  F011         	goto	l485
  3889   0022DC                     l485:
  3890   0022DC  0012               	return		;funcret
  3891   0022DE                     __end_of_gpio_pin_write_level:
  3892                           	callstack 0
  3893                           
  3894 ;; *************** function _adc_start_conversion_interrupt *****************
  3895 ;; Defined at:
  3896 ;;		line 200 in file "MCAL_Layer/ADC/ADC.c"
  3897 ;; Parameters:    Size  Location     Type
  3898 ;;  adc             2   18[COMRAM] PTR const struct .
  3899 ;;		 -> adc_1(7), 
  3900 ;;  analog_chann    1   20[COMRAM] enum E3038
  3901 ;; Auto vars:     Size  Location     Type
  3902 ;;  returt_statu    1    0        unsigned char 
  3903 ;; Return value:  Size  Location     Type
  3904 ;;                  1    wreg      unsigned char 
  3905 ;; Registers used:
  3906 ;;		wreg, status,2, status,0, cstack
  3907 ;; Tracked objects:
  3908 ;;		On entry : 0/0
  3909 ;;		On exit  : 0/0
  3910 ;;		Unchanged: 0/0
  3911 ;; Data sizes:     COMRAM   BANK0   BANK1   BANK2   BANK3   BANK4   BANK5   BANK6   BANK7   BANK8   BANK9  BANK10  BANK1
      +1  BANK12  BANK13  BANK14  BANK15
  3912 ;;      Params:         3       0       0       0       0       0       0       0       0       0       0       0       
      +0       0       0       0       0
  3913 ;;      Locals:         0       0       0       0       0       0       0       0       0       0       0       0       
      +0       0       0       0       0
  3914 ;;      Temps:          0       0       0       0       0       0       0       0       0       0       0       0       
      +0       0       0       0       0
  3915 ;;      Totals:         3       0       0       0       0       0       0       0       0       0       0       0       
      +0       0       0       0       0
  3916 ;;Total ram usage:        3 bytes
  3917 ;; Hardware stack levels used: 1
  3918 ;; Hardware stack levels required when called: 6
  3919 ;; This function calls:
  3920 ;;		_adc_select_channel
  3921 ;;		_adc_start
  3922 ;; This function is called by:
  3923 ;;		_main
  3924 ;; This function uses a non-reentrant model
  3925 ;;
  3926                           
  3927                           	psect	text23
  3928   002D96                     __ptext23:
  3929                           	callstack 0
  3930   002D96                     _adc_start_conversion_interrupt:
  3931                           	callstack 24
  3932   002D96                     
  3933                           ;MCAL_Layer/ADC/ADC.c: 203:     if(((void*)0)!=adc ){
  3934   002D96  5013               	movf	adc_start_conversion_interrupt@adc^0,w,c
  3935   002D98  1014               	iorwf	(adc_start_conversion_interrupt@adc+1)^0,w,c
  3936   002D9A  B4D8               	btfsc	status,2,c
  3937   002D9C  EFD2  F016         	goto	u3381
  3938   002DA0  EFD4  F016         	goto	u3380
  3939   002DA4                     u3381:
  3940   002DA4  EFE2  F016         	goto	l383
  3941   002DA8                     u3380:
  3942   002DA8                     
  3943                           ;MCAL_Layer/ADC/ADC.c: 205:         adc_select_channel(adc,analog_channel_select);
  3944   002DA8  C013  F00F         	movff	adc_start_conversion_interrupt@adc,adc_select_channel@adc
  3945   002DAC  C014  F010         	movff	adc_start_conversion_interrupt@adc+1,adc_select_channel@adc+1
  3946   002DB0  C015  F011         	movff	adc_start_conversion_interrupt@analog_channel_select,adc_select_channel@analog_ch
      +                          annel_select
  3947   002DB4  ECFA  F016         	call	_adc_select_channel	;wreg free
  3948                           
  3949                           ;MCAL_Layer/ADC/ADC.c: 208:         adc_start(adc);
  3950   002DB8  C013  F00C         	movff	adc_start_conversion_interrupt@adc,adc_start@adc
  3951   002DBC  C014  F00D         	movff	adc_start_conversion_interrupt@adc+1,adc_start@adc+1
  3952   002DC0  EC44  F017         	call	_adc_start	;wreg free
  3953   002DC4                     l383:
  3954   002DC4  0012               	return		;funcret
  3955   002DC6                     __end_of_adc_start_conversion_interrupt:
  3956                           	callstack 0
  3957                           
  3958 ;; *************** function _adc_start *****************
  3959 ;; Defined at:
  3960 ;;		line 92 in file "MCAL_Layer/ADC/ADC.c"
  3961 ;; Parameters:    Size  Location     Type
  3962 ;;  adc             2   11[COMRAM] PTR const struct .
  3963 ;;		 -> adc_1(7), 
  3964 ;; Auto vars:     Size  Location     Type
  3965 ;;  returt_statu    1    0        unsigned char 
  3966 ;; Return value:  Size  Location     Type
  3967 ;;                  1    wreg      unsigned char 
  3968 ;; Registers used:
  3969 ;;		wreg, status,2, status,0
  3970 ;; Tracked objects:
  3971 ;;		On entry : 0/0
  3972 ;;		On exit  : 0/0
  3973 ;;		Unchanged: 0/0
  3974 ;; Data sizes:     COMRAM   BANK0   BANK1   BANK2   BANK3   BANK4   BANK5   BANK6   BANK7   BANK8   BANK9  BANK10  BANK1
      +1  BANK12  BANK13  BANK14  BANK15
  3975 ;;      Params:         2       0       0       0       0       0       0       0       0       0       0       0       
      +0       0       0       0       0
  3976 ;;      Locals:         0       0       0       0       0       0       0       0       0       0       0       0       
      +0       0       0       0       0
  3977 ;;      Temps:          0       0       0       0       0       0       0       0       0       0       0       0       
      +0       0       0       0       0
  3978 ;;      Totals:         2       0       0       0       0       0       0       0       0       0       0       0       
      +0       0       0       0       0
  3979 ;;Total ram usage:        2 bytes
  3980 ;; Hardware stack levels used: 1
  3981 ;; Hardware stack levels required when called: 4
  3982 ;; This function calls:
  3983 ;;		Nothing
  3984 ;; This function is called by:
  3985 ;;		_adc_start_conversion_interrupt
  3986 ;;		_adc_get_conversion_blocking
  3987 ;; This function uses a non-reentrant model
  3988 ;;
  3989                           
  3990                           	psect	text24
  3991   002E88                     __ptext24:
  3992                           	callstack 0
  3993   002E88                     _adc_start:
  3994                           	callstack 25
  3995   002E88                     
  3996                           ;MCAL_Layer/ADC/ADC.c: 95:     if(((void*)0)!=adc){
  3997   002E88  500C               	movf	adc_start@adc^0,w,c
  3998   002E8A  100D               	iorwf	(adc_start@adc+1)^0,w,c
  3999   002E8C  B4D8               	btfsc	status,2,c
  4000   002E8E  EF4B  F017         	goto	u3141
  4001   002E92  EF4D  F017         	goto	u3140
  4002   002E96                     u3141:
  4003   002E96  EF4E  F017         	goto	l352
  4004   002E9A                     u3140:
  4005   002E9A                     
  4006                           ;MCAL_Layer/ADC/ADC.c: 97:         (ADCON0bits.GO_nDONE=1);
  4007   002E9A  82C2               	bsf	194,1,c	;volatile
  4008   002E9C                     l352:
  4009   002E9C  0012               	return		;funcret
  4010   002E9E                     __end_of_adc_start:
  4011                           	callstack 0
  4012                           
  4013 ;; *************** function _adc_select_channel *****************
  4014 ;; Defined at:
  4015 ;;		line 164 in file "MCAL_Layer/ADC/ADC.c"
  4016 ;; Parameters:    Size  Location     Type
  4017 ;;  adc             2   14[COMRAM] PTR const struct .
  4018 ;;		 -> adc_1(7), 
  4019 ;;  analog_chann    1   16[COMRAM] enum E3038
  4020 ;; Auto vars:     Size  Location     Type
  4021 ;;  returt_statu    1    0        unsigned char 
  4022 ;; Return value:  Size  Location     Type
  4023 ;;                  1    wreg      unsigned char 
  4024 ;; Registers used:
  4025 ;;		wreg, status,2, status,0, cstack
  4026 ;; Tracked objects:
  4027 ;;		On entry : 0/0
  4028 ;;		On exit  : 0/0
  4029 ;;		Unchanged: 0/0
  4030 ;; Data sizes:     COMRAM   BANK0   BANK1   BANK2   BANK3   BANK4   BANK5   BANK6   BANK7   BANK8   BANK9  BANK10  BANK1
      +1  BANK12  BANK13  BANK14  BANK15
  4031 ;;      Params:         3       0       0       0       0       0       0       0       0       0       0       0       
      +0       0       0       0       0
  4032 ;;      Locals:         0       0       0       0       0       0       0       0       0       0       0       0       
      +0       0       0       0       0
  4033 ;;      Temps:          1       0       0       0       0       0       0       0       0       0       0       0       
      +0       0       0       0       0
  4034 ;;      Totals:         4       0       0       0       0       0       0       0       0       0       0       0       
      +0       0       0       0       0
  4035 ;;Total ram usage:        4 bytes
  4036 ;; Hardware stack levels used: 1
  4037 ;; Hardware stack levels required when called: 5
  4038 ;; This function calls:
  4039 ;;		_adc_pin_cfg
  4040 ;; This function is called by:
  4041 ;;		_adc_start_conversion_interrupt
  4042 ;;		_adc_get_conversion_blocking
  4043 ;; This function uses a non-reentrant model
  4044 ;;
  4045                           
  4046                           	psect	text25
  4047   002DF4                     __ptext25:
  4048                           	callstack 0
  4049   002DF4                     _adc_select_channel:
  4050                           	callstack 24
  4051   002DF4                     
  4052                           ;MCAL_Layer/ADC/ADC.c: 167:     if(((void*)0)!=adc){
  4053   002DF4  500F               	movf	adc_select_channel@adc^0,w,c
  4054   002DF6  1010               	iorwf	(adc_select_channel@adc+1)^0,w,c
  4055   002DF8  B4D8               	btfsc	status,2,c
  4056   002DFA  EF01  F017         	goto	u3151
  4057   002DFE  EF03  F017         	goto	u3150
  4058   002E02                     u3151:
  4059   002E02  EF0F  F017         	goto	l372
  4060   002E06                     u3150:
  4061   002E06                     
  4062                           ;MCAL_Layer/ADC/ADC.c: 170:         ADCON0bits.CHS=analog_channel_select;
  4063   002E06  C011  F012         	movff	adc_select_channel@analog_channel_select,??_adc_select_channel
  4064   002E0A  4612               	rlncf	??_adc_select_channel^0,f,c
  4065   002E0C  4612               	rlncf	??_adc_select_channel^0,f,c
  4066   002E0E  50C2               	movf	194,w,c	;volatile
  4067   002E10  1812               	xorwf	??_adc_select_channel^0,w,c
  4068   002E12  0BC3               	andlw	-61
  4069   002E14  1812               	xorwf	??_adc_select_channel^0,w,c
  4070   002E16  6EC2               	movwf	194,c	;volatile
  4071   002E18                     
  4072                           ;MCAL_Layer/ADC/ADC.c: 172:         adc_pin_cfg(analog_channel_select);
  4073   002E18  5011               	movf	adc_select_channel@analog_channel_select^0,w,c
  4074   002E1A  ECB6  F00E         	call	_adc_pin_cfg
  4075   002E1E                     l372:
  4076   002E1E  0012               	return		;funcret
  4077   002E20                     __end_of_adc_select_channel:
  4078                           	callstack 0
  4079                           
  4080 ;; *************** function _adc_int *****************
  4081 ;; Defined at:
  4082 ;;		line 21 in file "MCAL_Layer/ADC/ADC.c"
  4083 ;; Parameters:    Size  Location     Type
  4084 ;;  adc             2   14[COMRAM] PTR const struct .
  4085 ;;		 -> adc_1(7), 
  4086 ;; Auto vars:     Size  Location     Type
  4087 ;;  returt_statu    1    0        unsigned char 
  4088 ;; Return value:  Size  Location     Type
  4089 ;;                  1    wreg      unsigned char 
  4090 ;; Registers used:
  4091 ;;		wreg, fsr2l, fsr2h, status,2, status,0, cstack
  4092 ;; Tracked objects:
  4093 ;;		On entry : 0/0
  4094 ;;		On exit  : 0/0
  4095 ;;		Unchanged: 0/0
  4096 ;; Data sizes:     COMRAM   BANK0   BANK1   BANK2   BANK3   BANK4   BANK5   BANK6   BANK7   BANK8   BANK9  BANK10  BANK1
      +1  BANK12  BANK13  BANK14  BANK15
  4097 ;;      Params:         2       0       0       0       0       0       0       0       0       0       0       0       
      +0       0       0       0       0
  4098 ;;      Locals:         0       0       0       0       0       0       0       0       0       0       0       0       
      +0       0       0       0       0
  4099 ;;      Temps:          1       0       0       0       0       0       0       0       0       0       0       0       
      +0       0       0       0       0
  4100 ;;      Totals:         3       0       0       0       0       0       0       0       0       0       0       0       
      +0       0       0       0       0
  4101 ;;Total ram usage:        3 bytes
  4102 ;; Hardware stack levels used: 1
  4103 ;; Hardware stack levels required when called: 5
  4104 ;; This function calls:
  4105 ;;		_adc_Vref_cfg
  4106 ;;		_adc_pin_cfg
  4107 ;;		_adc_reading_mode_cfg
  4108 ;; This function is called by:
  4109 ;;		_main
  4110 ;; This function uses a non-reentrant model
  4111 ;;
  4112                           
  4113                           	psect	text26
  4114   002606                     __ptext26:
  4115                           	callstack 0
  4116   002606                     _adc_int:
  4117                           	callstack 25
  4118   002606                     
  4119                           ;MCAL_Layer/ADC/ADC.c: 24:     if(((void*)0)!=adc){
  4120   002606  500F               	movf	adc_int@adc^0,w,c
  4121   002608  1010               	iorwf	(adc_int@adc+1)^0,w,c
  4122   00260A  B4D8               	btfsc	status,2,c
  4123   00260C  EF0A  F013         	goto	u3371
  4124   002610  EF0C  F013         	goto	u3370
  4125   002614                     u3371:
  4126   002614  EF5C  F013         	goto	l348
  4127   002618                     u3370:
  4128   002618                     
  4129                           ;MCAL_Layer/ADC/ADC.c: 26:         (ADCON0bits.ADON=0);
  4130   002618  90C2               	bcf	194,0,c	;volatile
  4131   00261A                     
  4132                           ;MCAL_Layer/ADC/ADC.c: 28:         ADCON2bits.ACQT=(adc->AD_acquisition_time_select_bits
      +                          );
  4133   00261A  EE20 F003          	lfsr	2,3
  4134   00261E  500F               	movf	adc_int@adc^0,w,c
  4135   002620  26D9               	addwf	fsr2l,f,c
  4136   002622  5010               	movf	(adc_int@adc+1)^0,w,c
  4137   002624  22DA               	addwfc	fsr2h,f,c
  4138   002626  50DF               	movf	indf2,w,c
  4139   002628  6E11               	movwf	??_adc_int^0,c
  4140   00262A  4611               	rlncf	??_adc_int^0,f,c
  4141   00262C  4611               	rlncf	??_adc_int^0,f,c
  4142   00262E  4611               	rlncf	??_adc_int^0,f,c
  4143   002630  50C0               	movf	192,w,c	;volatile
  4144   002632  1811               	xorwf	??_adc_int^0,w,c
  4145   002634  0BC7               	andlw	-57
  4146   002636  1811               	xorwf	??_adc_int^0,w,c
  4147   002638  6EC0               	movwf	192,c	;volatile
  4148                           
  4149                           ;MCAL_Layer/ADC/ADC.c: 30:         ADCON2bits.ADCS=(adc->AD_conversion_clock_select_bits
      +                          );
  4150   00263A  EE20 F004          	lfsr	2,4
  4151   00263E  500F               	movf	adc_int@adc^0,w,c
  4152   002640  26D9               	addwf	fsr2l,f,c
  4153   002642  5010               	movf	(adc_int@adc+1)^0,w,c
  4154   002644  22DA               	addwfc	fsr2h,f,c
  4155   002646  50DF               	movf	indf2,w,c
  4156   002648  6E11               	movwf	??_adc_int^0,c
  4157   00264A  50C0               	movf	192,w,c	;volatile
  4158   00264C  1811               	xorwf	??_adc_int^0,w,c
  4159   00264E  0BF8               	andlw	-8
  4160   002650  1811               	xorwf	??_adc_int^0,w,c
  4161   002652  6EC0               	movwf	192,c	;volatile
  4162                           
  4163                           ;MCAL_Layer/ADC/ADC.c: 34:         ADCON0bits.CHS=adc->analog_channel_select;
  4164   002654  EE20 F005          	lfsr	2,5
  4165   002658  500F               	movf	adc_int@adc^0,w,c
  4166   00265A  26D9               	addwf	fsr2l,f,c
  4167   00265C  5010               	movf	(adc_int@adc+1)^0,w,c
  4168   00265E  22DA               	addwfc	fsr2h,f,c
  4169   002660  50DF               	movf	indf2,w,c
  4170   002662  6E11               	movwf	??_adc_int^0,c
  4171   002664  4611               	rlncf	??_adc_int^0,f,c
  4172   002666  4611               	rlncf	??_adc_int^0,f,c
  4173   002668  50C2               	movf	194,w,c	;volatile
  4174   00266A  1811               	xorwf	??_adc_int^0,w,c
  4175   00266C  0BC3               	andlw	-61
  4176   00266E  1811               	xorwf	??_adc_int^0,w,c
  4177   002670  6EC2               	movwf	194,c	;volatile
  4178   002672                     
  4179                           ;MCAL_Layer/ADC/ADC.c: 36:         adc_pin_cfg(adc->analog_channel_select);
  4180   002672  EE20 F005          	lfsr	2,5
  4181   002676  500F               	movf	adc_int@adc^0,w,c
  4182   002678  26D9               	addwf	fsr2l,f,c
  4183   00267A  5010               	movf	(adc_int@adc+1)^0,w,c
  4184   00267C  22DA               	addwfc	fsr2h,f,c
  4185   00267E  50DF               	movf	indf2,w,c
  4186   002680  ECB6  F00E         	call	_adc_pin_cfg
  4187   002684                     
  4188                           ;MCAL_Layer/ADC/ADC.c: 38:         adc_Vref_cfg(adc);
  4189   002684  C00F  F00C         	movff	adc_int@adc,adc_Vref_cfg@adc
  4190   002688  C010  F00D         	movff	adc_int@adc+1,adc_Vref_cfg@adc+1
  4191   00268C  ECAE  F014         	call	_adc_Vref_cfg	;wreg free
  4192   002690                     
  4193                           ;MCAL_Layer/ADC/ADC.c: 46:         adc_reading_mode_cfg(adc);
  4194   002690  C00F  F00C         	movff	adc_int@adc,adc_reading_mode_cfg@adc
  4195   002694  C010  F00D         	movff	adc_int@adc+1,adc_reading_mode_cfg@adc+1
  4196   002698  ECA7  F015         	call	_adc_reading_mode_cfg	;wreg free
  4197   00269C                     
  4198                           ;MCAL_Layer/ADC/ADC.c: 55: ADC_Interrupt_handler=adc->ADC_callback;
  4199   00269C  C00F  FFD9         	movff	adc_int@adc,fsr2l
  4200   0026A0  C010  FFDA         	movff	adc_int@adc+1,fsr2h
  4201   0026A4  CFDE F05F          	movff	postinc2,_ADC_Interrupt_handler
  4202   0026A8  CFDD F060          	movff	postdec2,_ADC_Interrupt_handler+1
  4203   0026AC                     
  4204                           ;MCAL_Layer/ADC/ADC.c: 56:             (PIE1bits.ADIE=0);
  4205   0026AC  9C9D               	bcf	157,6,c	;volatile
  4206   0026AE                     
  4207                           ;MCAL_Layer/ADC/ADC.c: 57:             (PIR1bits.ADIF=0);
  4208   0026AE  9C9E               	bcf	158,6,c	;volatile
  4209   0026B0                     
  4210                           ;MCAL_Layer/ADC/ADC.c: 70:         (INTCONbits.GIE=1);
  4211   0026B0  8EF2               	bsf	242,7,c	;volatile
  4212   0026B2                     
  4213                           ;MCAL_Layer/ADC/ADC.c: 71:         (INTCONbits.PEIE=1);
  4214   0026B2  8CF2               	bsf	242,6,c	;volatile
  4215   0026B4                     
  4216                           ;MCAL_Layer/ADC/ADC.c: 73:             (PIE1bits.ADIE=1);
  4217   0026B4  8C9D               	bsf	157,6,c	;volatile
  4218   0026B6                     
  4219                           ;MCAL_Layer/ADC/ADC.c: 79:         (ADCON0bits.ADON=1);
  4220   0026B6  80C2               	bsf	194,0,c	;volatile
  4221   0026B8                     l348:
  4222   0026B8  0012               	return		;funcret
  4223   0026BA                     __end_of_adc_int:
  4224                           	callstack 0
  4225                           
  4226 ;; *************** function _adc_reading_mode_cfg *****************
  4227 ;; Defined at:
  4228 ;;		line 305 in file "MCAL_Layer/ADC/ADC.c"
  4229 ;; Parameters:    Size  Location     Type
  4230 ;;  adc             2   11[COMRAM] PTR const struct .
  4231 ;;		 -> adc_1(7), 
  4232 ;; Auto vars:     Size  Location     Type
  4233 ;;		None
  4234 ;; Return value:  Size  Location     Type
  4235 ;;                  1    wreg      void 
  4236 ;; Registers used:
  4237 ;;		wreg, fsr2l, fsr2h, status,2, status,0
  4238 ;; Tracked objects:
  4239 ;;		On entry : 0/0
  4240 ;;		On exit  : 0/0
  4241 ;;		Unchanged: 0/0
  4242 ;; Data sizes:     COMRAM   BANK0   BANK1   BANK2   BANK3   BANK4   BANK5   BANK6   BANK7   BANK8   BANK9  BANK10  BANK1
      +1  BANK12  BANK13  BANK14  BANK15
  4243 ;;      Params:         2       0       0       0       0       0       0       0       0       0       0       0       
      +0       0       0       0       0
  4244 ;;      Locals:         0       0       0       0       0       0       0       0       0       0       0       0       
      +0       0       0       0       0
  4245 ;;      Temps:          0       0       0       0       0       0       0       0       0       0       0       0       
      +0       0       0       0       0
  4246 ;;      Totals:         2       0       0       0       0       0       0       0       0       0       0       0       
      +0       0       0       0       0
  4247 ;;Total ram usage:        2 bytes
  4248 ;; Hardware stack levels used: 1
  4249 ;; Hardware stack levels required when called: 4
  4250 ;; This function calls:
  4251 ;;		Nothing
  4252 ;; This function is called by:
  4253 ;;		_adc_int
  4254 ;; This function uses a non-reentrant model
  4255 ;;
  4256                           
  4257                           	psect	text27
  4258   002B4E                     __ptext27:
  4259                           	callstack 0
  4260   002B4E                     _adc_reading_mode_cfg:
  4261                           	callstack 25
  4262   002B4E                     
  4263                           ;MCAL_Layer/ADC/ADC.c: 306:     if(((void*)0)!=adc){
  4264   002B4E  500C               	movf	adc_reading_mode_cfg@adc^0,w,c
  4265   002B50  100D               	iorwf	(adc_reading_mode_cfg@adc+1)^0,w,c
  4266   002B52  B4D8               	btfsc	status,2,c
  4267   002B54  EFAE  F015         	goto	u3111
  4268   002B58  EFB0  F015         	goto	u3110
  4269   002B5C                     u3111:
  4270   002B5C  EFD1  F015         	goto	l424
  4271   002B60                     u3110:
  4272   002B60                     
  4273                           ;MCAL_Layer/ADC/ADC.c: 307:         if((0x01u)==adc->reading_mode){
  4274   002B60  EE20 F006          	lfsr	2,6
  4275   002B64  500C               	movf	adc_reading_mode_cfg@adc^0,w,c
  4276   002B66  26D9               	addwf	fsr2l,f,c
  4277   002B68  500D               	movf	(adc_reading_mode_cfg@adc+1)^0,w,c
  4278   002B6A  22DA               	addwfc	fsr2h,f,c
  4279   002B6C  A0DF               	btfss	indf2,0,c
  4280   002B6E  EFBB  F015         	goto	u3121
  4281   002B72  EFBD  F015         	goto	u3120
  4282   002B76                     u3121:
  4283   002B76  EFC0  F015         	goto	l3983
  4284   002B7A                     u3120:
  4285   002B7A                     
  4286                           ;MCAL_Layer/ADC/ADC.c: 308:             (ADCON2bits.ADFM=1);
  4287   002B7A  8EC0               	bsf	192,7,c	;volatile
  4288                           
  4289                           ;MCAL_Layer/ADC/ADC.c: 309:         }
  4290   002B7C  EFD1  F015         	goto	l424
  4291   002B80                     l3983:
  4292   002B80  EE20 F006          	lfsr	2,6
  4293   002B84  500C               	movf	adc_reading_mode_cfg@adc^0,w,c
  4294   002B86  26D9               	addwf	fsr2l,f,c
  4295   002B88  500D               	movf	(adc_reading_mode_cfg@adc+1)^0,w,c
  4296   002B8A  22DA               	addwfc	fsr2h,f,c
  4297   002B8C  B0DF               	btfsc	indf2,0,c
  4298   002B8E  EFCB  F015         	goto	u3131
  4299   002B92  EFCD  F015         	goto	u3130
  4300   002B96                     u3131:
  4301   002B96  EFD0  F015         	goto	l422
  4302   002B9A                     u3130:
  4303   002B9A                     
  4304                           ;MCAL_Layer/ADC/ADC.c: 311:             (ADCON2bits.ADFM=0);
  4305   002B9A  9EC0               	bcf	192,7,c	;volatile
  4306                           
  4307                           ;MCAL_Layer/ADC/ADC.c: 312:         }
  4308   002B9C  EFD1  F015         	goto	l424
  4309   002BA0                     l422:
  4310                           
  4311                           ;MCAL_Layer/ADC/ADC.c: 314:             (ADCON2bits.ADFM=1);
  4312   002BA0  8EC0               	bsf	192,7,c	;volatile
  4313   002BA2                     l424:
  4314   002BA2  0012               	return		;funcret
  4315   002BA4                     __end_of_adc_reading_mode_cfg:
  4316                           	callstack 0
  4317                           
  4318 ;; *************** function _adc_pin_cfg *****************
  4319 ;; Defined at:
  4320 ;;		line 217 in file "MCAL_Layer/ADC/ADC.c"
  4321 ;; Parameters:    Size  Location     Type
  4322 ;;  analog_chann    1    wreg     enum E3038
  4323 ;; Auto vars:     Size  Location     Type
  4324 ;;  analog_chann    1   13[COMRAM] enum E3038
  4325 ;; Return value:  Size  Location     Type
  4326 ;;                  1    wreg      void 
  4327 ;; Registers used:
  4328 ;;		wreg, status,2, status,0
  4329 ;; Tracked objects:
  4330 ;;		On entry : 0/0
  4331 ;;		On exit  : 0/0
  4332 ;;		Unchanged: 0/0
  4333 ;; Data sizes:     COMRAM   BANK0   BANK1   BANK2   BANK3   BANK4   BANK5   BANK6   BANK7   BANK8   BANK9  BANK10  BANK1
      +1  BANK12  BANK13  BANK14  BANK15
  4334 ;;      Params:         0       0       0       0       0       0       0       0       0       0       0       0       
      +0       0       0       0       0
  4335 ;;      Locals:         1       0       0       0       0       0       0       0       0       0       0       0       
      +0       0       0       0       0
  4336 ;;      Temps:          2       0       0       0       0       0       0       0       0       0       0       0       
      +0       0       0       0       0
  4337 ;;      Totals:         3       0       0       0       0       0       0       0       0       0       0       0       
      +0       0       0       0       0
  4338 ;;Total ram usage:        3 bytes
  4339 ;; Hardware stack levels used: 1
  4340 ;; Hardware stack levels required when called: 4
  4341 ;; This function calls:
  4342 ;;		Nothing
  4343 ;; This function is called by:
  4344 ;;		_adc_int
  4345 ;;		_adc_select_channel
  4346 ;; This function uses a non-reentrant model
  4347 ;;
  4348                           
  4349                           	psect	text28
  4350   001D6C                     __ptext28:
  4351                           	callstack 0
  4352   001D6C                     _adc_pin_cfg:
  4353                           	callstack 24
  4354                           
  4355                           ;incstack = 0
  4356                           ;adc_pin_cfg@analog_channel_select stored from wreg
  4357   001D6C  6E0E               	movwf	adc_pin_cfg@analog_channel_select^0,c
  4358   001D6E                     
  4359                           ;MCAL_Layer/ADC/ADC.c: 221:         switch(analog_channel_select){
  4360   001D6E  EF14  F00F         	goto	l3847
  4361   001D72                     l3793:
  4362                           
  4363                           ;MCAL_Layer/ADC/ADC.c: 223:                (TRISA|=(1<<GPIO_PIN0));
  4364   001D72  8092               	bsf	146,0,c	;volatile
  4365   001D74                     
  4366                           ;MCAL_Layer/ADC/ADC.c: 224:                 ADCON1bits.PCFG=((0b1110));
  4367   001D74  50C1               	movf	193,w,c	;volatile
  4368   001D76  0BF0               	andlw	-16
  4369   001D78  090E               	iorlw	14
  4370   001D7A  6EC1               	movwf	193,c	;volatile
  4371                           
  4372                           ;MCAL_Layer/ADC/ADC.c: 225:                 break;
  4373   001D7C  EF55  F00F         	goto	l402
  4374   001D80                     l3797:
  4375                           
  4376                           ;MCAL_Layer/ADC/ADC.c: 227:                 (TRISA|=(1<<GPIO_PIN1));
  4377   001D80  8292               	bsf	146,1,c	;volatile
  4378   001D82                     
  4379                           ;MCAL_Layer/ADC/ADC.c: 228:                  ADCON1bits.PCFG=((0b1101));
  4380   001D82  50C1               	movf	193,w,c	;volatile
  4381   001D84  0BF0               	andlw	-16
  4382   001D86  090D               	iorlw	13
  4383   001D88  6EC1               	movwf	193,c	;volatile
  4384                           
  4385                           ;MCAL_Layer/ADC/ADC.c: 229:                 break;
  4386   001D8A  EF55  F00F         	goto	l402
  4387   001D8E                     l3801:
  4388                           
  4389                           ;MCAL_Layer/ADC/ADC.c: 231:                 (TRISA|=(1<<GPIO_PIN2));
  4390   001D8E  8492               	bsf	146,2,c	;volatile
  4391   001D90                     
  4392                           ;MCAL_Layer/ADC/ADC.c: 232:                  ADCON1bits.PCFG=((0b1100));
  4393   001D90  50C1               	movf	193,w,c	;volatile
  4394   001D92  0BF0               	andlw	-16
  4395   001D94  090C               	iorlw	12
  4396   001D96  6EC1               	movwf	193,c	;volatile
  4397                           
  4398                           ;MCAL_Layer/ADC/ADC.c: 233:                 break;
  4399   001D98  EF55  F00F         	goto	l402
  4400   001D9C                     l3805:
  4401                           
  4402                           ;MCAL_Layer/ADC/ADC.c: 235:                 (TRISA|=(1<<GPIO_PIN3));
  4403   001D9C  8692               	bsf	146,3,c	;volatile
  4404   001D9E                     
  4405                           ;MCAL_Layer/ADC/ADC.c: 236:                  ADCON1bits.PCFG=((0b1011));
  4406   001D9E  50C1               	movf	193,w,c	;volatile
  4407   001DA0  0BF0               	andlw	-16
  4408   001DA2  090B               	iorlw	11
  4409   001DA4  6EC1               	movwf	193,c	;volatile
  4410                           
  4411                           ;MCAL_Layer/ADC/ADC.c: 237:                 break;
  4412   001DA6  EF55  F00F         	goto	l402
  4413   001DAA                     l3809:
  4414                           
  4415                           ;MCAL_Layer/ADC/ADC.c: 239:                 (TRISA|=(1<<GPIO_PIN5));
  4416   001DAA  8A92               	bsf	146,5,c	;volatile
  4417   001DAC                     
  4418                           ;MCAL_Layer/ADC/ADC.c: 240:                  ADCON1bits.PCFG=((0b1010));
  4419   001DAC  50C1               	movf	193,w,c	;volatile
  4420   001DAE  0BF0               	andlw	-16
  4421   001DB0  090A               	iorlw	10
  4422   001DB2  6EC1               	movwf	193,c	;volatile
  4423                           
  4424                           ;MCAL_Layer/ADC/ADC.c: 241:                 break;
  4425   001DB4  EF55  F00F         	goto	l402
  4426   001DB8                     l3813:
  4427                           
  4428                           ;MCAL_Layer/ADC/ADC.c: 243:                 (TRISE|=(1<<GPIO_PIN0));
  4429   001DB8  8096               	bsf	150,0,c	;volatile
  4430   001DBA                     
  4431                           ;MCAL_Layer/ADC/ADC.c: 244:                  ADCON1bits.PCFG=((0b1001));
  4432   001DBA  50C1               	movf	193,w,c	;volatile
  4433   001DBC  0BF0               	andlw	-16
  4434   001DBE  0909               	iorlw	9
  4435   001DC0  6EC1               	movwf	193,c	;volatile
  4436                           
  4437                           ;MCAL_Layer/ADC/ADC.c: 245:                 break;
  4438   001DC2  EF55  F00F         	goto	l402
  4439   001DC6                     l3817:
  4440                           
  4441                           ;MCAL_Layer/ADC/ADC.c: 247:                 (TRISE|=(1<<GPIO_PIN1));
  4442   001DC6  8296               	bsf	150,1,c	;volatile
  4443   001DC8                     
  4444                           ;MCAL_Layer/ADC/ADC.c: 248:                  ADCON1bits.PCFG=((0b1000));
  4445   001DC8  50C1               	movf	193,w,c	;volatile
  4446   001DCA  0BF0               	andlw	-16
  4447   001DCC  0908               	iorlw	8
  4448   001DCE  6EC1               	movwf	193,c	;volatile
  4449                           
  4450                           ;MCAL_Layer/ADC/ADC.c: 249:                 break;
  4451   001DD0  EF55  F00F         	goto	l402
  4452   001DD4                     l3821:
  4453                           
  4454                           ;MCAL_Layer/ADC/ADC.c: 251:                (TRISE|=(1<<GPIO_PIN2));
  4455   001DD4  8496               	bsf	150,2,c	;volatile
  4456   001DD6                     
  4457                           ;MCAL_Layer/ADC/ADC.c: 252:                  ADCON1bits.PCFG=((0b0111));
  4458   001DD6  50C1               	movf	193,w,c	;volatile
  4459   001DD8  0BF0               	andlw	-16
  4460   001DDA  0907               	iorlw	7
  4461   001DDC  6EC1               	movwf	193,c	;volatile
  4462                           
  4463                           ;MCAL_Layer/ADC/ADC.c: 253:                 break;
  4464   001DDE  EF55  F00F         	goto	l402
  4465   001DE2                     l3825:
  4466                           
  4467                           ;MCAL_Layer/ADC/ADC.c: 255:                (TRISB|=(1<<GPIO_PIN2));
  4468   001DE2  8493               	bsf	147,2,c	;volatile
  4469   001DE4                     
  4470                           ;MCAL_Layer/ADC/ADC.c: 256:                  ADCON1bits.PCFG=((0b0110));
  4471   001DE4  50C1               	movf	193,w,c	;volatile
  4472   001DE6  0BF0               	andlw	-16
  4473   001DE8  0906               	iorlw	6
  4474   001DEA  6EC1               	movwf	193,c	;volatile
  4475                           
  4476                           ;MCAL_Layer/ADC/ADC.c: 257:                 break;
  4477   001DEC  EF55  F00F         	goto	l402
  4478   001DF0                     l3829:
  4479                           
  4480                           ;MCAL_Layer/ADC/ADC.c: 259:                 (TRISB|=(1<<GPIO_PIN3));
  4481   001DF0  8693               	bsf	147,3,c	;volatile
  4482   001DF2                     
  4483                           ;MCAL_Layer/ADC/ADC.c: 260:                  ADCON1bits.PCFG=((0b0101));
  4484   001DF2  50C1               	movf	193,w,c	;volatile
  4485   001DF4  0BF0               	andlw	-16
  4486   001DF6  0905               	iorlw	5
  4487   001DF8  6EC1               	movwf	193,c	;volatile
  4488                           
  4489                           ;MCAL_Layer/ADC/ADC.c: 261:                 break;
  4490   001DFA  EF55  F00F         	goto	l402
  4491   001DFE                     l3833:
  4492                           
  4493                           ;MCAL_Layer/ADC/ADC.c: 263:                 (TRISB|=(1<<GPIO_PIN1));
  4494   001DFE  8293               	bsf	147,1,c	;volatile
  4495   001E00                     
  4496                           ;MCAL_Layer/ADC/ADC.c: 264:                  ADCON1bits.PCFG=((0b0100));
  4497   001E00  50C1               	movf	193,w,c	;volatile
  4498   001E02  0BF0               	andlw	-16
  4499   001E04  0904               	iorlw	4
  4500   001E06  6EC1               	movwf	193,c	;volatile
  4501                           
  4502                           ;MCAL_Layer/ADC/ADC.c: 265:                 break;
  4503   001E08  EF55  F00F         	goto	l402
  4504   001E0C                     l3837:
  4505                           
  4506                           ;MCAL_Layer/ADC/ADC.c: 267:                 (TRISB|=(1<<GPIO_PIN4));
  4507   001E0C  8893               	bsf	147,4,c	;volatile
  4508   001E0E                     
  4509                           ;MCAL_Layer/ADC/ADC.c: 268:                  ADCON1bits.PCFG=((0b0011));
  4510   001E0E  50C1               	movf	193,w,c	;volatile
  4511   001E10  0BF0               	andlw	-16
  4512   001E12  0903               	iorlw	3
  4513   001E14  6EC1               	movwf	193,c	;volatile
  4514                           
  4515                           ;MCAL_Layer/ADC/ADC.c: 269:                 break;
  4516   001E16  EF55  F00F         	goto	l402
  4517   001E1A                     l3841:
  4518                           
  4519                           ;MCAL_Layer/ADC/ADC.c: 271:                 (TRISB|=(1<<GPIO_PIN0));
  4520   001E1A  8093               	bsf	147,0,c	;volatile
  4521   001E1C                     
  4522                           ;MCAL_Layer/ADC/ADC.c: 272:                  ADCON1bits.PCFG=((0b0010));
  4523   001E1C  50C1               	movf	193,w,c	;volatile
  4524   001E1E  0BF0               	andlw	-16
  4525   001E20  0902               	iorlw	2
  4526   001E22  6EC1               	movwf	193,c	;volatile
  4527                           
  4528                           ;MCAL_Layer/ADC/ADC.c: 273:                 break;
  4529   001E24  EF55  F00F         	goto	l402
  4530   001E28                     l3847:
  4531   001E28  500E               	movf	adc_pin_cfg@analog_channel_select^0,w,c
  4532   001E2A  6E0C               	movwf	??_adc_pin_cfg^0,c
  4533   001E2C  6A0D               	clrf	(??_adc_pin_cfg+1)^0,c
  4534                           
  4535                           ; Switch on 2 bytes has been partitioned into a top level switch of size 1, and 1 sub-sw
      +                          itches
  4536                           ; Switch size 1, requested type "simple"
  4537                           ; Number of cases is 1, Range of values is 0 to 0
  4538                           ; switch strategies available:
  4539                           ; Name         Instructions Cycles
  4540                           ; simple_byte            4     3 (average)
  4541                           ;	Chosen strategy is simple_byte
  4542   001E2E  500D               	movf	(??_adc_pin_cfg+1)^0,w,c
  4543   001E30  0A00               	xorlw	0	; case 0
  4544   001E32  B4D8               	btfsc	status,2,c
  4545   001E34  EF1E  F00F         	goto	l5855
  4546   001E38  EF55  F00F         	goto	l402
  4547   001E3C                     l5855:
  4548                           
  4549                           ; Switch size 1, requested type "simple"
  4550                           ; Number of cases is 13, Range of values is 0 to 12
  4551                           ; switch strategies available:
  4552                           ; Name         Instructions Cycles
  4553                           ; simple_byte           40    21 (average)
  4554                           ;	Chosen strategy is simple_byte
  4555   001E3C  500C               	movf	??_adc_pin_cfg^0,w,c
  4556   001E3E  0A00               	xorlw	0	; case 0
  4557   001E40  B4D8               	btfsc	status,2,c
  4558   001E42  EFB9  F00E         	goto	l3793
  4559   001E46  0A01               	xorlw	1	; case 1
  4560   001E48  B4D8               	btfsc	status,2,c
  4561   001E4A  EFC0  F00E         	goto	l3797
  4562   001E4E  0A03               	xorlw	3	; case 2
  4563   001E50  B4D8               	btfsc	status,2,c
  4564   001E52  EFC7  F00E         	goto	l3801
  4565   001E56  0A01               	xorlw	1	; case 3
  4566   001E58  B4D8               	btfsc	status,2,c
  4567   001E5A  EFCE  F00E         	goto	l3805
  4568   001E5E  0A07               	xorlw	7	; case 4
  4569   001E60  B4D8               	btfsc	status,2,c
  4570   001E62  EFD5  F00E         	goto	l3809
  4571   001E66  0A01               	xorlw	1	; case 5
  4572   001E68  B4D8               	btfsc	status,2,c
  4573   001E6A  EFDC  F00E         	goto	l3813
  4574   001E6E  0A03               	xorlw	3	; case 6
  4575   001E70  B4D8               	btfsc	status,2,c
  4576   001E72  EFE3  F00E         	goto	l3817
  4577   001E76  0A01               	xorlw	1	; case 7
  4578   001E78  B4D8               	btfsc	status,2,c
  4579   001E7A  EFEA  F00E         	goto	l3821
  4580   001E7E  0A0F               	xorlw	15	; case 8
  4581   001E80  B4D8               	btfsc	status,2,c
  4582   001E82  EFF1  F00E         	goto	l3825
  4583   001E86  0A01               	xorlw	1	; case 9
  4584   001E88  B4D8               	btfsc	status,2,c
  4585   001E8A  EFF8  F00E         	goto	l3829
  4586   001E8E  0A03               	xorlw	3	; case 10
  4587   001E90  B4D8               	btfsc	status,2,c
  4588   001E92  EFFF  F00E         	goto	l3833
  4589   001E96  0A01               	xorlw	1	; case 11
  4590   001E98  B4D8               	btfsc	status,2,c
  4591   001E9A  EF06  F00F         	goto	l3837
  4592   001E9E  0A07               	xorlw	7	; case 12
  4593   001EA0  B4D8               	btfsc	status,2,c
  4594   001EA2  EF0D  F00F         	goto	l3841
  4595   001EA6  EF55  F00F         	goto	l402
  4596   001EAA                     l402:
  4597   001EAA  0012               	return		;funcret
  4598   001EAC                     __end_of_adc_pin_cfg:
  4599                           	callstack 0
  4600                           
  4601 ;; *************** function _adc_Vref_cfg *****************
  4602 ;; Defined at:
  4603 ;;		line 283 in file "MCAL_Layer/ADC/ADC.c"
  4604 ;; Parameters:    Size  Location     Type
  4605 ;;  adc             2   11[COMRAM] PTR const struct .
  4606 ;;		 -> adc_1(7), 
  4607 ;; Auto vars:     Size  Location     Type
  4608 ;;		None
  4609 ;; Return value:  Size  Location     Type
  4610 ;;                  1    wreg      void 
  4611 ;; Registers used:
  4612 ;;		wreg, fsr2l, fsr2h, status,2, status,0
  4613 ;; Tracked objects:
  4614 ;;		On entry : 0/0
  4615 ;;		On exit  : 0/0
  4616 ;;		Unchanged: 0/0
  4617 ;; Data sizes:     COMRAM   BANK0   BANK1   BANK2   BANK3   BANK4   BANK5   BANK6   BANK7   BANK8   BANK9  BANK10  BANK1
      +1  BANK12  BANK13  BANK14  BANK15
  4618 ;;      Params:         2       0       0       0       0       0       0       0       0       0       0       0       
      +0       0       0       0       0
  4619 ;;      Locals:         0       0       0       0       0       0       0       0       0       0       0       0       
      +0       0       0       0       0
  4620 ;;      Temps:          0       0       0       0       0       0       0       0       0       0       0       0       
      +0       0       0       0       0
  4621 ;;      Totals:         2       0       0       0       0       0       0       0       0       0       0       0       
      +0       0       0       0       0
  4622 ;;Total ram usage:        2 bytes
  4623 ;; Hardware stack levels used: 1
  4624 ;; Hardware stack levels required when called: 4
  4625 ;; This function calls:
  4626 ;;		Nothing
  4627 ;; This function is called by:
  4628 ;;		_adc_int
  4629 ;; This function uses a non-reentrant model
  4630 ;;
  4631                           
  4632                           	psect	text29
  4633   00295C                     __ptext29:
  4634                           	callstack 0
  4635   00295C                     _adc_Vref_cfg:
  4636                           	callstack 25
  4637   00295C                     
  4638                           ;MCAL_Layer/ADC/ADC.c: 285:     if(((void*)0)!=adc && ((void*)0)!=adc){
  4639   00295C  500C               	movf	adc_Vref_cfg@adc^0,w,c
  4640   00295E  100D               	iorwf	(adc_Vref_cfg@adc+1)^0,w,c
  4641   002960  B4D8               	btfsc	status,2,c
  4642   002962  EFB5  F014         	goto	u3071
  4643   002966  EFB7  F014         	goto	u3070
  4644   00296A                     u3071:
  4645   00296A  EFE4  F014         	goto	l416
  4646   00296E                     u3070:
  4647   00296E  500C               	movf	adc_Vref_cfg@adc^0,w,c
  4648   002970  100D               	iorwf	(adc_Vref_cfg@adc+1)^0,w,c
  4649   002972  B4D8               	btfsc	status,2,c
  4650   002974  EFBE  F014         	goto	u3081
  4651   002978  EFC0  F014         	goto	u3080
  4652   00297C                     u3081:
  4653   00297C  EFE4  F014         	goto	l416
  4654   002980                     u3080:
  4655   002980                     
  4656                           ;MCAL_Layer/ADC/ADC.c: 287:         if((0x01u) == adc->voltage_refrence_mode){
  4657   002980  EE20 F006          	lfsr	2,6
  4658   002984  500C               	movf	adc_Vref_cfg@adc^0,w,c
  4659   002986  26D9               	addwf	fsr2l,f,c
  4660   002988  500D               	movf	(adc_Vref_cfg@adc+1)^0,w,c
  4661   00298A  22DA               	addwfc	fsr2h,f,c
  4662   00298C  A2DF               	btfss	indf2,1,c
  4663   00298E  EFCB  F014         	goto	u3091
  4664   002992  EFCD  F014         	goto	u3090
  4665   002996                     u3091:
  4666   002996  EFD1  F014         	goto	l3975
  4667   00299A                     u3090:
  4668   00299A  8AC1               	bsf	193,5,c	;volatile
  4669   00299C  88C1               	bsf	193,4,c	;volatile
  4670   00299E  EFE4  F014         	goto	l416
  4671   0029A2                     l3975:
  4672   0029A2  EE20 F006          	lfsr	2,6
  4673   0029A6  500C               	movf	adc_Vref_cfg@adc^0,w,c
  4674   0029A8  26D9               	addwf	fsr2l,f,c
  4675   0029AA  500D               	movf	(adc_Vref_cfg@adc+1)^0,w,c
  4676   0029AC  22DA               	addwfc	fsr2h,f,c
  4677   0029AE  B2DF               	btfsc	indf2,1,c
  4678   0029B0  EFDC  F014         	goto	u3101
  4679   0029B4  EFDE  F014         	goto	u3100
  4680   0029B8                     u3101:
  4681   0029B8  EFE2  F014         	goto	l414
  4682   0029BC                     u3100:
  4683   0029BC  9AC1               	bcf	193,5,c	;volatile
  4684   0029BE  98C1               	bcf	193,4,c	;volatile
  4685   0029C0  EFE4  F014         	goto	l416
  4686   0029C4                     l414:
  4687   0029C4  9AC1               	bcf	193,5,c	;volatile
  4688   0029C6  98C1               	bcf	193,4,c	;volatile
  4689   0029C8                     l416:
  4690   0029C8  0012               	return		;funcret
  4691   0029CA                     __end_of_adc_Vref_cfg:
  4692                           	callstack 0
  4693                           
  4694 ;; *************** function ___xxtofl *****************
  4695 ;; Defined at:
  4696 ;;		line 10 in file "E:\Program Files\Microchip\xc8\v2.41\pic\sources\c99\common\xxtofl.c"
  4697 ;; Parameters:    Size  Location     Type
  4698 ;;  sign            1    wreg     unsigned char 
  4699 ;;  val             4   11[COMRAM] long 
  4700 ;; Auto vars:     Size  Location     Type
  4701 ;;  sign            1   19[COMRAM] unsigned char 
  4702 ;;  arg             4   21[COMRAM] unsigned long 
  4703 ;;  exp             1   20[COMRAM] unsigned char 
  4704 ;; Return value:  Size  Location     Type
  4705 ;;                  4   11[COMRAM] unsigned char 
  4706 ;; Registers used:
  4707 ;;		wreg, status,2, status,0
  4708 ;; Tracked objects:
  4709 ;;		On entry : 0/0
  4710 ;;		On exit  : 0/0
  4711 ;;		Unchanged: 0/0
  4712 ;; Data sizes:     COMRAM   BANK0   BANK1   BANK2   BANK3   BANK4   BANK5   BANK6   BANK7   BANK8   BANK9  BANK10  BANK1
      +1  BANK12  BANK13  BANK14  BANK15
  4713 ;;      Params:         4       0       0       0       0       0       0       0       0       0       0       0       
      +0       0       0       0       0
  4714 ;;      Locals:         6       0       0       0       0       0       0       0       0       0       0       0       
      +0       0       0       0       0
  4715 ;;      Temps:          4       0       0       0       0       0       0       0       0       0       0       0       
      +0       0       0       0       0
  4716 ;;      Totals:        14       0       0       0       0       0       0       0       0       0       0       0       
      +0       0       0       0       0
  4717 ;;Total ram usage:       14 bytes
  4718 ;; Hardware stack levels used: 1
  4719 ;; Hardware stack levels required when called: 4
  4720 ;; This function calls:
  4721 ;;		Nothing
  4722 ;; This function is called by:
  4723 ;;		_main
  4724 ;; This function uses a non-reentrant model
  4725 ;;
  4726                           
  4727                           	psect	text30
  4728   001902                     __ptext30:
  4729                           	callstack 0
  4730   001902                     ___xxtofl:
  4731                           	callstack 26
  4732                           
  4733                           ;incstack = 0
  4734                           ;___xxtofl@sign stored from wreg
  4735   001902  6E14               	movwf	___xxtofl@sign^0,c
  4736   001904  5014               	movf	___xxtofl@sign^0,w,c
  4737   001906  B4D8               	btfsc	status,2,c
  4738   001908  EF88  F00C         	goto	u3741
  4739   00190C  EF8A  F00C         	goto	u3740
  4740   001910                     u3741:
  4741   001910  EFAC  F00C         	goto	l1491
  4742   001914                     u3740:
  4743   001914  BE0F               	btfsc	(___xxtofl@val+3)^0,7,c
  4744   001916  EF91  F00C         	goto	u3750
  4745   00191A  EF8F  F00C         	goto	u3751
  4746   00191E                     u3751:
  4747   00191E  EFAC  F00C         	goto	l1491
  4748   001922                     u3750:
  4749   001922  C00C  F010         	movff	___xxtofl@val,??___xxtofl
  4750   001926  C00D  F011         	movff	___xxtofl@val+1,??___xxtofl+1
  4751   00192A  C00E  F012         	movff	___xxtofl@val+2,??___xxtofl+2
  4752   00192E  C00F  F013         	movff	___xxtofl@val+3,??___xxtofl+3
  4753   001932  1E10               	comf	??___xxtofl^0,f,c
  4754   001934  1E11               	comf	(??___xxtofl+1)^0,f,c
  4755   001936  1E12               	comf	(??___xxtofl+2)^0,f,c
  4756   001938  1E13               	comf	(??___xxtofl+3)^0,f,c
  4757   00193A  2A10               	incf	??___xxtofl^0,f,c
  4758   00193C  0E00               	movlw	0
  4759   00193E  2211               	addwfc	(??___xxtofl+1)^0,f,c
  4760   001940  2212               	addwfc	(??___xxtofl+2)^0,f,c
  4761   001942  2213               	addwfc	(??___xxtofl+3)^0,f,c
  4762   001944  C010  F016         	movff	??___xxtofl,___xxtofl@arg
  4763   001948  C011  F017         	movff	??___xxtofl+1,___xxtofl@arg+1
  4764   00194C  C012  F018         	movff	??___xxtofl+2,___xxtofl@arg+2
  4765   001950  C013  F019         	movff	??___xxtofl+3,___xxtofl@arg+3
  4766   001954  EFB4  F00C         	goto	l4477
  4767   001958                     l1491:
  4768   001958  C00C  F016         	movff	___xxtofl@val,___xxtofl@arg
  4769   00195C  C00D  F017         	movff	___xxtofl@val+1,___xxtofl@arg+1
  4770   001960  C00E  F018         	movff	___xxtofl@val+2,___xxtofl@arg+2
  4771   001964  C00F  F019         	movff	___xxtofl@val+3,___xxtofl@arg+3
  4772   001968                     l4477:
  4773   001968  500C               	movf	___xxtofl@val^0,w,c
  4774   00196A  100D               	iorwf	(___xxtofl@val+1)^0,w,c
  4775   00196C  100E               	iorwf	(___xxtofl@val+2)^0,w,c
  4776   00196E  100F               	iorwf	(___xxtofl@val+3)^0,w,c
  4777   001970  A4D8               	btfss	status,2,c
  4778   001972  EFBD  F00C         	goto	u3761
  4779   001976  EFBF  F00C         	goto	u3760
  4780   00197A                     u3761:
  4781   00197A  EFC9  F00C         	goto	l4483
  4782   00197E                     u3760:
  4783   00197E  0E00               	movlw	0
  4784   001980  6E0C               	movwf	?___xxtofl^0,c
  4785   001982  0E00               	movlw	0
  4786   001984  6E0D               	movwf	(?___xxtofl+1)^0,c
  4787   001986  0E00               	movlw	0
  4788   001988  6E0E               	movwf	(?___xxtofl+2)^0,c
  4789   00198A  0E00               	movlw	0
  4790   00198C  6E0F               	movwf	(?___xxtofl+3)^0,c
  4791   00198E  EF5A  F00D         	goto	l1494
  4792   001992                     l4483:
  4793   001992  0E96               	movlw	150
  4794   001994  6E15               	movwf	___xxtofl@exp^0,c
  4795   001996  EFD3  F00C         	goto	l4487
  4796   00199A                     l4485:
  4797   00199A  2A15               	incf	___xxtofl@exp^0,f,c
  4798   00199C  90D8               	bcf	status,0,c
  4799   00199E  3219               	rrcf	(___xxtofl@arg+3)^0,f,c
  4800   0019A0  3218               	rrcf	(___xxtofl@arg+2)^0,f,c
  4801   0019A2  3217               	rrcf	(___xxtofl@arg+1)^0,f,c
  4802   0019A4  3216               	rrcf	___xxtofl@arg^0,f,c
  4803   0019A6                     l4487:
  4804   0019A6  0E00               	movlw	0
  4805   0019A8  1416               	andwf	___xxtofl@arg^0,w,c
  4806   0019AA  6E10               	movwf	??___xxtofl^0,c
  4807   0019AC  0E00               	movlw	0
  4808   0019AE  1417               	andwf	(___xxtofl@arg+1)^0,w,c
  4809   0019B0  6E11               	movwf	(??___xxtofl+1)^0,c
  4810   0019B2  0E00               	movlw	0
  4811   0019B4  1418               	andwf	(___xxtofl@arg+2)^0,w,c
  4812   0019B6  6E12               	movwf	(??___xxtofl+2)^0,c
  4813   0019B8  0EFE               	movlw	254
  4814   0019BA  1419               	andwf	(___xxtofl@arg+3)^0,w,c
  4815   0019BC  6E13               	movwf	(??___xxtofl+3)^0,c
  4816   0019BE  5010               	movf	??___xxtofl^0,w,c
  4817   0019C0  1011               	iorwf	(??___xxtofl+1)^0,w,c
  4818   0019C2  1012               	iorwf	(??___xxtofl+2)^0,w,c
  4819   0019C4  1013               	iorwf	(??___xxtofl+3)^0,w,c
  4820   0019C6  A4D8               	btfss	status,2,c
  4821   0019C8  EFE8  F00C         	goto	u3771
  4822   0019CC  EFEA  F00C         	goto	u3770
  4823   0019D0                     u3771:
  4824   0019D0  EFCD  F00C         	goto	l4485
  4825   0019D4                     u3770:
  4826   0019D4  EFF8  F00C         	goto	l1498
  4827   0019D8                     l4489:
  4828   0019D8  2A15               	incf	___xxtofl@exp^0,f,c
  4829   0019DA  0E01               	movlw	1
  4830   0019DC  2616               	addwf	___xxtofl@arg^0,f,c
  4831   0019DE  0E00               	movlw	0
  4832   0019E0  2217               	addwfc	(___xxtofl@arg+1)^0,f,c
  4833   0019E2  2218               	addwfc	(___xxtofl@arg+2)^0,f,c
  4834   0019E4  2219               	addwfc	(___xxtofl@arg+3)^0,f,c
  4835   0019E6  90D8               	bcf	status,0,c
  4836   0019E8  3219               	rrcf	(___xxtofl@arg+3)^0,f,c
  4837   0019EA  3218               	rrcf	(___xxtofl@arg+2)^0,f,c
  4838   0019EC  3217               	rrcf	(___xxtofl@arg+1)^0,f,c
  4839   0019EE  3216               	rrcf	___xxtofl@arg^0,f,c
  4840   0019F0                     l1498:
  4841   0019F0  0E00               	movlw	0
  4842   0019F2  1416               	andwf	___xxtofl@arg^0,w,c
  4843   0019F4  6E10               	movwf	??___xxtofl^0,c
  4844   0019F6  0E00               	movlw	0
  4845   0019F8  1417               	andwf	(___xxtofl@arg+1)^0,w,c
  4846   0019FA  6E11               	movwf	(??___xxtofl+1)^0,c
  4847   0019FC  0E00               	movlw	0
  4848   0019FE  1418               	andwf	(___xxtofl@arg+2)^0,w,c
  4849   001A00  6E12               	movwf	(??___xxtofl+2)^0,c
  4850   001A02  0EFF               	movlw	255
  4851   001A04  1419               	andwf	(___xxtofl@arg+3)^0,w,c
  4852   001A06  6E13               	movwf	(??___xxtofl+3)^0,c
  4853   001A08  5010               	movf	??___xxtofl^0,w,c
  4854   001A0A  1011               	iorwf	(??___xxtofl+1)^0,w,c
  4855   001A0C  1012               	iorwf	(??___xxtofl+2)^0,w,c
  4856   001A0E  1013               	iorwf	(??___xxtofl+3)^0,w,c
  4857   001A10  A4D8               	btfss	status,2,c
  4858   001A12  EF0D  F00D         	goto	u3781
  4859   001A16  EF0F  F00D         	goto	u3780
  4860   001A1A                     u3781:
  4861   001A1A  EFEC  F00C         	goto	l4489
  4862   001A1E                     u3780:
  4863   001A1E  EF17  F00D         	goto	l4497
  4864   001A22                     l4495:
  4865   001A22  0615               	decf	___xxtofl@exp^0,f,c
  4866   001A24  90D8               	bcf	status,0,c
  4867   001A26  3616               	rlcf	___xxtofl@arg^0,f,c
  4868   001A28  3617               	rlcf	(___xxtofl@arg+1)^0,f,c
  4869   001A2A  3618               	rlcf	(___xxtofl@arg+2)^0,f,c
  4870   001A2C  3619               	rlcf	(___xxtofl@arg+3)^0,f,c
  4871   001A2E                     l4497:
  4872   001A2E  BE18               	btfsc	(___xxtofl@arg+2)^0,7,c
  4873   001A30  EF1C  F00D         	goto	u3791
  4874   001A34  EF1E  F00D         	goto	u3790
  4875   001A38                     u3791:
  4876   001A38  EF26  F00D         	goto	l1505
  4877   001A3C                     u3790:
  4878   001A3C  0E02               	movlw	2
  4879   001A3E  6015               	cpfslt	___xxtofl@exp^0,c
  4880   001A40  EF24  F00D         	goto	u3801
  4881   001A44  EF26  F00D         	goto	u3800
  4882   001A48                     u3801:
  4883   001A48  EF11  F00D         	goto	l4495
  4884   001A4C                     u3800:
  4885   001A4C                     l1505:
  4886   001A4C  B015               	btfsc	___xxtofl@exp^0,0,c
  4887   001A4E  EF2B  F00D         	goto	u3811
  4888   001A52  EF2D  F00D         	goto	u3810
  4889   001A56                     u3811:
  4890   001A56  EF2E  F00D         	goto	l4503
  4891   001A5A                     u3810:
  4892   001A5A  9E18               	bcf	(___xxtofl@arg+2)^0,7,c
  4893   001A5C                     l4503:
  4894   001A5C  90D8               	bcf	status,0,c
  4895   001A5E  3215               	rrcf	___xxtofl@exp^0,f,c
  4896   001A60  C015  F010         	movff	___xxtofl@exp,??___xxtofl
  4897   001A64  6A11               	clrf	(??___xxtofl+1)^0,c
  4898   001A66  6A12               	clrf	(??___xxtofl+2)^0,c
  4899   001A68  6A13               	clrf	(??___xxtofl+3)^0,c
  4900   001A6A  C010  F013         	movff	??___xxtofl,??___xxtofl+3
  4901   001A6E  6A12               	clrf	(??___xxtofl+2)^0,c
  4902   001A70  6A11               	clrf	(??___xxtofl+1)^0,c
  4903   001A72  6A10               	clrf	??___xxtofl^0,c
  4904   001A74  5010               	movf	??___xxtofl^0,w,c
  4905   001A76  1216               	iorwf	___xxtofl@arg^0,f,c
  4906   001A78  5011               	movf	(??___xxtofl+1)^0,w,c
  4907   001A7A  1217               	iorwf	(___xxtofl@arg+1)^0,f,c
  4908   001A7C  5012               	movf	(??___xxtofl+2)^0,w,c
  4909   001A7E  1218               	iorwf	(___xxtofl@arg+2)^0,f,c
  4910   001A80  5013               	movf	(??___xxtofl+3)^0,w,c
  4911   001A82  1219               	iorwf	(___xxtofl@arg+3)^0,f,c
  4912   001A84  5014               	movf	___xxtofl@sign^0,w,c
  4913   001A86  B4D8               	btfsc	status,2,c
  4914   001A88  EF48  F00D         	goto	u3821
  4915   001A8C  EF4A  F00D         	goto	u3820
  4916   001A90                     u3821:
  4917   001A90  EF52  F00D         	goto	l4513
  4918   001A94                     u3820:
  4919   001A94  BE0F               	btfsc	(___xxtofl@val+3)^0,7,c
  4920   001A96  EF51  F00D         	goto	u3830
  4921   001A9A  EF4F  F00D         	goto	u3831
  4922   001A9E                     u3831:
  4923   001A9E  EF52  F00D         	goto	l4513
  4924   001AA2                     u3830:
  4925   001AA2  8E19               	bsf	(___xxtofl@arg+3)^0,7,c
  4926   001AA4                     l4513:
  4927   001AA4  C016  F00C         	movff	___xxtofl@arg,?___xxtofl
  4928   001AA8  C017  F00D         	movff	___xxtofl@arg+1,?___xxtofl+1
  4929   001AAC  C018  F00E         	movff	___xxtofl@arg+2,?___xxtofl+2
  4930   001AB0  C019  F00F         	movff	___xxtofl@arg+3,?___xxtofl+3
  4931   001AB4                     l1494:
  4932   001AB4  0012               	return		;funcret
  4933   001AB6                     __end_of___xxtofl:
  4934                           	callstack 0
  4935                           
  4936 ;; *************** function ___fltol *****************
  4937 ;; Defined at:
  4938 ;;		line 43 in file "E:\Program Files\Microchip\xc8\v2.41\pic\sources\c99\common\fltol.c"
  4939 ;; Parameters:    Size  Location     Type
  4940 ;;  f1              4   50[COMRAM] unsigned char 
  4941 ;; Auto vars:     Size  Location     Type
  4942 ;;  exp1            1   59[COMRAM] unsigned char 
  4943 ;;  sign1           1   58[COMRAM] unsigned char 
  4944 ;; Return value:  Size  Location     Type
  4945 ;;                  4   50[COMRAM] long 
  4946 ;; Registers used:
  4947 ;;		wreg, status,2, status,0
  4948 ;; Tracked objects:
  4949 ;;		On entry : 0/0
  4950 ;;		On exit  : 0/0
  4951 ;;		Unchanged: 0/0
  4952 ;; Data sizes:     COMRAM   BANK0   BANK1   BANK2   BANK3   BANK4   BANK5   BANK6   BANK7   BANK8   BANK9  BANK10  BANK1
      +1  BANK12  BANK13  BANK14  BANK15
  4953 ;;      Params:         4       0       0       0       0       0       0       0       0       0       0       0       
      +0       0       0       0       0
  4954 ;;      Locals:         2       0       0       0       0       0       0       0       0       0       0       0       
      +0       0       0       0       0
  4955 ;;      Temps:          4       0       0       0       0       0       0       0       0       0       0       0       
      +0       0       0       0       0
  4956 ;;      Totals:        10       0       0       0       0       0       0       0       0       0       0       0       
      +0       0       0       0       0
  4957 ;;Total ram usage:       10 bytes
  4958 ;; Hardware stack levels used: 1
  4959 ;; Hardware stack levels required when called: 4
  4960 ;; This function calls:
  4961 ;;		Nothing
  4962 ;; This function is called by:
  4963 ;;		_main
  4964 ;; This function uses a non-reentrant model
  4965 ;;
  4966                           
  4967                           	psect	text31
  4968   0020D8                     __ptext31:
  4969                           	callstack 0
  4970   0020D8                     ___fltol:
  4971                           	callstack 26
  4972   0020D8  3435               	rlcf	(___fltol@f1+2)^0,w,c
  4973   0020DA  3436               	rlcf	(___fltol@f1+3)^0,w,c
  4974   0020DC  6E3C               	movwf	___fltol@exp1^0,c
  4975   0020DE  503C               	movf	___fltol@exp1^0,w,c
  4976   0020E0  A4D8               	btfss	status,2,c
  4977   0020E2  EF75  F010         	goto	u3671
  4978   0020E6  EF77  F010         	goto	u3670
  4979   0020EA                     u3671:
  4980   0020EA  EF81  F010         	goto	l4433
  4981   0020EE                     u3670:
  4982   0020EE                     l4429:
  4983   0020EE  0E00               	movlw	0
  4984   0020F0  6E33               	movwf	?___fltol^0,c
  4985   0020F2  0E00               	movlw	0
  4986   0020F4  6E34               	movwf	(?___fltol+1)^0,c
  4987   0020F6  0E00               	movlw	0
  4988   0020F8  6E35               	movwf	(?___fltol+2)^0,c
  4989   0020FA  0E00               	movlw	0
  4990   0020FC  6E36               	movwf	(?___fltol+3)^0,c
  4991   0020FE  EFEE  F010         	goto	l1133
  4992   002102                     l4433:
  4993   002102  C033  F037         	movff	___fltol@f1,??___fltol
  4994   002106  C034  F038         	movff	___fltol@f1+1,??___fltol+1
  4995   00210A  C035  F039         	movff	___fltol@f1+2,??___fltol+2
  4996   00210E  C036  F03A         	movff	___fltol@f1+3,??___fltol+3
  4997   002112  0E20               	movlw	32
  4998   002114  EF91  F010         	goto	u3680
  4999   002118                     u3685:
  5000   002118  90D8               	bcf	status,0,c
  5001   00211A  323A               	rrcf	(??___fltol+3)^0,f,c
  5002   00211C  3239               	rrcf	(??___fltol+2)^0,f,c
  5003   00211E  3238               	rrcf	(??___fltol+1)^0,f,c
  5004   002120  3237               	rrcf	??___fltol^0,f,c
  5005   002122                     u3680:
  5006   002122  2EE8               	decfsz	wreg,f,c
  5007   002124  EF8C  F010         	goto	u3685
  5008   002128  5037               	movf	??___fltol^0,w,c
  5009   00212A  6E3B               	movwf	___fltol@sign1^0,c
  5010   00212C  8E35               	bsf	(___fltol@f1+2)^0,7,c
  5011   00212E  0EFF               	movlw	255
  5012   002130  1633               	andwf	___fltol@f1^0,f,c
  5013   002132  0EFF               	movlw	255
  5014   002134  1634               	andwf	(___fltol@f1+1)^0,f,c
  5015   002136  0EFF               	movlw	255
  5016   002138  1635               	andwf	(___fltol@f1+2)^0,f,c
  5017   00213A  0E00               	movlw	0
  5018   00213C  1636               	andwf	(___fltol@f1+3)^0,f,c
  5019   00213E  0E96               	movlw	150
  5020   002140  5E3C               	subwf	___fltol@exp1^0,f,c
  5021   002142  BE3C               	btfsc	___fltol@exp1^0,7,c
  5022   002144  EFA8  F010         	goto	u3690
  5023   002148  EFA6  F010         	goto	u3691
  5024   00214C                     u3691:
  5025   00214C  EFBE  F010         	goto	l4453
  5026   002150                     u3690:
  5027   002150  503C               	movf	___fltol@exp1^0,w,c
  5028   002152  0A80               	xorlw	128
  5029   002154  0F97               	addlw	151
  5030   002156  B0D8               	btfsc	status,0,c
  5031   002158  EFB0  F010         	goto	u3701
  5032   00215C  EFB2  F010         	goto	u3700
  5033   002160                     u3701:
  5034   002160  EFB4  F010         	goto	l4449
  5035   002164                     u3700:
  5036   002164  EF77  F010         	goto	l4429
  5037   002168                     l4449:
  5038   002168  90D8               	bcf	status,0,c
  5039   00216A  3236               	rrcf	(___fltol@f1+3)^0,f,c
  5040   00216C  3235               	rrcf	(___fltol@f1+2)^0,f,c
  5041   00216E  3234               	rrcf	(___fltol@f1+1)^0,f,c
  5042   002170  3233               	rrcf	___fltol@f1^0,f,c
  5043   002172  3E3C               	incfsz	___fltol@exp1^0,f,c
  5044   002174  EFB4  F010         	goto	l4449
  5045   002178  EFD6  F010         	goto	l4463
  5046   00217C                     l4453:
  5047   00217C  0E1F               	movlw	31
  5048   00217E  643C               	cpfsgt	___fltol@exp1^0,c
  5049   002180  EFC4  F010         	goto	u3711
  5050   002184  EFC6  F010         	goto	u3710
  5051   002188                     u3711:
  5052   002188  EFCE  F010         	goto	l4461
  5053   00218C                     u3710:
  5054   00218C  EF77  F010         	goto	l4429
  5055   002190                     l4459:
  5056   002190  90D8               	bcf	status,0,c
  5057   002192  3633               	rlcf	___fltol@f1^0,f,c
  5058   002194  3634               	rlcf	(___fltol@f1+1)^0,f,c
  5059   002196  3635               	rlcf	(___fltol@f1+2)^0,f,c
  5060   002198  3636               	rlcf	(___fltol@f1+3)^0,f,c
  5061   00219A  063C               	decf	___fltol@exp1^0,f,c
  5062   00219C                     l4461:
  5063   00219C  503C               	movf	___fltol@exp1^0,w,c
  5064   00219E  A4D8               	btfss	status,2,c
  5065   0021A0  EFD4  F010         	goto	u3721
  5066   0021A4  EFD6  F010         	goto	u3720
  5067   0021A8                     u3721:
  5068   0021A8  EFC8  F010         	goto	l4459
  5069   0021AC                     u3720:
  5070   0021AC                     l4463:
  5071   0021AC  503B               	movf	___fltol@sign1^0,w,c
  5072   0021AE  B4D8               	btfsc	status,2,c
  5073   0021B0  EFDC  F010         	goto	u3731
  5074   0021B4  EFDE  F010         	goto	u3730
  5075   0021B8                     u3731:
  5076   0021B8  EFE6  F010         	goto	l4467
  5077   0021BC                     u3730:
  5078   0021BC  1E36               	comf	(___fltol@f1+3)^0,f,c
  5079   0021BE  1E35               	comf	(___fltol@f1+2)^0,f,c
  5080   0021C0  1E34               	comf	(___fltol@f1+1)^0,f,c
  5081   0021C2  6C33               	negf	___fltol@f1^0,c
  5082   0021C4  0E00               	movlw	0
  5083   0021C6  2234               	addwfc	(___fltol@f1+1)^0,f,c
  5084   0021C8  2235               	addwfc	(___fltol@f1+2)^0,f,c
  5085   0021CA  2236               	addwfc	(___fltol@f1+3)^0,f,c
  5086   0021CC                     l4467:
  5087   0021CC  C033  F033         	movff	___fltol@f1,?___fltol
  5088   0021D0  C034  F034         	movff	___fltol@f1+1,?___fltol+1
  5089   0021D4  C035  F035         	movff	___fltol@f1+2,?___fltol+2
  5090   0021D8  C036  F036         	movff	___fltol@f1+3,?___fltol+3
  5091   0021DC                     l1133:
  5092   0021DC  0012               	return		;funcret
  5093   0021DE                     __end_of___fltol:
  5094                           	callstack 0
  5095                           
  5096 ;; *************** function ___flmul *****************
  5097 ;; Defined at:
  5098 ;;		line 8 in file "E:\Program Files\Microchip\xc8\v2.41\pic\sources\c99\common\sprcmul.c"
  5099 ;; Parameters:    Size  Location     Type
  5100 ;;  b               4   25[COMRAM] long 
  5101 ;;  a               4   29[COMRAM] long 
  5102 ;; Auto vars:     Size  Location     Type
  5103 ;;  prod            4   44[COMRAM] struct .
  5104 ;;  grs             4   38[COMRAM] unsigned long 
  5105 ;;  temp            2   48[COMRAM] struct .
  5106 ;;  bexp            1   43[COMRAM] unsigned char 
  5107 ;;  aexp            1   42[COMRAM] unsigned char 
  5108 ;;  sign            1   37[COMRAM] unsigned char 
  5109 ;; Return value:  Size  Location     Type
  5110 ;;                  4   25[COMRAM] unsigned char 
  5111 ;; Registers used:
  5112 ;;		wreg, status,2, status,0, prodl, prodh
  5113 ;; Tracked objects:
  5114 ;;		On entry : 0/0
  5115 ;;		On exit  : 0/0
  5116 ;;		Unchanged: 0/0
  5117 ;; Data sizes:     COMRAM   BANK0   BANK1   BANK2   BANK3   BANK4   BANK5   BANK6   BANK7   BANK8   BANK9  BANK10  BANK1
      +1  BANK12  BANK13  BANK14  BANK15
  5118 ;;      Params:         8       0       0       0       0       0       0       0       0       0       0       0       
      +0       0       0       0       0
  5119 ;;      Locals:        13       0       0       0       0       0       0       0       0       0       0       0       
      +0       0       0       0       0
  5120 ;;      Temps:          4       0       0       0       0       0       0       0       0       0       0       0       
      +0       0       0       0       0
  5121 ;;      Totals:        25       0       0       0       0       0       0       0       0       0       0       0       
      +0       0       0       0       0
  5122 ;;Total ram usage:       25 bytes
  5123 ;; Hardware stack levels used: 1
  5124 ;; Hardware stack levels required when called: 4
  5125 ;; This function calls:
  5126 ;;		Nothing
  5127 ;; This function is called by:
  5128 ;;		_main
  5129 ;; This function uses a non-reentrant model
  5130 ;;
  5131                           
  5132                           	psect	text32
  5133   001016                     __ptext32:
  5134                           	callstack 0
  5135   001016                     ___flmul:
  5136                           	callstack 26
  5137   001016  501D               	movf	(___flmul@b+3)^0,w,c
  5138   001018  0B80               	andlw	128
  5139   00101A  6E26               	movwf	___flmul@sign^0,c
  5140   00101C  501D               	movf	(___flmul@b+3)^0,w,c
  5141   00101E  241D               	addwf	(___flmul@b+3)^0,w,c
  5142   001020  6E2C               	movwf	___flmul@bexp^0,c
  5143   001022  AE1C               	btfss	(___flmul@b+2)^0,7,c
  5144   001024  EF16  F008         	goto	u3481
  5145   001028  EF18  F008         	goto	u3480
  5146   00102C                     u3481:
  5147   00102C  EF19  F008         	goto	l4303
  5148   001030                     u3480:
  5149   001030  802C               	bsf	___flmul@bexp^0,0,c
  5150   001032                     l4303:
  5151   001032  502C               	movf	___flmul@bexp^0,w,c
  5152   001034  B4D8               	btfsc	status,2,c
  5153   001036  EF1F  F008         	goto	u3491
  5154   00103A  EF21  F008         	goto	u3490
  5155   00103E                     u3491:
  5156   00103E  EF34  F008         	goto	l4311
  5157   001042                     u3490:
  5158   001042  282C               	incf	___flmul@bexp^0,w,c
  5159   001044  A4D8               	btfss	status,2,c
  5160   001046  EF27  F008         	goto	u3501
  5161   00104A  EF29  F008         	goto	u3500
  5162   00104E                     u3501:
  5163   00104E  EF31  F008         	goto	l4309
  5164   001052                     u3500:
  5165   001052  0E00               	movlw	0
  5166   001054  6E1A               	movwf	___flmul@b^0,c
  5167   001056  0E00               	movlw	0
  5168   001058  6E1B               	movwf	(___flmul@b+1)^0,c
  5169   00105A  0E00               	movlw	0
  5170   00105C  6E1C               	movwf	(___flmul@b+2)^0,c
  5171   00105E  0E00               	movlw	0
  5172   001060  6E1D               	movwf	(___flmul@b+3)^0,c
  5173   001062                     l4309:
  5174   001062  8E1C               	bsf	(___flmul@b+2)^0,7,c
  5175   001064  EF3C  F008         	goto	l4313
  5176   001068                     l4311:
  5177   001068  0E00               	movlw	0
  5178   00106A  6E1A               	movwf	___flmul@b^0,c
  5179   00106C  0E00               	movlw	0
  5180   00106E  6E1B               	movwf	(___flmul@b+1)^0,c
  5181   001070  0E00               	movlw	0
  5182   001072  6E1C               	movwf	(___flmul@b+2)^0,c
  5183   001074  0E00               	movlw	0
  5184   001076  6E1D               	movwf	(___flmul@b+3)^0,c
  5185   001078                     l4313:
  5186   001078  5021               	movf	(___flmul@a+3)^0,w,c
  5187   00107A  0B80               	andlw	128
  5188   00107C  1A26               	xorwf	___flmul@sign^0,f,c
  5189   00107E  5021               	movf	(___flmul@a+3)^0,w,c
  5190   001080  2421               	addwf	(___flmul@a+3)^0,w,c
  5191   001082  6E2B               	movwf	___flmul@aexp^0,c
  5192   001084  AE20               	btfss	(___flmul@a+2)^0,7,c
  5193   001086  EF47  F008         	goto	u3511
  5194   00108A  EF49  F008         	goto	u3510
  5195   00108E                     u3511:
  5196   00108E  EF4A  F008         	goto	l4321
  5197   001092                     u3510:
  5198   001092  802B               	bsf	___flmul@aexp^0,0,c
  5199   001094                     l4321:
  5200   001094  502B               	movf	___flmul@aexp^0,w,c
  5201   001096  B4D8               	btfsc	status,2,c
  5202   001098  EF50  F008         	goto	u3521
  5203   00109C  EF52  F008         	goto	u3520
  5204   0010A0                     u3521:
  5205   0010A0  EF65  F008         	goto	l4329
  5206   0010A4                     u3520:
  5207   0010A4  282B               	incf	___flmul@aexp^0,w,c
  5208   0010A6  A4D8               	btfss	status,2,c
  5209   0010A8  EF58  F008         	goto	u3531
  5210   0010AC  EF5A  F008         	goto	u3530
  5211   0010B0                     u3531:
  5212   0010B0  EF62  F008         	goto	l4327
  5213   0010B4                     u3530:
  5214   0010B4  0E00               	movlw	0
  5215   0010B6  6E1E               	movwf	___flmul@a^0,c
  5216   0010B8  0E00               	movlw	0
  5217   0010BA  6E1F               	movwf	(___flmul@a+1)^0,c
  5218   0010BC  0E00               	movlw	0
  5219   0010BE  6E20               	movwf	(___flmul@a+2)^0,c
  5220   0010C0  0E00               	movlw	0
  5221   0010C2  6E21               	movwf	(___flmul@a+3)^0,c
  5222   0010C4                     l4327:
  5223   0010C4  8E20               	bsf	(___flmul@a+2)^0,7,c
  5224   0010C6  EF6D  F008         	goto	l1450
  5225   0010CA                     l4329:
  5226   0010CA  0E00               	movlw	0
  5227   0010CC  6E1E               	movwf	___flmul@a^0,c
  5228   0010CE  0E00               	movlw	0
  5229   0010D0  6E1F               	movwf	(___flmul@a+1)^0,c
  5230   0010D2  0E00               	movlw	0
  5231   0010D4  6E20               	movwf	(___flmul@a+2)^0,c
  5232   0010D6  0E00               	movlw	0
  5233   0010D8  6E21               	movwf	(___flmul@a+3)^0,c
  5234   0010DA                     l1450:
  5235   0010DA  502B               	movf	___flmul@aexp^0,w,c
  5236   0010DC  B4D8               	btfsc	status,2,c
  5237   0010DE  EF73  F008         	goto	u3541
  5238   0010E2  EF75  F008         	goto	u3540
  5239   0010E6                     u3541:
  5240   0010E6  EF7D  F008         	goto	l4333
  5241   0010EA                     u3540:
  5242   0010EA  502C               	movf	___flmul@bexp^0,w,c
  5243   0010EC  A4D8               	btfss	status,2,c
  5244   0010EE  EF7B  F008         	goto	u3551
  5245   0010F2  EF7D  F008         	goto	u3550
  5246   0010F6                     u3551:
  5247   0010F6  EF87  F008         	goto	l4337
  5248   0010FA                     u3550:
  5249   0010FA                     l4333:
  5250   0010FA  0E00               	movlw	0
  5251   0010FC  6E1A               	movwf	?___flmul^0,c
  5252   0010FE  0E00               	movlw	0
  5253   001100  6E1B               	movwf	(?___flmul+1)^0,c
  5254   001102  0E00               	movlw	0
  5255   001104  6E1C               	movwf	(?___flmul+2)^0,c
  5256   001106  0E00               	movlw	0
  5257   001108  6E1D               	movwf	(?___flmul+3)^0,c
  5258   00110A  EF1F  F00A         	goto	l1454
  5259   00110E                     l4337:
  5260   00110E  5020               	movf	(___flmul@a+2)^0,w,c
  5261   001110  021A               	mulwf	___flmul@b^0,c
  5262   001112  CFF3 F031          	movff	prodl,___flmul@temp
  5263   001116  CFF4 F032          	movff	prodh,___flmul@temp+1
  5264   00111A  5031               	movf	___flmul@temp^0,w,c
  5265   00111C  6E27               	movwf	___flmul@grs^0,c
  5266   00111E  6A28               	clrf	(___flmul@grs+1)^0,c
  5267   001120  6A29               	clrf	(___flmul@grs+2)^0,c
  5268   001122  6A2A               	clrf	(___flmul@grs+3)^0,c
  5269   001124  5032               	movf	(___flmul@temp+1)^0,w,c
  5270   001126  6E2D               	movwf	___flmul@prod^0,c
  5271   001128  6A2E               	clrf	(___flmul@prod+1)^0,c
  5272   00112A  6A2F               	clrf	(___flmul@prod+2)^0,c
  5273   00112C  6A30               	clrf	(___flmul@prod+3)^0,c
  5274   00112E  501F               	movf	(___flmul@a+1)^0,w,c
  5275   001130  021B               	mulwf	(___flmul@b+1)^0,c
  5276   001132  CFF3 F031          	movff	prodl,___flmul@temp
  5277   001136  CFF4 F032          	movff	prodh,___flmul@temp+1
  5278   00113A  5031               	movf	___flmul@temp^0,w,c
  5279   00113C  2627               	addwf	___flmul@grs^0,f,c
  5280   00113E  0E00               	movlw	0
  5281   001140  2228               	addwfc	(___flmul@grs+1)^0,f,c
  5282   001142  2229               	addwfc	(___flmul@grs+2)^0,f,c
  5283   001144  222A               	addwfc	(___flmul@grs+3)^0,f,c
  5284   001146  5032               	movf	(___flmul@temp+1)^0,w,c
  5285   001148  262D               	addwf	___flmul@prod^0,f,c
  5286   00114A  0E00               	movlw	0
  5287   00114C  222E               	addwfc	(___flmul@prod+1)^0,f,c
  5288   00114E  222F               	addwfc	(___flmul@prod+2)^0,f,c
  5289   001150  2230               	addwfc	(___flmul@prod+3)^0,f,c
  5290   001152  501E               	movf	___flmul@a^0,w,c
  5291   001154  021C               	mulwf	(___flmul@b+2)^0,c
  5292   001156  CFF3 F031          	movff	prodl,___flmul@temp
  5293   00115A  CFF4 F032          	movff	prodh,___flmul@temp+1
  5294   00115E  5031               	movf	___flmul@temp^0,w,c
  5295   001160  2627               	addwf	___flmul@grs^0,f,c
  5296   001162  0E00               	movlw	0
  5297   001164  2228               	addwfc	(___flmul@grs+1)^0,f,c
  5298   001166  2229               	addwfc	(___flmul@grs+2)^0,f,c
  5299   001168  222A               	addwfc	(___flmul@grs+3)^0,f,c
  5300   00116A  5032               	movf	(___flmul@temp+1)^0,w,c
  5301   00116C  262D               	addwf	___flmul@prod^0,f,c
  5302   00116E  0E00               	movlw	0
  5303   001170  222E               	addwfc	(___flmul@prod+1)^0,f,c
  5304   001172  222F               	addwfc	(___flmul@prod+2)^0,f,c
  5305   001174  2230               	addwfc	(___flmul@prod+3)^0,f,c
  5306   001176  C029  F02A         	movff	___flmul@grs+2,___flmul@grs+3
  5307   00117A  C028  F029         	movff	___flmul@grs+1,___flmul@grs+2
  5308   00117E  C027  F028         	movff	___flmul@grs,___flmul@grs+1
  5309   001182  6A27               	clrf	___flmul@grs^0,c
  5310   001184  501E               	movf	___flmul@a^0,w,c
  5311   001186  021B               	mulwf	(___flmul@b+1)^0,c
  5312   001188  CFF3 F031          	movff	prodl,___flmul@temp
  5313   00118C  CFF4 F032          	movff	prodh,___flmul@temp+1
  5314   001190  5031               	movf	___flmul@temp^0,w,c
  5315   001192  2627               	addwf	___flmul@grs^0,f,c
  5316   001194  5032               	movf	(___flmul@temp+1)^0,w,c
  5317   001196  2228               	addwfc	(___flmul@grs+1)^0,f,c
  5318   001198  0E00               	movlw	0
  5319   00119A  2229               	addwfc	(___flmul@grs+2)^0,f,c
  5320   00119C  0E00               	movlw	0
  5321   00119E  222A               	addwfc	(___flmul@grs+3)^0,f,c
  5322   0011A0  501F               	movf	(___flmul@a+1)^0,w,c
  5323   0011A2  021A               	mulwf	___flmul@b^0,c
  5324   0011A4  CFF3 F031          	movff	prodl,___flmul@temp
  5325   0011A8  CFF4 F032          	movff	prodh,___flmul@temp+1
  5326   0011AC  5031               	movf	___flmul@temp^0,w,c
  5327   0011AE  2627               	addwf	___flmul@grs^0,f,c
  5328   0011B0  5032               	movf	(___flmul@temp+1)^0,w,c
  5329   0011B2  2228               	addwfc	(___flmul@grs+1)^0,f,c
  5330   0011B4  0E00               	movlw	0
  5331   0011B6  2229               	addwfc	(___flmul@grs+2)^0,f,c
  5332   0011B8  0E00               	movlw	0
  5333   0011BA  222A               	addwfc	(___flmul@grs+3)^0,f,c
  5334   0011BC  C029  F02A         	movff	___flmul@grs+2,___flmul@grs+3
  5335   0011C0  C028  F029         	movff	___flmul@grs+1,___flmul@grs+2
  5336   0011C4  C027  F028         	movff	___flmul@grs,___flmul@grs+1
  5337   0011C8  6A27               	clrf	___flmul@grs^0,c
  5338   0011CA  501E               	movf	___flmul@a^0,w,c
  5339   0011CC  021A               	mulwf	___flmul@b^0,c
  5340   0011CE  CFF3 F031          	movff	prodl,___flmul@temp
  5341   0011D2  CFF4 F032          	movff	prodh,___flmul@temp+1
  5342   0011D6  5031               	movf	___flmul@temp^0,w,c
  5343   0011D8  2627               	addwf	___flmul@grs^0,f,c
  5344   0011DA  5032               	movf	(___flmul@temp+1)^0,w,c
  5345   0011DC  2228               	addwfc	(___flmul@grs+1)^0,f,c
  5346   0011DE  0E00               	movlw	0
  5347   0011E0  2229               	addwfc	(___flmul@grs+2)^0,f,c
  5348   0011E2  0E00               	movlw	0
  5349   0011E4  222A               	addwfc	(___flmul@grs+3)^0,f,c
  5350   0011E6  5020               	movf	(___flmul@a+2)^0,w,c
  5351   0011E8  021B               	mulwf	(___flmul@b+1)^0,c
  5352   0011EA  CFF3 F031          	movff	prodl,___flmul@temp
  5353   0011EE  CFF4 F032          	movff	prodh,___flmul@temp+1
  5354   0011F2  5031               	movf	___flmul@temp^0,w,c
  5355   0011F4  262D               	addwf	___flmul@prod^0,f,c
  5356   0011F6  5032               	movf	(___flmul@temp+1)^0,w,c
  5357   0011F8  222E               	addwfc	(___flmul@prod+1)^0,f,c
  5358   0011FA  0E00               	movlw	0
  5359   0011FC  222F               	addwfc	(___flmul@prod+2)^0,f,c
  5360   0011FE  0E00               	movlw	0
  5361   001200  2230               	addwfc	(___flmul@prod+3)^0,f,c
  5362   001202  501F               	movf	(___flmul@a+1)^0,w,c
  5363   001204  021C               	mulwf	(___flmul@b+2)^0,c
  5364   001206  CFF3 F031          	movff	prodl,___flmul@temp
  5365   00120A  CFF4 F032          	movff	prodh,___flmul@temp+1
  5366   00120E  5031               	movf	___flmul@temp^0,w,c
  5367   001210  262D               	addwf	___flmul@prod^0,f,c
  5368   001212  5032               	movf	(___flmul@temp+1)^0,w,c
  5369   001214  222E               	addwfc	(___flmul@prod+1)^0,f,c
  5370   001216  0E00               	movlw	0
  5371   001218  222F               	addwfc	(___flmul@prod+2)^0,f,c
  5372   00121A  0E00               	movlw	0
  5373   00121C  2230               	addwfc	(___flmul@prod+3)^0,f,c
  5374   00121E  5020               	movf	(___flmul@a+2)^0,w,c
  5375   001220  021C               	mulwf	(___flmul@b+2)^0,c
  5376   001222  CFF3 F031          	movff	prodl,___flmul@temp
  5377   001226  CFF4 F032          	movff	prodh,___flmul@temp+1
  5378   00122A  5031               	movf	___flmul@temp^0,w,c
  5379   00122C  6E22               	movwf	??___flmul^0,c
  5380   00122E  5032               	movf	(___flmul@temp+1)^0,w,c
  5381   001230  6E23               	movwf	(??___flmul+1)^0,c
  5382   001232  6A24               	clrf	(??___flmul+2)^0,c
  5383   001234  6A25               	clrf	(??___flmul+3)^0,c
  5384   001236  C024  F025         	movff	??___flmul+2,??___flmul+3
  5385   00123A  C023  F024         	movff	??___flmul+1,??___flmul+2
  5386   00123E  C022  F023         	movff	??___flmul,??___flmul+1
  5387   001242  6A22               	clrf	??___flmul^0,c
  5388   001244  5022               	movf	??___flmul^0,w,c
  5389   001246  262D               	addwf	___flmul@prod^0,f,c
  5390   001248  5023               	movf	(??___flmul+1)^0,w,c
  5391   00124A  222E               	addwfc	(___flmul@prod+1)^0,f,c
  5392   00124C  5024               	movf	(??___flmul+2)^0,w,c
  5393   00124E  222F               	addwfc	(___flmul@prod+2)^0,f,c
  5394   001250  5025               	movf	(??___flmul+3)^0,w,c
  5395   001252  2230               	addwfc	(___flmul@prod+3)^0,f,c
  5396   001254  C027  F022         	movff	___flmul@grs,??___flmul
  5397   001258  C028  F023         	movff	___flmul@grs+1,??___flmul+1
  5398   00125C  C029  F024         	movff	___flmul@grs+2,??___flmul+2
  5399   001260  C02A  F025         	movff	___flmul@grs+3,??___flmul+3
  5400   001264  0E19               	movlw	25
  5401   001266  EF3A  F009         	goto	u3560
  5402   00126A                     u3565:
  5403   00126A  90D8               	bcf	status,0,c
  5404   00126C  3225               	rrcf	(??___flmul+3)^0,f,c
  5405   00126E  3224               	rrcf	(??___flmul+2)^0,f,c
  5406   001270  3223               	rrcf	(??___flmul+1)^0,f,c
  5407   001272  3222               	rrcf	??___flmul^0,f,c
  5408   001274                     u3560:
  5409   001274  2EE8               	decfsz	wreg,f,c
  5410   001276  EF35  F009         	goto	u3565
  5411   00127A  5022               	movf	??___flmul^0,w,c
  5412   00127C  262D               	addwf	___flmul@prod^0,f,c
  5413   00127E  5023               	movf	(??___flmul+1)^0,w,c
  5414   001280  222E               	addwfc	(___flmul@prod+1)^0,f,c
  5415   001282  5024               	movf	(??___flmul+2)^0,w,c
  5416   001284  222F               	addwfc	(___flmul@prod+2)^0,f,c
  5417   001286  5025               	movf	(??___flmul+3)^0,w,c
  5418   001288  2230               	addwfc	(___flmul@prod+3)^0,f,c
  5419   00128A  C029  F02A         	movff	___flmul@grs+2,___flmul@grs+3
  5420   00128E  C028  F029         	movff	___flmul@grs+1,___flmul@grs+2
  5421   001292  C027  F028         	movff	___flmul@grs,___flmul@grs+1
  5422   001296  6A27               	clrf	___flmul@grs^0,c
  5423   001298  502B               	movf	___flmul@aexp^0,w,c
  5424   00129A  C02C  F022         	movff	___flmul@bexp,??___flmul
  5425   00129E  6A23               	clrf	(??___flmul+1)^0,c
  5426   0012A0  2622               	addwf	??___flmul^0,f,c
  5427   0012A2  0E00               	movlw	0
  5428   0012A4  2223               	addwfc	(??___flmul+1)^0,f,c
  5429   0012A6  0E82               	movlw	130
  5430   0012A8  2422               	addwf	??___flmul^0,w,c
  5431   0012AA  6E31               	movwf	___flmul@temp^0,c
  5432   0012AC  0EFF               	movlw	255
  5433   0012AE  2023               	addwfc	(??___flmul+1)^0,w,c
  5434   0012B0  6E32               	movwf	(___flmul@temp+1)^0,c
  5435   0012B2  EF70  F009         	goto	l4385
  5436   0012B6                     l4379:
  5437   0012B6  90D8               	bcf	status,0,c
  5438   0012B8  362D               	rlcf	___flmul@prod^0,f,c
  5439   0012BA  362E               	rlcf	(___flmul@prod+1)^0,f,c
  5440   0012BC  362F               	rlcf	(___flmul@prod+2)^0,f,c
  5441   0012BE  3630               	rlcf	(___flmul@prod+3)^0,f,c
  5442   0012C0  AE2A               	btfss	(___flmul@grs+3)^0,7,c
  5443   0012C2  EF65  F009         	goto	u3571
  5444   0012C6  EF67  F009         	goto	u3570
  5445   0012CA                     u3571:
  5446   0012CA  EF68  F009         	goto	l1457
  5447   0012CE                     u3570:
  5448   0012CE  802D               	bsf	___flmul@prod^0,0,c
  5449   0012D0                     l1457:
  5450   0012D0  90D8               	bcf	status,0,c
  5451   0012D2  3627               	rlcf	___flmul@grs^0,f,c
  5452   0012D4  3628               	rlcf	(___flmul@grs+1)^0,f,c
  5453   0012D6  3629               	rlcf	(___flmul@grs+2)^0,f,c
  5454   0012D8  362A               	rlcf	(___flmul@grs+3)^0,f,c
  5455   0012DA  0631               	decf	___flmul@temp^0,f,c
  5456   0012DC  A0D8               	btfss	status,0,c
  5457   0012DE  0632               	decf	(___flmul@temp+1)^0,f,c
  5458   0012E0                     l4385:
  5459   0012E0  AE2F               	btfss	(___flmul@prod+2)^0,7,c
  5460   0012E2  EF75  F009         	goto	u3581
  5461   0012E6  EF77  F009         	goto	u3580
  5462   0012EA                     u3581:
  5463   0012EA  EF5B  F009         	goto	l4379
  5464   0012EE                     u3580:
  5465   0012EE  0E00               	movlw	0
  5466   0012F0  6E2B               	movwf	___flmul@aexp^0,c
  5467   0012F2  AE2A               	btfss	(___flmul@grs+3)^0,7,c
  5468   0012F4  EF7E  F009         	goto	u3591
  5469   0012F8  EF80  F009         	goto	u3590
  5470   0012FC                     u3591:
  5471   0012FC  EFA4  F009         	goto	l1459
  5472   001300                     u3590:
  5473   001300  0EFF               	movlw	255
  5474   001302  1427               	andwf	___flmul@grs^0,w,c
  5475   001304  6E22               	movwf	??___flmul^0,c
  5476   001306  0EFF               	movlw	255
  5477   001308  1428               	andwf	(___flmul@grs+1)^0,w,c
  5478   00130A  6E23               	movwf	(??___flmul+1)^0,c
  5479   00130C  0EFF               	movlw	255
  5480   00130E  1429               	andwf	(___flmul@grs+2)^0,w,c
  5481   001310  6E24               	movwf	(??___flmul+2)^0,c
  5482   001312  0E7F               	movlw	127
  5483   001314  142A               	andwf	(___flmul@grs+3)^0,w,c
  5484   001316  6E25               	movwf	(??___flmul+3)^0,c
  5485   001318  5022               	movf	??___flmul^0,w,c
  5486   00131A  1023               	iorwf	(??___flmul+1)^0,w,c
  5487   00131C  1024               	iorwf	(??___flmul+2)^0,w,c
  5488   00131E  1025               	iorwf	(??___flmul+3)^0,w,c
  5489   001320  B4D8               	btfsc	status,2,c
  5490   001322  EF95  F009         	goto	u3601
  5491   001326  EF97  F009         	goto	u3600
  5492   00132A                     u3601:
  5493   00132A  EF9B  F009         	goto	l1460
  5494   00132E                     u3600:
  5495   00132E                     l4393:
  5496   00132E  0E01               	movlw	1
  5497   001330  6E2B               	movwf	___flmul@aexp^0,c
  5498   001332  EFA4  F009         	goto	l1459
  5499   001336                     l1460:
  5500   001336  A02D               	btfss	___flmul@prod^0,0,c
  5501   001338  EFA0  F009         	goto	u3611
  5502   00133C  EFA2  F009         	goto	u3610
  5503   001340                     u3611:
  5504   001340  EFA4  F009         	goto	l1459
  5505   001344                     u3610:
  5506   001344  EF97  F009         	goto	l4393
  5507   001348                     l1459:
  5508   001348  502B               	movf	___flmul@aexp^0,w,c
  5509   00134A  B4D8               	btfsc	status,2,c
  5510   00134C  EFAA  F009         	goto	u3621
  5511   001350  EFAC  F009         	goto	u3620
  5512   001354                     u3621:
  5513   001354  EFD0  F009         	goto	l4405
  5514   001358                     u3620:
  5515   001358  0E01               	movlw	1
  5516   00135A  262D               	addwf	___flmul@prod^0,f,c
  5517   00135C  0E00               	movlw	0
  5518   00135E  222E               	addwfc	(___flmul@prod+1)^0,f,c
  5519   001360  222F               	addwfc	(___flmul@prod+2)^0,f,c
  5520   001362  2230               	addwfc	(___flmul@prod+3)^0,f,c
  5521   001364  A030               	btfss	(___flmul@prod+3)^0,0,c
  5522   001366  EFB7  F009         	goto	u3631
  5523   00136A  EFB9  F009         	goto	u3630
  5524   00136E                     u3631:
  5525   00136E  EFD0  F009         	goto	l4405
  5526   001372                     u3630:
  5527   001372  C02D  F022         	movff	___flmul@prod,??___flmul
  5528   001376  C02E  F023         	movff	___flmul@prod+1,??___flmul+1
  5529   00137A  C02F  F024         	movff	___flmul@prod+2,??___flmul+2
  5530   00137E  C030  F025         	movff	___flmul@prod+3,??___flmul+3
  5531   001382  3425               	rlcf	(??___flmul+3)^0,w,c
  5532   001384  3225               	rrcf	(??___flmul+3)^0,f,c
  5533   001386  3224               	rrcf	(??___flmul+2)^0,f,c
  5534   001388  3223               	rrcf	(??___flmul+1)^0,f,c
  5535   00138A  3222               	rrcf	??___flmul^0,f,c
  5536   00138C  C022  F02D         	movff	??___flmul,___flmul@prod
  5537   001390  C023  F02E         	movff	??___flmul+1,___flmul@prod+1
  5538   001394  C024  F02F         	movff	??___flmul+2,___flmul@prod+2
  5539   001398  C025  F030         	movff	??___flmul+3,___flmul@prod+3
  5540   00139C  4A31               	infsnz	___flmul@temp^0,f,c
  5541   00139E  2A32               	incf	(___flmul@temp+1)^0,f,c
  5542   0013A0                     l4405:
  5543   0013A0  BE32               	btfsc	(___flmul@temp+1)^0,7,c
  5544   0013A2  EFDB  F009         	goto	u3641
  5545   0013A6  5032               	movf	(___flmul@temp+1)^0,w,c
  5546   0013A8  E108               	bnz	u3640
  5547   0013AA  2831               	incf	___flmul@temp^0,w,c
  5548   0013AC  A0D8               	btfss	status,0,c
  5549   0013AE  EFDB  F009         	goto	u3641
  5550   0013B2  EFDD  F009         	goto	u3640
  5551   0013B6                     u3641:
  5552   0013B6  EFE7  F009         	goto	l4409
  5553   0013BA                     u3640:
  5554   0013BA  0E00               	movlw	0
  5555   0013BC  6E2D               	movwf	___flmul@prod^0,c
  5556   0013BE  0E00               	movlw	0
  5557   0013C0  6E2E               	movwf	(___flmul@prod+1)^0,c
  5558   0013C2  0E80               	movlw	128
  5559   0013C4  6E2F               	movwf	(___flmul@prod+2)^0,c
  5560   0013C6  0E7F               	movlw	127
  5561   0013C8  6E30               	movwf	(___flmul@prod+3)^0,c
  5562   0013CA  EF15  F00A         	goto	l4421
  5563   0013CE                     l4409:
  5564   0013CE  BE32               	btfsc	(___flmul@temp+1)^0,7,c
  5565   0013D0  EFF4  F009         	goto	u3650
  5566   0013D4  5032               	movf	(___flmul@temp+1)^0,w,c
  5567   0013D6  E106               	bnz	u3651
  5568   0013D8  0431               	decf	___flmul@temp^0,w,c
  5569   0013DA  B0D8               	btfsc	status,0,c
  5570   0013DC  EFF2  F009         	goto	u3651
  5571   0013E0  EFF4  F009         	goto	u3650
  5572   0013E4                     u3651:
  5573   0013E4  EF00  F00A         	goto	l1467
  5574   0013E8                     u3650:
  5575   0013E8  0E00               	movlw	0
  5576   0013EA  6E2D               	movwf	___flmul@prod^0,c
  5577   0013EC  0E00               	movlw	0
  5578   0013EE  6E2E               	movwf	(___flmul@prod+1)^0,c
  5579   0013F0  0E00               	movlw	0
  5580   0013F2  6E2F               	movwf	(___flmul@prod+2)^0,c
  5581   0013F4  0E00               	movlw	0
  5582   0013F6  6E30               	movwf	(___flmul@prod+3)^0,c
  5583   0013F8  0E00               	movlw	0
  5584   0013FA  6E26               	movwf	___flmul@sign^0,c
  5585   0013FC  EF15  F00A         	goto	l4421
  5586   001400                     l1467:
  5587   001400  C031  F02C         	movff	___flmul@temp,___flmul@bexp
  5588   001404  0EFF               	movlw	255
  5589   001406  162D               	andwf	___flmul@prod^0,f,c
  5590   001408  0EFF               	movlw	255
  5591   00140A  162E               	andwf	(___flmul@prod+1)^0,f,c
  5592   00140C  0E7F               	movlw	127
  5593   00140E  162F               	andwf	(___flmul@prod+2)^0,f,c
  5594   001410  0E00               	movlw	0
  5595   001412  1630               	andwf	(___flmul@prod+3)^0,f,c
  5596   001414  A02C               	btfss	___flmul@bexp^0,0,c
  5597   001416  EF0F  F00A         	goto	u3661
  5598   00141A  EF11  F00A         	goto	u3660
  5599   00141E                     u3661:
  5600   00141E  EF12  F00A         	goto	l4419
  5601   001422                     u3660:
  5602   001422  8E2F               	bsf	(___flmul@prod+2)^0,7,c
  5603   001424                     l4419:
  5604   001424  90D8               	bcf	status,0,c
  5605   001426  302C               	rrcf	___flmul@bexp^0,w,c
  5606   001428  6E30               	movwf	(___flmul@prod+3)^0,c
  5607   00142A                     l4421:
  5608   00142A  5026               	movf	___flmul@sign^0,w,c
  5609   00142C  1230               	iorwf	(___flmul@prod+3)^0,f,c
  5610   00142E  C02D  F01A         	movff	___flmul@prod,?___flmul
  5611   001432  C02E  F01B         	movff	___flmul@prod+1,?___flmul+1
  5612   001436  C02F  F01C         	movff	___flmul@prod+2,?___flmul+2
  5613   00143A  C030  F01D         	movff	___flmul@prod+3,?___flmul+3
  5614   00143E                     l1454:
  5615   00143E  0012               	return		;funcret
  5616   001440                     __end_of___flmul:
  5617                           	callstack 0
  5618                           
  5619 ;; *************** function _InterruptManagmentHigh *****************
  5620 ;; Defined at:
  5621 ;;		line 69 in file "MCAL_Layer/Interrupt/Interrupt_managment.c"
  5622 ;; Parameters:    Size  Location     Type
  5623 ;;		None
  5624 ;; Auto vars:     Size  Location     Type
  5625 ;;		None
  5626 ;; Return value:  Size  Location     Type
  5627 ;;                  1    wreg      void 
  5628 ;; Registers used:
  5629 ;;		wreg, fsr2l, fsr2h, status,2, status,0, pcl, pclath, pclatu, tosl, cstack
  5630 ;; Tracked objects:
  5631 ;;		On entry : 0/0
  5632 ;;		On exit  : 0/0
  5633 ;;		Unchanged: 0/0
  5634 ;; Data sizes:     COMRAM   BANK0   BANK1   BANK2   BANK3   BANK4   BANK5   BANK6   BANK7   BANK8   BANK9  BANK10  BANK1
      +1  BANK12  BANK13  BANK14  BANK15
  5635 ;;      Params:         0       0       0       0       0       0       0       0       0       0       0       0       
      +0       0       0       0       0
  5636 ;;      Locals:         0       0       0       0       0       0       0       0       0       0       0       0       
      +0       0       0       0       0
  5637 ;;      Temps:          4       0       0       0       0       0       0       0       0       0       0       0       
      +0       0       0       0       0
  5638 ;;      Totals:         4       0       0       0       0       0       0       0       0       0       0       0       
      +0       0       0       0       0
  5639 ;;Total ram usage:        4 bytes
  5640 ;; Hardware stack levels used: 1
  5641 ;; Hardware stack levels required when called: 3
  5642 ;; This function calls:
  5643 ;;		_ADC_ISR
  5644 ;;		_INT0_ISR
  5645 ;;		_INT1_ISR
  5646 ;;		_INT2_ISR
  5647 ;;		_RB4_ISR
  5648 ;;		_RB5_ISR
  5649 ;;		_RB6_ISR
  5650 ;;		_RB7_ISR
  5651 ;; This function is called by:
  5652 ;;		Interrupt level 2
  5653 ;; This function uses a non-reentrant model
  5654 ;;
  5655                           
  5656                           	psect	intcode
  5657   000008                     __pintcode:
  5658                           	callstack 0
  5659   000008                     _InterruptManagmentHigh:
  5660                           	callstack 18
  5661                           
  5662                           ;incstack = 0
  5663   000008  8273               	bsf	int$flags,1,c	;set compiler interrupt flag (level 2)
  5664   00000A  ED20  F00A         	call	int_func,f	;refresh shadow registers
  5665                           
  5666                           	psect	intcode_body
  5667   001440                     __pintcode_body:
  5668                           	callstack 18
  5669   001440                     int_func:
  5670                           	callstack 18
  5671   001440  0006               	pop		; remove dummy address from shadow register refresh
  5672   001442  CFFA F008          	movff	pclath,??_InterruptManagmentHigh
  5673   001446  CFFB F009          	movff	pclatu,??_InterruptManagmentHigh+1
  5674   00144A  CFD9 F00A          	movff	fsr2l,??_InterruptManagmentHigh+2
  5675   00144E  CFDA F00B          	movff	fsr2h,??_InterruptManagmentHigh+3
  5676   001452                     
  5677                           ;MCAL_Layer/Interrupt/Interrupt_managment.c: 76: if(INTCONbits.INT0IE==1 && INTCONbits.I
      +                          NT0IF==1){
  5678   001452  A8F2               	btfss	242,4,c	;volatile
  5679   001454  EF2E  F00A         	goto	i2u455_41
  5680   001458  EF30  F00A         	goto	i2u455_40
  5681   00145C                     i2u455_41:
  5682   00145C  EF39  F00A         	goto	i2l5125
  5683   001460                     i2u455_40:
  5684   001460  A2F2               	btfss	242,1,c	;volatile
  5685   001462  EF35  F00A         	goto	i2u456_41
  5686   001466  EF37  F00A         	goto	i2u456_40
  5687   00146A                     i2u456_41:
  5688   00146A  EF39  F00A         	goto	i2l5125
  5689   00146E                     i2u456_40:
  5690   00146E                     
  5691                           ;MCAL_Layer/Interrupt/Interrupt_managment.c: 77:         INT0_ISR();
  5692   00146E  EC55  F017         	call	_INT0_ISR	;wreg free
  5693   001472                     i2l5125:
  5694                           
  5695                           ;MCAL_Layer/Interrupt/Interrupt_managment.c: 79:      if(INTCON3bits.INT1IE==1 && INTCON
      +                          3bits.INT1IF==1){
  5696   001472  A6F0               	btfss	240,3,c	;volatile
  5697   001474  EF3E  F00A         	goto	i2u457_41
  5698   001478  EF40  F00A         	goto	i2u457_40
  5699   00147C                     i2u457_41:
  5700   00147C  EF49  F00A         	goto	i2l5131
  5701   001480                     i2u457_40:
  5702   001480  A0F0               	btfss	240,0,c	;volatile
  5703   001482  EF45  F00A         	goto	i2u458_41
  5704   001486  EF47  F00A         	goto	i2u458_40
  5705   00148A                     i2u458_41:
  5706   00148A  EF49  F00A         	goto	i2l5131
  5707   00148E                     i2u458_40:
  5708   00148E                     
  5709                           ;MCAL_Layer/Interrupt/Interrupt_managment.c: 80:         INT1_ISR();
  5710   00148E  EC53  F017         	call	_INT1_ISR	;wreg free
  5711   001492                     i2l5131:
  5712                           
  5713                           ;MCAL_Layer/Interrupt/Interrupt_managment.c: 82:      if(INTCON3bits.INT2IE==1 && INTCON
      +                          3bits.INT2IF==1){
  5714   001492  A8F0               	btfss	240,4,c	;volatile
  5715   001494  EF4E  F00A         	goto	i2u459_41
  5716   001498  EF50  F00A         	goto	i2u459_40
  5717   00149C                     i2u459_41:
  5718   00149C  EF59  F00A         	goto	i2l5137
  5719   0014A0                     i2u459_40:
  5720   0014A0  A2F0               	btfss	240,1,c	;volatile
  5721   0014A2  EF55  F00A         	goto	i2u460_41
  5722   0014A6  EF57  F00A         	goto	i2u460_40
  5723   0014AA                     i2u460_41:
  5724   0014AA  EF59  F00A         	goto	i2l5137
  5725   0014AE                     i2u460_40:
  5726   0014AE                     
  5727                           ;MCAL_Layer/Interrupt/Interrupt_managment.c: 83:     INT2_ISR();
  5728   0014AE  EC51  F017         	call	_INT2_ISR	;wreg free
  5729   0014B2                     i2l5137:
  5730                           
  5731                           ;MCAL_Layer/Interrupt/Interrupt_managment.c: 86:     if((INTCONbits.RBIE==1 && INTCONbit
      +                          s.RBIF==1)&& (PORTBbits.RB4==1)&&(flage_4==1)){
  5732   0014B2  A6F2               	btfss	242,3,c	;volatile
  5733   0014B4  EF5E  F00A         	goto	i2u461_41
  5734   0014B8  EF60  F00A         	goto	i2u461_40
  5735   0014BC                     i2u461_41:
  5736   0014BC  EF7B  F00A         	goto	i2l5149
  5737   0014C0                     i2u461_40:
  5738   0014C0  A0F2               	btfss	242,0,c	;volatile
  5739   0014C2  EF65  F00A         	goto	i2u462_41
  5740   0014C6  EF67  F00A         	goto	i2u462_40
  5741   0014CA                     i2u462_41:
  5742   0014CA  EF7B  F00A         	goto	i2l5149
  5743   0014CE                     i2u462_40:
  5744   0014CE  A881               	btfss	129,4,c	;volatile
  5745   0014D0  EF6C  F00A         	goto	i2u463_41
  5746   0014D4  EF6E  F00A         	goto	i2u463_40
  5747   0014D8                     i2u463_41:
  5748   0014D8  EF7B  F00A         	goto	i2l5149
  5749   0014DC                     i2u463_40:
  5750   0014DC  0472               	decf	_flage_4^0,w,c	;volatile
  5751   0014DE  A4D8               	btfss	status,2,c
  5752   0014E0  EF74  F00A         	goto	i2u464_41
  5753   0014E4  EF76  F00A         	goto	i2u464_40
  5754   0014E8                     i2u464_41:
  5755   0014E8  EF7B  F00A         	goto	i2l5149
  5756   0014EC                     i2u464_40:
  5757   0014EC                     
  5758                           ;MCAL_Layer/Interrupt/Interrupt_managment.c: 87:         flage_4=0;
  5759   0014EC  0E00               	movlw	0
  5760   0014EE  6E72               	movwf	_flage_4^0,c	;volatile
  5761   0014F0                     
  5762                           ;MCAL_Layer/Interrupt/Interrupt_managment.c: 88:     RB4_ISR(1);
  5763   0014F0  0E01               	movlw	1
  5764   0014F2  EC37  F017         	call	_RB4_ISR
  5765   0014F6                     i2l5149:
  5766                           
  5767                           ;MCAL_Layer/Interrupt/Interrupt_managment.c: 90:     if((INTCONbits.RBIE==1 && INTCONbit
      +                          s.RBIF==1)&& (PORTBbits.RB4==0)&&(flage_4==0)){
  5768   0014F6  A6F2               	btfss	242,3,c	;volatile
  5769   0014F8  EF80  F00A         	goto	i2u465_41
  5770   0014FC  EF82  F00A         	goto	i2u465_40
  5771   001500                     i2u465_41:
  5772   001500  EF9D  F00A         	goto	i2l5161
  5773   001504                     i2u465_40:
  5774   001504  A0F2               	btfss	242,0,c	;volatile
  5775   001506  EF87  F00A         	goto	i2u466_41
  5776   00150A  EF89  F00A         	goto	i2u466_40
  5777   00150E                     i2u466_41:
  5778   00150E  EF9D  F00A         	goto	i2l5161
  5779   001512                     i2u466_40:
  5780   001512  B881               	btfsc	129,4,c	;volatile
  5781   001514  EF8E  F00A         	goto	i2u467_41
  5782   001518  EF90  F00A         	goto	i2u467_40
  5783   00151C                     i2u467_41:
  5784   00151C  EF9D  F00A         	goto	i2l5161
  5785   001520                     i2u467_40:
  5786   001520  5072               	movf	_flage_4^0,w,c	;volatile
  5787   001522  A4D8               	btfss	status,2,c
  5788   001524  EF96  F00A         	goto	i2u468_41
  5789   001528  EF98  F00A         	goto	i2u468_40
  5790   00152C                     i2u468_41:
  5791   00152C  EF9D  F00A         	goto	i2l5161
  5792   001530                     i2u468_40:
  5793   001530                     
  5794                           ;MCAL_Layer/Interrupt/Interrupt_managment.c: 91:         flage_4=1;
  5795   001530  0E01               	movlw	1
  5796   001532  6E72               	movwf	_flage_4^0,c	;volatile
  5797   001534                     
  5798                           ;MCAL_Layer/Interrupt/Interrupt_managment.c: 92:     RB4_ISR(0);
  5799   001534  0E00               	movlw	0
  5800   001536  EC37  F017         	call	_RB4_ISR
  5801   00153A                     i2l5161:
  5802                           
  5803                           ;MCAL_Layer/Interrupt/Interrupt_managment.c: 95:     if((INTCONbits.RBIE==1 && INTCONbit
      +                          s.RBIF==1)&& (PORTBbits.RB5==1)&&(flage_5==1)){
  5804   00153A  A6F2               	btfss	242,3,c	;volatile
  5805   00153C  EFA2  F00A         	goto	i2u469_41
  5806   001540  EFA4  F00A         	goto	i2u469_40
  5807   001544                     i2u469_41:
  5808   001544  EFBF  F00A         	goto	i2l5173
  5809   001548                     i2u469_40:
  5810   001548  A0F2               	btfss	242,0,c	;volatile
  5811   00154A  EFA9  F00A         	goto	i2u470_41
  5812   00154E  EFAB  F00A         	goto	i2u470_40
  5813   001552                     i2u470_41:
  5814   001552  EFBF  F00A         	goto	i2l5173
  5815   001556                     i2u470_40:
  5816   001556  AA81               	btfss	129,5,c	;volatile
  5817   001558  EFB0  F00A         	goto	i2u471_41
  5818   00155C  EFB2  F00A         	goto	i2u471_40
  5819   001560                     i2u471_41:
  5820   001560  EFBF  F00A         	goto	i2l5173
  5821   001564                     i2u471_40:
  5822   001564  0471               	decf	_flage_5^0,w,c	;volatile
  5823   001566  A4D8               	btfss	status,2,c
  5824   001568  EFB8  F00A         	goto	i2u472_41
  5825   00156C  EFBA  F00A         	goto	i2u472_40
  5826   001570                     i2u472_41:
  5827   001570  EFBF  F00A         	goto	i2l5173
  5828   001574                     i2u472_40:
  5829   001574                     
  5830                           ;MCAL_Layer/Interrupt/Interrupt_managment.c: 96:         flage_5=0;
  5831   001574  0E00               	movlw	0
  5832   001576  6E71               	movwf	_flage_5^0,c	;volatile
  5833   001578                     
  5834                           ;MCAL_Layer/Interrupt/Interrupt_managment.c: 97:     RB5_ISR(1);
  5835   001578  0E01               	movlw	1
  5836   00157A  EC2A  F017         	call	_RB5_ISR
  5837   00157E                     i2l5173:
  5838                           
  5839                           ;MCAL_Layer/Interrupt/Interrupt_managment.c: 99:     if((INTCONbits.RBIE==1 && INTCONbit
      +                          s.RBIF==1)&& (PORTBbits.RB5==0)&&(flage_5==0)){
  5840   00157E  A6F2               	btfss	242,3,c	;volatile
  5841   001580  EFC4  F00A         	goto	i2u473_41
  5842   001584  EFC6  F00A         	goto	i2u473_40
  5843   001588                     i2u473_41:
  5844   001588  EFE1  F00A         	goto	i2l5185
  5845   00158C                     i2u473_40:
  5846   00158C  A0F2               	btfss	242,0,c	;volatile
  5847   00158E  EFCB  F00A         	goto	i2u474_41
  5848   001592  EFCD  F00A         	goto	i2u474_40
  5849   001596                     i2u474_41:
  5850   001596  EFE1  F00A         	goto	i2l5185
  5851   00159A                     i2u474_40:
  5852   00159A  BA81               	btfsc	129,5,c	;volatile
  5853   00159C  EFD2  F00A         	goto	i2u475_41
  5854   0015A0  EFD4  F00A         	goto	i2u475_40
  5855   0015A4                     i2u475_41:
  5856   0015A4  EFE1  F00A         	goto	i2l5185
  5857   0015A8                     i2u475_40:
  5858   0015A8  5071               	movf	_flage_5^0,w,c	;volatile
  5859   0015AA  A4D8               	btfss	status,2,c
  5860   0015AC  EFDA  F00A         	goto	i2u476_41
  5861   0015B0  EFDC  F00A         	goto	i2u476_40
  5862   0015B4                     i2u476_41:
  5863   0015B4  EFE1  F00A         	goto	i2l5185
  5864   0015B8                     i2u476_40:
  5865   0015B8                     
  5866                           ;MCAL_Layer/Interrupt/Interrupt_managment.c: 100:         flage_5=1;
  5867   0015B8  0E01               	movlw	1
  5868   0015BA  6E71               	movwf	_flage_5^0,c	;volatile
  5869   0015BC                     
  5870                           ;MCAL_Layer/Interrupt/Interrupt_managment.c: 101:     RB5_ISR(0);
  5871   0015BC  0E00               	movlw	0
  5872   0015BE  EC2A  F017         	call	_RB5_ISR
  5873   0015C2                     i2l5185:
  5874                           
  5875                           ;MCAL_Layer/Interrupt/Interrupt_managment.c: 104: if((INTCONbits.RBIE==1 && INTCONbits.R
      +                          BIF==1)&& (PORTBbits.RB6==1)&&(flage_6==1)){
  5876   0015C2  A6F2               	btfss	242,3,c	;volatile
  5877   0015C4  EFE6  F00A         	goto	i2u477_41
  5878   0015C8  EFE8  F00A         	goto	i2u477_40
  5879   0015CC                     i2u477_41:
  5880   0015CC  EF03  F00B         	goto	i2l5197
  5881   0015D0                     i2u477_40:
  5882   0015D0  A0F2               	btfss	242,0,c	;volatile
  5883   0015D2  EFED  F00A         	goto	i2u478_41
  5884   0015D6  EFEF  F00A         	goto	i2u478_40
  5885   0015DA                     i2u478_41:
  5886   0015DA  EF03  F00B         	goto	i2l5197
  5887   0015DE                     i2u478_40:
  5888   0015DE  AC81               	btfss	129,6,c	;volatile
  5889   0015E0  EFF4  F00A         	goto	i2u479_41
  5890   0015E4  EFF6  F00A         	goto	i2u479_40
  5891   0015E8                     i2u479_41:
  5892   0015E8  EF03  F00B         	goto	i2l5197
  5893   0015EC                     i2u479_40:
  5894   0015EC  0470               	decf	_flage_6^0,w,c	;volatile
  5895   0015EE  A4D8               	btfss	status,2,c
  5896   0015F0  EFFC  F00A         	goto	i2u480_41
  5897   0015F4  EFFE  F00A         	goto	i2u480_40
  5898   0015F8                     i2u480_41:
  5899   0015F8  EF03  F00B         	goto	i2l5197
  5900   0015FC                     i2u480_40:
  5901   0015FC                     
  5902                           ;MCAL_Layer/Interrupt/Interrupt_managment.c: 105:         flage_6=0;
  5903   0015FC  0E00               	movlw	0
  5904   0015FE  6E70               	movwf	_flage_6^0,c	;volatile
  5905   001600                     
  5906                           ;MCAL_Layer/Interrupt/Interrupt_managment.c: 106:     RB6_ISR(1);
  5907   001600  0E01               	movlw	1
  5908   001602  EC1D  F017         	call	_RB6_ISR
  5909   001606                     i2l5197:
  5910                           
  5911                           ;MCAL_Layer/Interrupt/Interrupt_managment.c: 108:     if((INTCONbits.RBIE==1 && INTCONbi
      +                          ts.RBIF==1)&& (PORTBbits.RB6==0)&&(flage_6==0)){
  5912   001606  A6F2               	btfss	242,3,c	;volatile
  5913   001608  EF08  F00B         	goto	i2u481_41
  5914   00160C  EF0A  F00B         	goto	i2u481_40
  5915   001610                     i2u481_41:
  5916   001610  EF25  F00B         	goto	i2l5209
  5917   001614                     i2u481_40:
  5918   001614  A0F2               	btfss	242,0,c	;volatile
  5919   001616  EF0F  F00B         	goto	i2u482_41
  5920   00161A  EF11  F00B         	goto	i2u482_40
  5921   00161E                     i2u482_41:
  5922   00161E  EF25  F00B         	goto	i2l5209
  5923   001622                     i2u482_40:
  5924   001622  BC81               	btfsc	129,6,c	;volatile
  5925   001624  EF16  F00B         	goto	i2u483_41
  5926   001628  EF18  F00B         	goto	i2u483_40
  5927   00162C                     i2u483_41:
  5928   00162C  EF25  F00B         	goto	i2l5209
  5929   001630                     i2u483_40:
  5930   001630  5070               	movf	_flage_6^0,w,c	;volatile
  5931   001632  A4D8               	btfss	status,2,c
  5932   001634  EF1E  F00B         	goto	i2u484_41
  5933   001638  EF20  F00B         	goto	i2u484_40
  5934   00163C                     i2u484_41:
  5935   00163C  EF25  F00B         	goto	i2l5209
  5936   001640                     i2u484_40:
  5937   001640                     
  5938                           ;MCAL_Layer/Interrupt/Interrupt_managment.c: 109:         flage_6=1;
  5939   001640  0E01               	movlw	1
  5940   001642  6E70               	movwf	_flage_6^0,c	;volatile
  5941   001644                     
  5942                           ;MCAL_Layer/Interrupt/Interrupt_managment.c: 110:     RB6_ISR(0);
  5943   001644  0E00               	movlw	0
  5944   001646  EC1D  F017         	call	_RB6_ISR
  5945   00164A                     i2l5209:
  5946                           
  5947                           ;MCAL_Layer/Interrupt/Interrupt_managment.c: 113: if((INTCONbits.RBIE==1 && INTCONbits.R
      +                          BIF==1)&& (PORTBbits.RB7==1)&&(flage_7==1)){
  5948   00164A  A6F2               	btfss	242,3,c	;volatile
  5949   00164C  EF2A  F00B         	goto	i2u485_41
  5950   001650  EF2C  F00B         	goto	i2u485_40
  5951   001654                     i2u485_41:
  5952   001654  EF47  F00B         	goto	i2l5221
  5953   001658                     i2u485_40:
  5954   001658  A0F2               	btfss	242,0,c	;volatile
  5955   00165A  EF31  F00B         	goto	i2u486_41
  5956   00165E  EF33  F00B         	goto	i2u486_40
  5957   001662                     i2u486_41:
  5958   001662  EF47  F00B         	goto	i2l5221
  5959   001666                     i2u486_40:
  5960   001666  AE81               	btfss	129,7,c	;volatile
  5961   001668  EF38  F00B         	goto	i2u487_41
  5962   00166C  EF3A  F00B         	goto	i2u487_40
  5963   001670                     i2u487_41:
  5964   001670  EF47  F00B         	goto	i2l5221
  5965   001674                     i2u487_40:
  5966   001674  046F               	decf	_flage_7^0,w,c	;volatile
  5967   001676  A4D8               	btfss	status,2,c
  5968   001678  EF40  F00B         	goto	i2u488_41
  5969   00167C  EF42  F00B         	goto	i2u488_40
  5970   001680                     i2u488_41:
  5971   001680  EF47  F00B         	goto	i2l5221
  5972   001684                     i2u488_40:
  5973   001684                     
  5974                           ;MCAL_Layer/Interrupt/Interrupt_managment.c: 114:         flage_7=0;
  5975   001684  0E00               	movlw	0
  5976   001686  6E6F               	movwf	_flage_7^0,c	;volatile
  5977   001688                     
  5978                           ;MCAL_Layer/Interrupt/Interrupt_managment.c: 115:     RB7_ISR(1);
  5979   001688  0E01               	movlw	1
  5980   00168A  EC10  F017         	call	_RB7_ISR
  5981   00168E                     i2l5221:
  5982                           
  5983                           ;MCAL_Layer/Interrupt/Interrupt_managment.c: 117:     if((INTCONbits.RBIE==1 && INTCONbi
      +                          ts.RBIF==1)&& (PORTBbits.RB7==0)&&(flage_7==0)){
  5984   00168E  A6F2               	btfss	242,3,c	;volatile
  5985   001690  EF4C  F00B         	goto	i2u489_41
  5986   001694  EF4E  F00B         	goto	i2u489_40
  5987   001698                     i2u489_41:
  5988   001698  EF69  F00B         	goto	i2l5233
  5989   00169C                     i2u489_40:
  5990   00169C  A0F2               	btfss	242,0,c	;volatile
  5991   00169E  EF53  F00B         	goto	i2u490_41
  5992   0016A2  EF55  F00B         	goto	i2u490_40
  5993   0016A6                     i2u490_41:
  5994   0016A6  EF69  F00B         	goto	i2l5233
  5995   0016AA                     i2u490_40:
  5996   0016AA  BE81               	btfsc	129,7,c	;volatile
  5997   0016AC  EF5A  F00B         	goto	i2u491_41
  5998   0016B0  EF5C  F00B         	goto	i2u491_40
  5999   0016B4                     i2u491_41:
  6000   0016B4  EF69  F00B         	goto	i2l5233
  6001   0016B8                     i2u491_40:
  6002   0016B8  506F               	movf	_flage_7^0,w,c	;volatile
  6003   0016BA  A4D8               	btfss	status,2,c
  6004   0016BC  EF62  F00B         	goto	i2u492_41
  6005   0016C0  EF64  F00B         	goto	i2u492_40
  6006   0016C4                     i2u492_41:
  6007   0016C4  EF69  F00B         	goto	i2l5233
  6008   0016C8                     i2u492_40:
  6009   0016C8                     
  6010                           ;MCAL_Layer/Interrupt/Interrupt_managment.c: 118:         flage_7=1;
  6011   0016C8  0E01               	movlw	1
  6012   0016CA  6E6F               	movwf	_flage_7^0,c	;volatile
  6013   0016CC                     
  6014                           ;MCAL_Layer/Interrupt/Interrupt_managment.c: 119:     RB7_ISR(0);
  6015   0016CC  0E00               	movlw	0
  6016   0016CE  EC10  F017         	call	_RB7_ISR
  6017   0016D2                     i2l5233:
  6018                           
  6019                           ;MCAL_Layer/Interrupt/Interrupt_managment.c: 123:     if((PIE1bits.ADIE==1) && (PIR1bits
      +                          .ADIF==1)){
  6020   0016D2  AC9D               	btfss	157,6,c	;volatile
  6021   0016D4  EF6E  F00B         	goto	i2u493_41
  6022   0016D8  EF70  F00B         	goto	i2u493_40
  6023   0016DC                     i2u493_41:
  6024   0016DC  EF79  F00B         	goto	i2l598
  6025   0016E0                     i2u493_40:
  6026   0016E0  AC9E               	btfss	158,6,c	;volatile
  6027   0016E2  EF75  F00B         	goto	i2u494_41
  6028   0016E6  EF77  F00B         	goto	i2u494_40
  6029   0016EA                     i2u494_41:
  6030   0016EA  EF79  F00B         	goto	i2l598
  6031   0016EE                     i2u494_40:
  6032   0016EE                     
  6033                           ;MCAL_Layer/Interrupt/Interrupt_managment.c: 124:         ADC_ISR();
  6034   0016EE  ECE3  F016         	call	_ADC_ISR	;wreg free
  6035   0016F2                     i2l598:
  6036   0016F2  C00B  FFDA         	movff	??_InterruptManagmentHigh+3,fsr2h
  6037   0016F6  C00A  FFD9         	movff	??_InterruptManagmentHigh+2,fsr2l
  6038   0016FA  C009  FFFB         	movff	??_InterruptManagmentHigh+1,pclatu
  6039   0016FE  C008  FFFA         	movff	??_InterruptManagmentHigh,pclath
  6040   001702  9273               	bcf	int$flags,1,c	;clear compiler interrupt flag (level 2)
  6041   001704  0011               	retfie		f
  6042   001706                     __end_of_InterruptManagmentHigh:
  6043                           	callstack 0
  6044                           
  6045 ;; *************** function _RB7_ISR *****************
  6046 ;; Defined at:
  6047 ;;		line 434 in file "MCAL_Layer/Interrupt/Interrupt_external.c"
  6048 ;; Parameters:    Size  Location     Type
  6049 ;;  flage           1    wreg     unsigned char 
  6050 ;; Auto vars:     Size  Location     Type
  6051 ;;  flage           1    0[COMRAM] unsigned char 
  6052 ;; Return value:  Size  Location     Type
  6053 ;;                  1    wreg      void 
  6054 ;; Registers used:
  6055 ;;		wreg, status,2, status,0
  6056 ;; Tracked objects:
  6057 ;;		On entry : 0/0
  6058 ;;		On exit  : 0/0
  6059 ;;		Unchanged: 0/0
  6060 ;; Data sizes:     COMRAM   BANK0   BANK1   BANK2   BANK3   BANK4   BANK5   BANK6   BANK7   BANK8   BANK9  BANK10  BANK1
      +1  BANK12  BANK13  BANK14  BANK15
  6061 ;;      Params:         0       0       0       0       0       0       0       0       0       0       0       0       
      +0       0       0       0       0
  6062 ;;      Locals:         1       0       0       0       0       0       0       0       0       0       0       0       
      +0       0       0       0       0
  6063 ;;      Temps:          0       0       0       0       0       0       0       0       0       0       0       0       
      +0       0       0       0       0
  6064 ;;      Totals:         1       0       0       0       0       0       0       0       0       0       0       0       
      +0       0       0       0       0
  6065 ;;Total ram usage:        1 bytes
  6066 ;; Hardware stack levels used: 1
  6067 ;; This function calls:
  6068 ;;		Nothing
  6069 ;; This function is called by:
  6070 ;;		_InterruptManagmentHigh
  6071 ;; This function uses a non-reentrant model
  6072 ;;
  6073                           
  6074                           	psect	text34
  6075   002E20                     __ptext34:
  6076                           	callstack 0
  6077   002E20                     _RB7_ISR:
  6078                           	callstack 20
  6079                           
  6080                           ;incstack = 0
  6081                           ;RB7_ISR@flage stored from wreg
  6082   002E20  6E01               	movwf	RB7_ISR@flage^0,c
  6083   002E22                     
  6084                           ;MCAL_Layer/Interrupt/Interrupt_external.c: 435:    (INTCONbits.RBIF=0);
  6085   002E22  90F2               	bcf	242,0,c	;volatile
  6086   002E24                     
  6087                           ;MCAL_Layer/Interrupt/Interrupt_external.c: 436:     if(flage==1){
  6088   002E24  0401               	decf	RB7_ISR@flage^0,w,c
  6089   002E26  A4D8               	btfss	status,2,c
  6090   002E28  EF18  F017         	goto	i2u344_41
  6091   002E2C  EF1A  F017         	goto	i2u344_40
  6092   002E30                     i2u344_41:
  6093   002E30  EF1C  F017         	goto	i2l4263
  6094   002E34                     i2u344_40:
  6095   002E34  EF1C  F017         	goto	i2l777
  6096   002E38                     i2l4263:
  6097   002E38                     i2l777:
  6098   002E38  0012               	return		;funcret
  6099   002E3A                     __end_of_RB7_ISR:
  6100                           	callstack 0
  6101                           
  6102 ;; *************** function _RB6_ISR *****************
  6103 ;; Defined at:
  6104 ;;		line 416 in file "MCAL_Layer/Interrupt/Interrupt_external.c"
  6105 ;; Parameters:    Size  Location     Type
  6106 ;;  flage           1    wreg     unsigned char 
  6107 ;; Auto vars:     Size  Location     Type
  6108 ;;  flage           1    0[COMRAM] unsigned char 
  6109 ;; Return value:  Size  Location     Type
  6110 ;;                  1    wreg      void 
  6111 ;; Registers used:
  6112 ;;		wreg, status,2, status,0
  6113 ;; Tracked objects:
  6114 ;;		On entry : 0/0
  6115 ;;		On exit  : 0/0
  6116 ;;		Unchanged: 0/0
  6117 ;; Data sizes:     COMRAM   BANK0   BANK1   BANK2   BANK3   BANK4   BANK5   BANK6   BANK7   BANK8   BANK9  BANK10  BANK1
      +1  BANK12  BANK13  BANK14  BANK15
  6118 ;;      Params:         0       0       0       0       0       0       0       0       0       0       0       0       
      +0       0       0       0       0
  6119 ;;      Locals:         1       0       0       0       0       0       0       0       0       0       0       0       
      +0       0       0       0       0
  6120 ;;      Temps:          0       0       0       0       0       0       0       0       0       0       0       0       
      +0       0       0       0       0
  6121 ;;      Totals:         1       0       0       0       0       0       0       0       0       0       0       0       
      +0       0       0       0       0
  6122 ;;Total ram usage:        1 bytes
  6123 ;; Hardware stack levels used: 1
  6124 ;; This function calls:
  6125 ;;		Nothing
  6126 ;; This function is called by:
  6127 ;;		_InterruptManagmentHigh
  6128 ;; This function uses a non-reentrant model
  6129 ;;
  6130                           
  6131                           	psect	text35
  6132   002E3A                     __ptext35:
  6133                           	callstack 0
  6134   002E3A                     _RB6_ISR:
  6135                           	callstack 20
  6136                           
  6137                           ;incstack = 0
  6138                           ;RB6_ISR@flage stored from wreg
  6139   002E3A  6E01               	movwf	RB6_ISR@flage^0,c
  6140   002E3C                     
  6141                           ;MCAL_Layer/Interrupt/Interrupt_external.c: 417:    (INTCONbits.RBIF=0);
  6142   002E3C  90F2               	bcf	242,0,c	;volatile
  6143   002E3E                     
  6144                           ;MCAL_Layer/Interrupt/Interrupt_external.c: 418:     if(flage==1){
  6145   002E3E  0401               	decf	RB6_ISR@flage^0,w,c
  6146   002E40  A4D8               	btfss	status,2,c
  6147   002E42  EF25  F017         	goto	i2u343_41
  6148   002E46  EF27  F017         	goto	i2u343_40
  6149   002E4A                     i2u343_41:
  6150   002E4A  EF29  F017         	goto	i2l4253
  6151   002E4E                     i2u343_40:
  6152   002E4E  EF29  F017         	goto	i2l768
  6153   002E52                     i2l4253:
  6154   002E52                     i2l768:
  6155   002E52  0012               	return		;funcret
  6156   002E54                     __end_of_RB6_ISR:
  6157                           	callstack 0
  6158                           
  6159 ;; *************** function _RB5_ISR *****************
  6160 ;; Defined at:
  6161 ;;		line 398 in file "MCAL_Layer/Interrupt/Interrupt_external.c"
  6162 ;; Parameters:    Size  Location     Type
  6163 ;;  flage           1    wreg     unsigned char 
  6164 ;; Auto vars:     Size  Location     Type
  6165 ;;  flage           1    0[COMRAM] unsigned char 
  6166 ;; Return value:  Size  Location     Type
  6167 ;;                  1    wreg      void 
  6168 ;; Registers used:
  6169 ;;		wreg, status,2, status,0
  6170 ;; Tracked objects:
  6171 ;;		On entry : 0/0
  6172 ;;		On exit  : 0/0
  6173 ;;		Unchanged: 0/0
  6174 ;; Data sizes:     COMRAM   BANK0   BANK1   BANK2   BANK3   BANK4   BANK5   BANK6   BANK7   BANK8   BANK9  BANK10  BANK1
      +1  BANK12  BANK13  BANK14  BANK15
  6175 ;;      Params:         0       0       0       0       0       0       0       0       0       0       0       0       
      +0       0       0       0       0
  6176 ;;      Locals:         1       0       0       0       0       0       0       0       0       0       0       0       
      +0       0       0       0       0
  6177 ;;      Temps:          0       0       0       0       0       0       0       0       0       0       0       0       
      +0       0       0       0       0
  6178 ;;      Totals:         1       0       0       0       0       0       0       0       0       0       0       0       
      +0       0       0       0       0
  6179 ;;Total ram usage:        1 bytes
  6180 ;; Hardware stack levels used: 1
  6181 ;; This function calls:
  6182 ;;		Nothing
  6183 ;; This function is called by:
  6184 ;;		_InterruptManagmentHigh
  6185 ;; This function uses a non-reentrant model
  6186 ;;
  6187                           
  6188                           	psect	text36
  6189   002E54                     __ptext36:
  6190                           	callstack 0
  6191   002E54                     _RB5_ISR:
  6192                           	callstack 20
  6193                           
  6194                           ;incstack = 0
  6195                           ;RB5_ISR@flage stored from wreg
  6196   002E54  6E01               	movwf	RB5_ISR@flage^0,c
  6197   002E56                     
  6198                           ;MCAL_Layer/Interrupt/Interrupt_external.c: 399:    (INTCONbits.RBIF=0);
  6199   002E56  90F2               	bcf	242,0,c	;volatile
  6200   002E58                     
  6201                           ;MCAL_Layer/Interrupt/Interrupt_external.c: 400:     if(flage==1){
  6202   002E58  0401               	decf	RB5_ISR@flage^0,w,c
  6203   002E5A  A4D8               	btfss	status,2,c
  6204   002E5C  EF32  F017         	goto	i2u342_41
  6205   002E60  EF34  F017         	goto	i2u342_40
  6206   002E64                     i2u342_41:
  6207   002E64  EF36  F017         	goto	i2l4243
  6208   002E68                     i2u342_40:
  6209   002E68  EF36  F017         	goto	i2l759
  6210   002E6C                     i2l4243:
  6211   002E6C                     i2l759:
  6212   002E6C  0012               	return		;funcret
  6213   002E6E                     __end_of_RB5_ISR:
  6214                           	callstack 0
  6215                           
  6216 ;; *************** function _RB4_ISR *****************
  6217 ;; Defined at:
  6218 ;;		line 380 in file "MCAL_Layer/Interrupt/Interrupt_external.c"
  6219 ;; Parameters:    Size  Location     Type
  6220 ;;  flage           1    wreg     unsigned char 
  6221 ;; Auto vars:     Size  Location     Type
  6222 ;;  flage           1    0[COMRAM] unsigned char 
  6223 ;; Return value:  Size  Location     Type
  6224 ;;                  1    wreg      void 
  6225 ;; Registers used:
  6226 ;;		wreg, status,2, status,0
  6227 ;; Tracked objects:
  6228 ;;		On entry : 0/0
  6229 ;;		On exit  : 0/0
  6230 ;;		Unchanged: 0/0
  6231 ;; Data sizes:     COMRAM   BANK0   BANK1   BANK2   BANK3   BANK4   BANK5   BANK6   BANK7   BANK8   BANK9  BANK10  BANK1
      +1  BANK12  BANK13  BANK14  BANK15
  6232 ;;      Params:         0       0       0       0       0       0       0       0       0       0       0       0       
      +0       0       0       0       0
  6233 ;;      Locals:         1       0       0       0       0       0       0       0       0       0       0       0       
      +0       0       0       0       0
  6234 ;;      Temps:          0       0       0       0       0       0       0       0       0       0       0       0       
      +0       0       0       0       0
  6235 ;;      Totals:         1       0       0       0       0       0       0       0       0       0       0       0       
      +0       0       0       0       0
  6236 ;;Total ram usage:        1 bytes
  6237 ;; Hardware stack levels used: 1
  6238 ;; This function calls:
  6239 ;;		Nothing
  6240 ;; This function is called by:
  6241 ;;		_InterruptManagmentHigh
  6242 ;; This function uses a non-reentrant model
  6243 ;;
  6244                           
  6245                           	psect	text37
  6246   002E6E                     __ptext37:
  6247                           	callstack 0
  6248   002E6E                     _RB4_ISR:
  6249                           	callstack 20
  6250                           
  6251                           ;incstack = 0
  6252                           ;RB4_ISR@flage stored from wreg
  6253   002E6E  6E01               	movwf	RB4_ISR@flage^0,c
  6254   002E70                     
  6255                           ;MCAL_Layer/Interrupt/Interrupt_external.c: 381:     (INTCONbits.RBIF=0);
  6256   002E70  90F2               	bcf	242,0,c	;volatile
  6257   002E72                     
  6258                           ;MCAL_Layer/Interrupt/Interrupt_external.c: 382:     if(flage==1){
  6259   002E72  0401               	decf	RB4_ISR@flage^0,w,c
  6260   002E74  A4D8               	btfss	status,2,c
  6261   002E76  EF3F  F017         	goto	i2u341_41
  6262   002E7A  EF41  F017         	goto	i2u341_40
  6263   002E7E                     i2u341_41:
  6264   002E7E  EF43  F017         	goto	i2l4233
  6265   002E82                     i2u341_40:
  6266   002E82  EF43  F017         	goto	i2l750
  6267   002E86                     i2l4233:
  6268   002E86                     i2l750:
  6269   002E86  0012               	return		;funcret
  6270   002E88                     __end_of_RB4_ISR:
  6271                           	callstack 0
  6272                           
  6273 ;; *************** function _INT2_ISR *****************
  6274 ;; Defined at:
  6275 ;;		line 371 in file "MCAL_Layer/Interrupt/Interrupt_external.c"
  6276 ;; Parameters:    Size  Location     Type
  6277 ;;		None
  6278 ;; Auto vars:     Size  Location     Type
  6279 ;;		None
  6280 ;; Return value:  Size  Location     Type
  6281 ;;                  1    wreg      void 
  6282 ;; Registers used:
  6283 ;;		None
  6284 ;; Tracked objects:
  6285 ;;		On entry : 0/0
  6286 ;;		On exit  : 0/0
  6287 ;;		Unchanged: 0/0
  6288 ;; Data sizes:     COMRAM   BANK0   BANK1   BANK2   BANK3   BANK4   BANK5   BANK6   BANK7   BANK8   BANK9  BANK10  BANK1
      +1  BANK12  BANK13  BANK14  BANK15
  6289 ;;      Params:         0       0       0       0       0       0       0       0       0       0       0       0       
      +0       0       0       0       0
  6290 ;;      Locals:         0       0       0       0       0       0       0       0       0       0       0       0       
      +0       0       0       0       0
  6291 ;;      Temps:          0       0       0       0       0       0       0       0       0       0       0       0       
      +0       0       0       0       0
  6292 ;;      Totals:         0       0       0       0       0       0       0       0       0       0       0       0       
      +0       0       0       0       0
  6293 ;;Total ram usage:        0 bytes
  6294 ;; Hardware stack levels used: 1
  6295 ;; This function calls:
  6296 ;;		Nothing
  6297 ;; This function is called by:
  6298 ;;		_InterruptManagmentHigh
  6299 ;; This function uses a non-reentrant model
  6300 ;;
  6301                           
  6302                           	psect	text38
  6303   002EA2                     __ptext38:
  6304                           	callstack 0
  6305   002EA2                     _INT2_ISR:
  6306                           	callstack 20
  6307   002EA2                     
  6308                           ;MCAL_Layer/Interrupt/Interrupt_external.c: 372:     (INTCON3bits.INT2IF=0);
  6309   002EA2  92F0               	bcf	240,1,c	;volatile
  6310   002EA4  0012               	return		;funcret
  6311   002EA6                     __end_of_INT2_ISR:
  6312                           	callstack 0
  6313                           
  6314 ;; *************** function _INT1_ISR *****************
  6315 ;; Defined at:
  6316 ;;		line 364 in file "MCAL_Layer/Interrupt/Interrupt_external.c"
  6317 ;; Parameters:    Size  Location     Type
  6318 ;;		None
  6319 ;; Auto vars:     Size  Location     Type
  6320 ;;		None
  6321 ;; Return value:  Size  Location     Type
  6322 ;;                  1    wreg      void 
  6323 ;; Registers used:
  6324 ;;		None
  6325 ;; Tracked objects:
  6326 ;;		On entry : 0/0
  6327 ;;		On exit  : 0/0
  6328 ;;		Unchanged: 0/0
  6329 ;; Data sizes:     COMRAM   BANK0   BANK1   BANK2   BANK3   BANK4   BANK5   BANK6   BANK7   BANK8   BANK9  BANK10  BANK1
      +1  BANK12  BANK13  BANK14  BANK15
  6330 ;;      Params:         0       0       0       0       0       0       0       0       0       0       0       0       
      +0       0       0       0       0
  6331 ;;      Locals:         0       0       0       0       0       0       0       0       0       0       0       0       
      +0       0       0       0       0
  6332 ;;      Temps:          0       0       0       0       0       0       0       0       0       0       0       0       
      +0       0       0       0       0
  6333 ;;      Totals:         0       0       0       0       0       0       0       0       0       0       0       0       
      +0       0       0       0       0
  6334 ;;Total ram usage:        0 bytes
  6335 ;; Hardware stack levels used: 1
  6336 ;; This function calls:
  6337 ;;		Nothing
  6338 ;; This function is called by:
  6339 ;;		_InterruptManagmentHigh
  6340 ;; This function uses a non-reentrant model
  6341 ;;
  6342                           
  6343                           	psect	text39
  6344   002EA6                     __ptext39:
  6345                           	callstack 0
  6346   002EA6                     _INT1_ISR:
  6347                           	callstack 20
  6348   002EA6                     
  6349                           ;MCAL_Layer/Interrupt/Interrupt_external.c: 365:     (INTCON3bits.INT1IF=0);
  6350   002EA6  90F0               	bcf	240,0,c	;volatile
  6351   002EA8  0012               	return		;funcret
  6352   002EAA                     __end_of_INT1_ISR:
  6353                           	callstack 0
  6354                           
  6355 ;; *************** function _INT0_ISR *****************
  6356 ;; Defined at:
  6357 ;;		line 357 in file "MCAL_Layer/Interrupt/Interrupt_external.c"
  6358 ;; Parameters:    Size  Location     Type
  6359 ;;		None
  6360 ;; Auto vars:     Size  Location     Type
  6361 ;;		None
  6362 ;; Return value:  Size  Location     Type
  6363 ;;                  1    wreg      void 
  6364 ;; Registers used:
  6365 ;;		None
  6366 ;; Tracked objects:
  6367 ;;		On entry : 0/0
  6368 ;;		On exit  : 0/0
  6369 ;;		Unchanged: 0/0
  6370 ;; Data sizes:     COMRAM   BANK0   BANK1   BANK2   BANK3   BANK4   BANK5   BANK6   BANK7   BANK8   BANK9  BANK10  BANK1
      +1  BANK12  BANK13  BANK14  BANK15
  6371 ;;      Params:         0       0       0       0       0       0       0       0       0       0       0       0       
      +0       0       0       0       0
  6372 ;;      Locals:         0       0       0       0       0       0       0       0       0       0       0       0       
      +0       0       0       0       0
  6373 ;;      Temps:          0       0       0       0       0       0       0       0       0       0       0       0       
      +0       0       0       0       0
  6374 ;;      Totals:         0       0       0       0       0       0       0       0       0       0       0       0       
      +0       0       0       0       0
  6375 ;;Total ram usage:        0 bytes
  6376 ;; Hardware stack levels used: 1
  6377 ;; This function calls:
  6378 ;;		Nothing
  6379 ;; This function is called by:
  6380 ;;		_InterruptManagmentHigh
  6381 ;; This function uses a non-reentrant model
  6382 ;;
  6383                           
  6384                           	psect	text40
  6385   002EAA                     __ptext40:
  6386                           	callstack 0
  6387   002EAA                     _INT0_ISR:
  6388                           	callstack 20
  6389   002EAA                     
  6390                           ;MCAL_Layer/Interrupt/Interrupt_external.c: 358:     (INTCONbits.INT0IF=0);
  6391   002EAA  92F2               	bcf	242,1,c	;volatile
  6392   002EAC  0012               	return		;funcret
  6393   002EAE                     __end_of_INT0_ISR:
  6394                           	callstack 0
  6395                           
  6396 ;; *************** function _ADC_ISR *****************
  6397 ;; Defined at:
  6398 ;;		line 322 in file "MCAL_Layer/ADC/ADC.c"
  6399 ;; Parameters:    Size  Location     Type
  6400 ;;		None
  6401 ;; Auto vars:     Size  Location     Type
  6402 ;;		None
  6403 ;; Return value:  Size  Location     Type
  6404 ;;                  1    wreg      void 
  6405 ;; Registers used:
  6406 ;;		wreg, fsr2l, fsr2h, status,2, status,0, pcl, pclath, pclatu, tosl, cstack
  6407 ;; Tracked objects:
  6408 ;;		On entry : 0/0
  6409 ;;		On exit  : 0/0
  6410 ;;		Unchanged: 0/0
  6411 ;; Data sizes:     COMRAM   BANK0   BANK1   BANK2   BANK3   BANK4   BANK5   BANK6   BANK7   BANK8   BANK9  BANK10  BANK1
      +1  BANK12  BANK13  BANK14  BANK15
  6412 ;;      Params:         0       0       0       0       0       0       0       0       0       0       0       0       
      +0       0       0       0       0
  6413 ;;      Locals:         0       0       0       0       0       0       0       0       0       0       0       0       
      +0       0       0       0       0
  6414 ;;      Temps:          0       0       0       0       0       0       0       0       0       0       0       0       
      +0       0       0       0       0
  6415 ;;      Totals:         0       0       0       0       0       0       0       0       0       0       0       0       
      +0       0       0       0       0
  6416 ;;Total ram usage:        0 bytes
  6417 ;; Hardware stack levels used: 1
  6418 ;; Hardware stack levels required when called: 2
  6419 ;; This function calls:
  6420 ;;		NULL
  6421 ;;		_ADC_interrupt
  6422 ;; This function is called by:
  6423 ;;		_InterruptManagmentHigh
  6424 ;; This function uses a non-reentrant model
  6425 ;;
  6426                           
  6427                           	psect	text41
  6428   002DC6                     __ptext41:
  6429                           	callstack 0
  6430   002DC6                     _ADC_ISR:
  6431                           	callstack 18
  6432   002DC6                     
  6433                           ;MCAL_Layer/ADC/ADC.c: 323:     (PIR1bits.ADIF=0);
  6434   002DC6  9C9E               	bcf	158,6,c	;volatile
  6435   002DC8                     
  6436                           ;MCAL_Layer/ADC/ADC.c: 325:     if(ADC_Interrupt_handler){
  6437   002DC8  505F               	movf	_ADC_Interrupt_handler^0,w,c
  6438   002DCA  1060               	iorwf	(_ADC_Interrupt_handler+1)^0,w,c
  6439   002DCC  B4D8               	btfsc	status,2,c
  6440   002DCE  EFEB  F016         	goto	i2u339_41
  6441   002DD2  EFED  F016         	goto	i2u339_40
  6442   002DD6                     i2u339_41:
  6443   002DD6  EFF9  F016         	goto	i2l428
  6444   002DDA                     i2u339_40:
  6445   002DDA                     
  6446                           ;MCAL_Layer/ADC/ADC.c: 326:         ADC_Interrupt_handler();
  6447   002DDA  D802               	call	i2u340_48
  6448   002DDC  EFF9  F016         	goto	i2u340_49
  6449   002DE0                     i2u340_48:
  6450   002DE0  0005               	push	
  6451   002DE2  6EFA               	movwf	pclath,c
  6452   002DE4  505F               	movf	_ADC_Interrupt_handler^0,w,c
  6453   002DE6  6EFD               	movwf	tosl,c
  6454   002DE8  5060               	movf	(_ADC_Interrupt_handler+1)^0,w,c
  6455   002DEA  6EFE               	movwf	tosh,c
  6456   002DEC  6AFF               	clrf	tosu,c
  6457   002DEE  50FA               	movf	pclath,w,c
  6458   002DF0  0012               	return		;indir
  6459   002DF2                     i2u340_49:
  6460   002DF2                     i2l428:
  6461   002DF2  0012               	return		;funcret
  6462   002DF4                     __end_of_ADC_ISR:
  6463                           	callstack 0
  6464                           
  6465 ;; *************** function _ADC_interrupt *****************
  6466 ;; Defined at:
  6467 ;;		line 68 in file "Application.c"
  6468 ;; Parameters:    Size  Location     Type
  6469 ;;		None
  6470 ;; Auto vars:     Size  Location     Type
  6471 ;;		None
  6472 ;; Return value:  Size  Location     Type
  6473 ;;                  1    wreg      void 
  6474 ;; Registers used:
  6475 ;;		wreg, fsr2l, fsr2h, status,2, status,0, cstack
  6476 ;; Tracked objects:
  6477 ;;		On entry : 0/0
  6478 ;;		On exit  : 0/0
  6479 ;;		Unchanged: 0/0
  6480 ;; Data sizes:     COMRAM   BANK0   BANK1   BANK2   BANK3   BANK4   BANK5   BANK6   BANK7   BANK8   BANK9  BANK10  BANK1
      +1  BANK12  BANK13  BANK14  BANK15
  6481 ;;      Params:         0       0       0       0       0       0       0       0       0       0       0       0       
      +0       0       0       0       0
  6482 ;;      Locals:         0       0       0       0       0       0       0       0       0       0       0       0       
      +0       0       0       0       0
  6483 ;;      Temps:          0       0       0       0       0       0       0       0       0       0       0       0       
      +0       0       0       0       0
  6484 ;;      Totals:         0       0       0       0       0       0       0       0       0       0       0       0       
      +0       0       0       0       0
  6485 ;;Total ram usage:        0 bytes
  6486 ;; Hardware stack levels used: 1
  6487 ;; Hardware stack levels required when called: 1
  6488 ;; This function calls:
  6489 ;;		_adc_reading_value
  6490 ;; This function is called by:
  6491 ;;		_ADC_ISR
  6492 ;; This function uses a non-reentrant model
  6493 ;;
  6494                           
  6495                           	psect	text42
  6496   002BA4                     __ptext42:
  6497                           	callstack 0
  6498   002BA4                     _ADC_interrupt:
  6499                           	callstack 18
  6500   002BA4                     
  6501                           ;Application.c: 70:     if (0 == ADC_Start) {
  6502   002BA4  5062               	movf	_ADC_Start^0,w,c
  6503   002BA6  A4D8               	btfss	status,2,c
  6504   002BA8  EFD8  F015         	goto	i2u316_41
  6505   002BAC  EFDA  F015         	goto	i2u316_40
  6506   002BB0                     i2u316_41:
  6507   002BB0  EFE8  F015         	goto	i2l4015
  6508   002BB4                     i2u316_40:
  6509   002BB4                     
  6510                           ;Application.c: 71:         adc_reading_value(&adc_1, &reading_1);
  6511   002BB4  0EEB               	movlw	low _adc_1
  6512   002BB6  6E01               	movwf	adc_reading_value@adc^0,c
  6513   002BB8  0E00               	movlw	high _adc_1
  6514   002BBA  6E02               	movwf	(adc_reading_value@adc+1)^0,c
  6515   002BBC  0E6D               	movlw	low _reading_1
  6516   002BBE  6E03               	movwf	adc_reading_value@value^0,c
  6517   002BC0  0E00               	movlw	high _reading_1
  6518   002BC2  6E04               	movwf	(adc_reading_value@value+1)^0,c
  6519   002BC4  ECA8  F012         	call	_adc_reading_value	;wreg free
  6520   002BC8                     
  6521                           ;Application.c: 73:             ADC_Start=1;
  6522   002BC8  0E01               	movlw	1
  6523   002BCA  6E62               	movwf	_ADC_Start^0,c
  6524                           
  6525                           ;Application.c: 74:         } else if (1 == ADC_Start) {
  6526   002BCC  EFFC  F015         	goto	i2l818
  6527   002BD0                     i2l4015:
  6528   002BD0  0462               	decf	_ADC_Start^0,w,c
  6529   002BD2  A4D8               	btfss	status,2,c
  6530   002BD4  EFEE  F015         	goto	i2u317_41
  6531   002BD8  EFF0  F015         	goto	i2u317_40
  6532   002BDC                     i2u317_41:
  6533   002BDC  EFFC  F015         	goto	i2l818
  6534   002BE0                     i2u317_40:
  6535   002BE0                     
  6536                           ;Application.c: 75:             adc_reading_value(&adc_1, &reading_2);
  6537   002BE0  0EEB               	movlw	low _adc_1
  6538   002BE2  6E01               	movwf	adc_reading_value@adc^0,c
  6539   002BE4  0E00               	movlw	high _adc_1
  6540   002BE6  6E02               	movwf	(adc_reading_value@adc+1)^0,c
  6541   002BE8  0E6B               	movlw	low _reading_2
  6542   002BEA  6E03               	movwf	adc_reading_value@value^0,c
  6543   002BEC  0E00               	movlw	high _reading_2
  6544   002BEE  6E04               	movwf	(adc_reading_value@value+1)^0,c
  6545   002BF0  ECA8  F012         	call	_adc_reading_value	;wreg free
  6546   002BF4                     
  6547                           ;Application.c: 77:             ADC_Start=0;
  6548   002BF4  0E00               	movlw	0
  6549   002BF6  6E62               	movwf	_ADC_Start^0,c
  6550   002BF8                     i2l818:
  6551   002BF8  0012               	return		;funcret
  6552   002BFA                     __end_of_ADC_interrupt:
  6553                           	callstack 0
  6554                           
  6555 ;; *************** function _adc_reading_value *****************
  6556 ;; Defined at:
  6557 ;;		line 108 in file "MCAL_Layer/ADC/ADC.c"
  6558 ;; Parameters:    Size  Location     Type
  6559 ;;  adc             2    0[COMRAM] PTR const struct .
  6560 ;;		 -> adc_1(7), 
  6561 ;;  value           2    2[COMRAM] PTR unsigned short 
  6562 ;;		 -> reading_2(2), reading_1(2), 
  6563 ;; Auto vars:     Size  Location     Type
  6564 ;;  returt_statu    1    0        unsigned char 
  6565 ;; Return value:  Size  Location     Type
  6566 ;;                  1    wreg      unsigned char 
  6567 ;; Registers used:
  6568 ;;		wreg, fsr2l, fsr2h, status,2, status,0
  6569 ;; Tracked objects:
  6570 ;;		On entry : 0/0
  6571 ;;		On exit  : 0/0
  6572 ;;		Unchanged: 0/0
  6573 ;; Data sizes:     COMRAM   BANK0   BANK1   BANK2   BANK3   BANK4   BANK5   BANK6   BANK7   BANK8   BANK9  BANK10  BANK1
      +1  BANK12  BANK13  BANK14  BANK15
  6574 ;;      Params:         4       0       0       0       0       0       0       0       0       0       0       0       
      +0       0       0       0       0
  6575 ;;      Locals:         0       0       0       0       0       0       0       0       0       0       0       0       
      +0       0       0       0       0
  6576 ;;      Temps:          3       0       0       0       0       0       0       0       0       0       0       0       
      +0       0       0       0       0
  6577 ;;      Totals:         7       0       0       0       0       0       0       0       0       0       0       0       
      +0       0       0       0       0
  6578 ;;Total ram usage:        7 bytes
  6579 ;; Hardware stack levels used: 1
  6580 ;; This function calls:
  6581 ;;		Nothing
  6582 ;; This function is called by:
  6583 ;;		_ADC_interrupt
  6584 ;;		_adc_get_conversion_blocking
  6585 ;; This function uses a non-reentrant model
  6586 ;;
  6587                           
  6588                           	psect	text43
  6589   002550                     __ptext43:
  6590                           	callstack 0
  6591   002550                     _adc_reading_value:
  6592                           	callstack 18
  6593   002550                     
  6594                           ;MCAL_Layer/ADC/ADC.c: 111:     if(((void*)0)!=adc && ((void*)0)!=value){
  6595   002550  5001               	movf	adc_reading_value@adc^0,w,c
  6596   002552  1002               	iorwf	(adc_reading_value@adc+1)^0,w,c
  6597   002554  B4D8               	btfsc	status,2,c
  6598   002556  EFAF  F012         	goto	i2u293_41
  6599   00255A  EFB1  F012         	goto	i2u293_40
  6600   00255E                     i2u293_41:
  6601   00255E  EF02  F013         	goto	i2l360
  6602   002562                     i2u293_40:
  6603   002562  5003               	movf	adc_reading_value@value^0,w,c
  6604   002564  1004               	iorwf	(adc_reading_value@value+1)^0,w,c
  6605   002566  B4D8               	btfsc	status,2,c
  6606   002568  EFB8  F012         	goto	i2u294_41
  6607   00256C  EFBA  F012         	goto	i2u294_40
  6608   002570                     i2u294_41:
  6609   002570  EF02  F013         	goto	i2l360
  6610   002574                     i2u294_40:
  6611   002574                     
  6612                           ;MCAL_Layer/ADC/ADC.c: 112:        if((0x01u)==adc->reading_mode){
  6613   002574  EE20 F006          	lfsr	2,6
  6614   002578  5001               	movf	adc_reading_value@adc^0,w,c
  6615   00257A  26D9               	addwf	fsr2l,f,c
  6616   00257C  5002               	movf	(adc_reading_value@adc+1)^0,w,c
  6617   00257E  22DA               	addwfc	fsr2h,f,c
  6618   002580  A0DF               	btfss	indf2,0,c
  6619   002582  EFC5  F012         	goto	i2u295_41
  6620   002586  EFC7  F012         	goto	i2u295_40
  6621   00258A                     i2u295_41:
  6622   00258A  EFDB  F012         	goto	i2l3863
  6623   00258E                     i2u295_40:
  6624   00258E                     i2l3861:
  6625                           
  6626                           ;MCAL_Layer/ADC/ADC.c: 113:             *value=(uint16)((ADRESH << 8)+ADRESL);
  6627   00258E  50C3               	movf	195,w,c	;volatile
  6628   002590  CFC4 F005          	movff	4036,??_adc_reading_value	;volatile
  6629   002594  6A06               	clrf	(??_adc_reading_value+1)^0,c
  6630   002596  C005  F006         	movff	??_adc_reading_value,??_adc_reading_value+1
  6631   00259A  6A05               	clrf	??_adc_reading_value^0,c
  6632   00259C  2605               	addwf	??_adc_reading_value^0,f,c
  6633   00259E  0E00               	movlw	0
  6634   0025A0  2206               	addwfc	(??_adc_reading_value+1)^0,f,c
  6635   0025A2  C003  FFD9         	movff	adc_reading_value@value,fsr2l
  6636   0025A6  C004  FFDA         	movff	adc_reading_value@value+1,fsr2h
  6637   0025AA  C005  FFDE         	movff	??_adc_reading_value,postinc2
  6638   0025AE  C006  FFDD         	movff	??_adc_reading_value+1,postdec2
  6639                           
  6640                           ;MCAL_Layer/ADC/ADC.c: 114:         }
  6641   0025B2  EF02  F013         	goto	i2l3869
  6642   0025B6                     i2l3863:
  6643   0025B6  EE20 F006          	lfsr	2,6
  6644   0025BA  5001               	movf	adc_reading_value@adc^0,w,c
  6645   0025BC  26D9               	addwf	fsr2l,f,c
  6646   0025BE  5002               	movf	(adc_reading_value@adc+1)^0,w,c
  6647   0025C0  22DA               	addwfc	fsr2h,f,c
  6648   0025C2  B0DF               	btfsc	indf2,0,c
  6649   0025C4  EFE6  F012         	goto	i2u296_41
  6650   0025C8  EFE8  F012         	goto	i2u296_40
  6651   0025CC                     i2u296_41:
  6652   0025CC  EFC7  F012         	goto	i2l3861
  6653   0025D0                     i2u296_40:
  6654   0025D0                     
  6655                           ;MCAL_Layer/ADC/ADC.c: 116:            *value=(uint16)(((ADRESH << 8)+ADRESL)>>6);
  6656   0025D0  50C3               	movf	195,w,c	;volatile
  6657   0025D2  CFC4 F005          	movff	4036,??_adc_reading_value	;volatile
  6658   0025D6  6A06               	clrf	(??_adc_reading_value+1)^0,c
  6659   0025D8  C005  F006         	movff	??_adc_reading_value,??_adc_reading_value+1
  6660   0025DC  6A05               	clrf	??_adc_reading_value^0,c
  6661   0025DE  2605               	addwf	??_adc_reading_value^0,f,c
  6662   0025E0  0E00               	movlw	0
  6663   0025E2  2206               	addwfc	(??_adc_reading_value+1)^0,f,c
  6664   0025E4  0E06               	movlw	6
  6665   0025E6  6E07               	movwf	(??_adc_reading_value+2)^0,c
  6666   0025E8                     i2u297_45:
  6667   0025E8  3406               	rlcf	(??_adc_reading_value+1)^0,w,c
  6668   0025EA  3206               	rrcf	(??_adc_reading_value+1)^0,f,c
  6669   0025EC  3205               	rrcf	??_adc_reading_value^0,f,c
  6670   0025EE  2E07               	decfsz	(??_adc_reading_value+2)^0,f,c
  6671   0025F0  EFF4  F012         	goto	i2u297_45
  6672   0025F4  C003  FFD9         	movff	adc_reading_value@value,fsr2l
  6673   0025F8  C004  FFDA         	movff	adc_reading_value@value+1,fsr2h
  6674   0025FC  C005  FFDE         	movff	??_adc_reading_value,postinc2
  6675   002600  C006  FFDD         	movff	??_adc_reading_value+1,postdec2
  6676   002604                     i2l3869:
  6677   002604                     i2l360:
  6678   002604  0012               	return		;funcret
  6679   002606                     __end_of_adc_reading_value:
  6680                           	callstack 0
  6681                           
  6682                           	psect	text44
  6683   000000                     __ptext44:
  6684                           	callstack 0
  6685   000000                     
  6686                           	psect	rparam
  6687   000000                     
  6688                           	psect	temp
  6689   000073                     btemp:
  6690                           	callstack 0
  6691   000073                     	ds	1
  6692   000000                     int$flags	set	btemp
  6693   000000                     wtemp8	set	btemp+1
  6694   000000                     ttemp5	set	btemp+1
  6695   000000                     ttemp6	set	btemp+4
  6696   000000                     ttemp7	set	btemp+8
  6697                           
  6698                           	psect	idloc
  6699                           
  6700                           ;Config register IDLOC0 @ 0x200000
  6701                           ;	unspecified, using default values
  6702   200000                     	org	2097152
  6703   200000  FF                 	db	255
  6704                           
  6705                           ;Config register IDLOC1 @ 0x200001
  6706                           ;	unspecified, using default values
  6707   200001                     	org	2097153
  6708   200001  FF                 	db	255
  6709                           
  6710                           ;Config register IDLOC2 @ 0x200002
  6711                           ;	unspecified, using default values
  6712   200002                     	org	2097154
  6713   200002  FF                 	db	255
  6714                           
  6715                           ;Config register IDLOC3 @ 0x200003
  6716                           ;	unspecified, using default values
  6717   200003                     	org	2097155
  6718   200003  FF                 	db	255
  6719                           
  6720                           ;Config register IDLOC4 @ 0x200004
  6721                           ;	unspecified, using default values
  6722   200004                     	org	2097156
  6723   200004  FF                 	db	255
  6724                           
  6725                           ;Config register IDLOC5 @ 0x200005
  6726                           ;	unspecified, using default values
  6727   200005                     	org	2097157
  6728   200005  FF                 	db	255
  6729                           
  6730                           ;Config register IDLOC6 @ 0x200006
  6731                           ;	unspecified, using default values
  6732   200006                     	org	2097158
  6733   200006  FF                 	db	255
  6734                           
  6735                           ;Config register IDLOC7 @ 0x200007
  6736                           ;	unspecified, using default values
  6737   200007                     	org	2097159
  6738   200007  FF                 	db	255
  6739                           
  6740                           	psect	config
  6741                           
  6742                           ; Padding undefined space
  6743   300000                     	org	3145728
  6744   300000  FF                 	db	255
  6745                           
  6746                           ;Config register CONFIG1H @ 0x300001
  6747                           ;	Oscillator Selection bits
  6748                           ;	OSC = HS, HS oscillator
  6749                           ;	Fail-Safe Clock Monitor Enable bit
  6750                           ;	FCMEN = OFF, Fail-Safe Clock Monitor disabled
  6751                           ;	Internal/External Oscillator Switchover bit
  6752                           ;	IESO = OFF, Oscillator Switchover mode disabled
  6753   300001                     	org	3145729
  6754   300001  02                 	db	2
  6755                           
  6756                           ;Config register CONFIG2L @ 0x300002
  6757                           ;	Power-up Timer Enable bit
  6758                           ;	PWRT = OFF, PWRT disabled
  6759                           ;	Brown-out Reset Enable bits
  6760                           ;	BOREN = OFF, Brown-out Reset disabled in hardware and software
  6761                           ;	Brown Out Reset Voltage bits
  6762                           ;	BORV = 1, 
  6763   300002                     	org	3145730
  6764   300002  09                 	db	9
  6765                           
  6766                           ;Config register CONFIG2H @ 0x300003
  6767                           ;	Watchdog Timer Enable bit
  6768                           ;	WDT = OFF, WDT disabled (control is placed on the SWDTEN bit)
  6769                           ;	Watchdog Timer Postscale Select bits
  6770                           ;	WDTPS = 32768, 1:32768
  6771   300003                     	org	3145731
  6772   300003  1E                 	db	30
  6773                           
  6774                           ; Padding undefined space
  6775   300004                     	org	3145732
  6776   300004  FF                 	db	255
  6777                           
  6778                           ;Config register CONFIG3H @ 0x300005
  6779                           ;	CCP2 MUX bit
  6780                           ;	CCP2MX = PORTC, CCP2 input/output is multiplexed with RC1
  6781                           ;	PORTB A/D Enable bit
  6782                           ;	PBADEN = OFF, PORTB<4:0> pins are configured as digital I/O on Reset
  6783                           ;	Low-Power Timer1 Oscillator Enable bit
  6784                           ;	LPT1OSC = OFF, Timer1 configured for higher power operation
  6785                           ;	MCLR Pin Enable bit
  6786                           ;	MCLRE = ON, MCLR pin enabled; RE3 input pin disabled
  6787   300005                     	org	3145733
  6788   300005  81                 	db	129
  6789                           
  6790                           ;Config register CONFIG4L @ 0x300006
  6791                           ;	Stack Full/Underflow Reset Enable bit
  6792                           ;	STVREN = ON, Stack full/underflow will cause Reset
  6793                           ;	Single-Supply ICSP Enable bit
  6794                           ;	LVP = OFF, Single-Supply ICSP disabled
  6795                           ;	Extended Instruction Set Enable bit
  6796                           ;	XINST = OFF, Instruction set extension and Indexed Addressing mode disabled (Legacy mo
      +                          de)
  6797                           ;	Background Debugger Enable bit
  6798                           ;	DEBUG = 0x1, unprogrammed default
  6799   300006                     	org	3145734
  6800   300006  81                 	db	129
  6801                           
  6802                           ; Padding undefined space
  6803   300007                     	org	3145735
  6804   300007  FF                 	db	255
  6805                           
  6806                           ;Config register CONFIG5L @ 0x300008
  6807                           ;	Code Protection bit
  6808                           ;	CP0 = OFF, Block 0 (000800-003FFFh) not code-protected
  6809                           ;	Code Protection bit
  6810                           ;	CP1 = OFF, Block 1 (004000-007FFFh) not code-protected
  6811                           ;	Code Protection bit
  6812                           ;	CP2 = OFF, Block 2 (008000-00BFFFh) not code-protected
  6813                           ;	Code Protection bit
  6814                           ;	CP3 = OFF, Block 3 (00C000-00FFFFh) not code-protected
  6815   300008                     	org	3145736
  6816   300008  0F                 	db	15
  6817                           
  6818                           ;Config register CONFIG5H @ 0x300009
  6819                           ;	Boot Block Code Protection bit
  6820                           ;	CPB = OFF, Boot block (000000-0007FFh) not code-protected
  6821                           ;	Data EEPROM Code Protection bit
  6822                           ;	CPD = OFF, Data EEPROM not code-protected
  6823   300009                     	org	3145737
  6824   300009  C0                 	db	192
  6825                           
  6826                           ;Config register CONFIG6L @ 0x30000A
  6827                           ;	Write Protection bit
  6828                           ;	WRT0 = OFF, Block 0 (000800-003FFFh) not write-protected
  6829                           ;	Write Protection bit
  6830                           ;	WRT1 = OFF, Block 1 (004000-007FFFh) not write-protected
  6831                           ;	Write Protection bit
  6832                           ;	WRT2 = OFF, Block 2 (008000-00BFFFh) not write-protected
  6833                           ;	Write Protection bit
  6834                           ;	WRT3 = OFF, Block 3 (00C000-00FFFFh) not write-protected
  6835   30000A                     	org	3145738
  6836   30000A  0F                 	db	15
  6837                           
  6838                           ;Config register CONFIG6H @ 0x30000B
  6839                           ;	Configuration Register Write Protection bit
  6840                           ;	WRTC = OFF, Configuration registers (300000-3000FFh) not write-protected
  6841                           ;	Boot Block Write Protection bit
  6842                           ;	WRTB = OFF, Boot Block (000000-0007FFh) not write-protected
  6843                           ;	Data EEPROM Write Protection bit
  6844                           ;	WRTD = OFF, Data EEPROM not write-protected
  6845   30000B                     	org	3145739
  6846   30000B  E0                 	db	224
  6847                           
  6848                           ;Config register CONFIG7L @ 0x30000C
  6849                           ;	Table Read Protection bit
  6850                           ;	EBTR0 = OFF, Block 0 (000800-003FFFh) not protected from table reads executed in other
      +                           blocks
  6851                           ;	Table Read Protection bit
  6852                           ;	EBTR1 = OFF, Block 1 (004000-007FFFh) not protected from table reads executed in other
      +                           blocks
  6853                           ;	Table Read Protection bit
  6854                           ;	EBTR2 = OFF, Block 2 (008000-00BFFFh) not protected from table reads executed in other
      +                           blocks
  6855                           ;	Table Read Protection bit
  6856                           ;	EBTR3 = OFF, Block 3 (00C000-00FFFFh) not protected from table reads executed in other
      +                           blocks
  6857   30000C                     	org	3145740
  6858   30000C  0F                 	db	15
  6859                           
  6860                           ;Config register CONFIG7H @ 0x30000D
  6861                           ;	Boot Block Table Read Protection bit
  6862                           ;	EBTRB = OFF, Boot Block (000000-0007FFh) not protected from table reads executed in ot
      +                          her blocks
  6863   30000D                     	org	3145741
  6864   30000D  40                 	db	64
  6865                           tosu	equ	0xFFF
  6866                           tosh	equ	0xFFE
  6867                           tosl	equ	0xFFD
  6868                           stkptr	equ	0xFFC
  6869                           pclatu	equ	0xFFB
  6870                           pclath	equ	0xFFA
  6871                           pcl	equ	0xFF9
  6872                           tblptru	equ	0xFF8
  6873                           tblptrh	equ	0xFF7
  6874                           tblptrl	equ	0xFF6
  6875                           tablat	equ	0xFF5
  6876                           prodh	equ	0xFF4
  6877                           prodl	equ	0xFF3
  6878                           indf0	equ	0xFEF
  6879                           postinc0	equ	0xFEE
  6880                           postdec0	equ	0xFED
  6881                           preinc0	equ	0xFEC
  6882                           plusw0	equ	0xFEB
  6883                           fsr0h	equ	0xFEA
  6884                           fsr0l	equ	0xFE9
  6885                           wreg	equ	0xFE8
  6886                           indf1	equ	0xFE7
  6887                           postinc1	equ	0xFE6
  6888                           postdec1	equ	0xFE5
  6889                           preinc1	equ	0xFE4
  6890                           plusw1	equ	0xFE3
  6891                           fsr1h	equ	0xFE2
  6892                           fsr1l	equ	0xFE1
  6893                           bsr	equ	0xFE0
  6894                           indf2	equ	0xFDF
  6895                           postinc2	equ	0xFDE
  6896                           postdec2	equ	0xFDD
  6897                           preinc2	equ	0xFDC
  6898                           plusw2	equ	0xFDB
  6899                           fsr2h	equ	0xFDA
  6900                           fsr2l	equ	0xFD9
  6901                           status	equ	0xFD8

Data Sizes:
    Strings     19
    Constant    0
    Data        63
    BSS         111
    Persistent  0
    Stack       0

Auto Spaces:
    Space          Size  Autos    Used
    COMRAM          126     92     114
    BANK0           128      4     124
    BANK1           256      7      39
    BANK2           256      0       0
    BANK3           256      0       0
    BANK4           256      0       0
    BANK5           256      0       0
    BANK6           256      0       0
    BANK7           256      0       0
    BANK8           256      0       0
    BANK9           256      0       0
    BANK10          256      0       0
    BANK11          256      0       0
    BANK12          256      0       0
    BANK13          256      0       0
    BANK14          256      0       0
    BANK15          128      0       0

Pointer List with Targets:

    fputs@s	PTR const unsigned char  size(2) Largest target is 32
		 -> dbuf(BANK1[32]), 

    fputs@fp	PTR struct _IO_FILE size(2) Largest target is 12
		 -> sprintf@f(COMRAM[12]), 

    fputc@fp...source	PTR const unsigned char  size(2) Largest target is 0

    fputc@fp...buffer	PTR unsigned char  size(2) Largest target is 0

    fputc@fp	PTR struct _IO_FILE size(2) Largest target is 12
		 -> sprintf@f(COMRAM[12]), 

    vfprintf@ap	PTR PTR void  size(2) Largest target is 2
		 -> sprintf@ap(COMRAM[2]), 

    vfprintf@fp	PTR struct _IO_FILE size(2) Largest target is 12
		 -> sprintf@f(COMRAM[12]), 

    vfprintf@fmt	PTR const unsigned char  size(2) Largest target is 3
		 -> STR_3(CODE[3]), STR_2(CODE[3]), STR_1(CODE[3]), 

    vfprintf@cfmt	PTR unsigned char  size(2) Largest target is 3
		 -> STR_3(CODE[3]), STR_2(CODE[3]), STR_1(CODE[3]), 

    vfpfcnvrt@fp	PTR struct _IO_FILE size(2) Largest target is 12
		 -> sprintf@f(COMRAM[12]), 

    vfpfcnvrt@ap	PTR PTR void  size(2) Largest target is 2
		 -> sprintf@ap(COMRAM[2]), 

    vfpfcnvrt@cp	PTR unsigned char  size(2) Largest target is 3
		 -> STR_3(CODE[3]), STR_2(CODE[3]), STR_1(CODE[3]), 

    vfpfcnvrt@fmt	PTR PTR unsigned char  size(2) Largest target is 2
		 -> vfprintf@cfmt(COMRAM[2]), 

    S2467$vp	PTR void  size(2) Largest target is 0

    convarg.vp	PTR void  size(2) Largest target is 0

    utoa@fp	PTR struct _IO_FILE size(2) Largest target is 12
		 -> sprintf@f(COMRAM[12]), 

    pad@buf	PTR unsigned char  size(2) Largest target is 32
		 -> dbuf(BANK1[32]), 

    pad@fp	PTR struct _IO_FILE size(2) Largest target is 12
		 -> sprintf@f(COMRAM[12]), 

    sprintf@fmt	PTR const unsigned char  size(2) Largest target is 3
		 -> STR_3(CODE[3]), STR_2(CODE[3]), STR_1(CODE[3]), 

    sprintf@s	PTR unsigned char  size(2) Largest target is 11
		 -> convert_int_to_str@Temp_str(COMRAM[11]), convert_short_to_str@Temp_str(BANK1[6]), convert_byte_to_str@Temp_str(COMRAM[4]), 

    sprintf@ap	PTR void [1] size(2) Largest target is 2
		 -> ?_sprintf(COMRAM[2]), 

    S2419$source	PTR const unsigned char  size(2) Largest target is 0

    f...source	PTR const unsigned char  size(2) Largest target is 0

    S2419$buffer	PTR unsigned char  size(2) Largest target is 0

    f...buffer	PTR unsigned char  size(2) Largest target is 0

    memset@dest	PTR void  size(2) Largest target is 6
		 -> conv2(BANK0[6]), conv1(BANK0[6]), 

    memset@s	PTR unsigned char  size(2) Largest target is 6
		 -> conv2(BANK0[6]), conv1(BANK0[6]), 

    adc_1.ADC_callback	PTR FTN()void  size(2) Largest target is 1
		 -> ADC_interrupt(), 

    Intx_set_interrupt_Handeler@intx.interrupt_callback	PTR FTN()void  size(2) Largest target is 0

    Int2_interrupt_Handeler	PTR FTN()void  size(2) Largest target is 1
		 -> NULL(), 

    Int1_interrupt_Handeler	PTR FTN()void  size(2) Largest target is 1
		 -> NULL(), 

    Int0_interrupt_Handeler	PTR FTN()void  size(2) Largest target is 1
		 -> NULL(), 

    interrupt_intx_pin@intx.interrupt_callback	PTR FTN()void  size(2) Largest target is 0

    interrupt_intx_edge@intx.interrupt_callback	PTR FTN()void  size(2) Largest target is 0

    interrupt_intx_disable@intx.interrupt_callback	PTR FTN()void  size(2) Largest target is 0

    S1565$interrupt_callback	PTR FTN()void  size(2) Largest target is 0

    interrupt_intx_enable@intx.interrupt_callback	PTR FTN()void  size(2) Largest target is 0

    RB7_HIGH_interrupt_Handeler	PTR FTN()void  size(2) Largest target is 1
		 -> NULL(), 

    RB7_LOW_interrupt_Handeler	PTR FTN()void  size(2) Largest target is 1
		 -> NULL(), 

    RB6_HIGH_interrupt_Handeler	PTR FTN()void  size(2) Largest target is 1
		 -> NULL(), 

    RB6_LOW_interrupt_Handeler	PTR FTN()void  size(2) Largest target is 1
		 -> NULL(), 

    RB5_HIGH_interrupt_Handeler	PTR FTN()void  size(2) Largest target is 1
		 -> NULL(), 

    RB5_LOW_interrupt_Handeler	PTR FTN()void  size(2) Largest target is 1
		 -> NULL(), 

    RB4_HIGH_interrupt_Handeler	PTR FTN()void  size(2) Largest target is 1
		 -> NULL(), 

    RB4_LOW_interrupt_Handeler	PTR FTN()void  size(2) Largest target is 1
		 -> NULL(), 

    S1629$interrupt_callback_HIGH	PTR FTN()void  size(2) Largest target is 0

    interrupt_rbx_int@rbx.interrupt_callback_HIGH	PTR FTN()void  size(2) Largest target is 0

    S1629$interrupt_callback_LOW	PTR FTN()void  size(2) Largest target is 0

    interrupt_rbx_int@rbx.interrupt_callback_LOW	PTR FTN()void  size(2) Largest target is 0

    gpio_pin_int@pin_cfg	PTR const struct . size(2) Largest target is 6
		 -> lcd.data_pin(BANK0[4]), lcd(BANK0[6]), led_int@pin_cfg(COMRAM[1]), 

    gpio_pin_write_level@pin_cfg	PTR const struct . size(2) Largest target is 6
		 -> lcd.data_pin(BANK0[4]), lcd(BANK0[6]), relay_off@relay_pin(COMRAM[1]), relay_on@relay_pin(COMRAM[1]), 
		 -> relay_int@relay_pin(COMRAM[1]), led_off@pin_cfg(COMRAM[1]), led_on@pin_cfg(COMRAM[1]), led_int@pin_cfg(COMRAM[1]), 

    gpio_pin_direction_int@pin_cfg	PTR const struct . size(2) Largest target is 6
		 -> lcd.data_pin(BANK0[4]), lcd(BANK0[6]), relay_int@relay_pin(COMRAM[1]), led_int@pin_cfg(COMRAM[1]), 

    Tris_Regs	PTR volatile unsigned char [5] size(2) Largest target is 1
		 -> TRISD(ABS[1]), TRISC(ABS[1]), TRISB(ABS[1]), TRISE(ABS[1]), 
		 -> TRISA(BITBIGSFRlllll[1]), 

    Lat_Regs	PTR volatile unsigned char [5] size(2) Largest target is 1
		 -> LATE(BITBIGSFRllllh[1]), LATD(BITBIGSFRllllh[1]), LATC(BITBIGSFRllllh[1]), LATB(BITBIGSFRllllh[1]), 
		 -> LATA(BITBIGSFRlllll[1]), 

    Port_Regs	PTR volatile unsigned char [5] size(2) Largest target is 1
		 -> PORTE(BITBIGSFRlllll[1]), PORTD(BITBIGSFRlllll[1]), PORTC(BITBIGSFRlllll[1]), PORTB(BITBIGSFRlllll[1]), 
		 -> PORTA(BITBIGSFRlllll[1]), 

    adc_reading_mode_cfg@adc.ADC_callback	PTR FTN()void  size(2) Largest target is 1
		 -> ADC_interrupt(), 

    adc_reading_mode_cfg@adc	PTR const struct . size(2) Largest target is 7
		 -> adc_1(BANK0[7]), 

    adc_Vref_cfg@adc.ADC_callback	PTR FTN()void  size(2) Largest target is 1
		 -> ADC_interrupt(), 

    adc_Vref_cfg@adc	PTR const struct . size(2) Largest target is 7
		 -> adc_1(BANK0[7]), 

    adc_start_conversion_interrupt@adc	PTR const struct . size(2) Largest target is 7
		 -> adc_1(BANK0[7]), 

    adc_select_channel@adc	PTR const struct . size(2) Largest target is 7
		 -> adc_1(BANK0[7]), 

    adc_reading_value@adc.ADC_callback	PTR FTN()void  size(2) Largest target is 1
		 -> ADC_interrupt(), 

    adc_reading_value@value	PTR unsigned short  size(2) Largest target is 2
		 -> reading_2(COMRAM[2]), reading_1(COMRAM[2]), 

    adc_reading_value@adc	PTR const struct . size(2) Largest target is 7
		 -> adc_1(BANK0[7]), 

    adc_start@adc	PTR const struct . size(2) Largest target is 7
		 -> adc_1(BANK0[7]), 

    ADC_Interrupt_handler	PTR FTN()void  size(2) Largest target is 1
		 -> ADC_interrupt(), NULL(), 

    S719$ADC_callback	PTR FTN()void  size(2) Largest target is 1
		 -> ADC_interrupt(), 

    adc_int@adc.ADC_callback	PTR FTN()void  size(2) Largest target is 1
		 -> ADC_interrupt(), 

    adc_int@adc	PTR const struct . size(2) Largest target is 7
		 -> adc_1(BANK0[7]), 

    convert_short_to_str@str	PTR unsigned char  size(2) Largest target is 6
		 -> conv2(BANK0[6]), conv1(BANK0[6]), 

    sp__memset	PTR void  size(2) Largest target is 6
		 -> conv2(BANK0[6]), conv1(BANK0[6]), 

    lcd_4_bit_pos@lcd	PTR const struct . size(2) Largest target is 6
		 -> lcd(BANK0[6]), 

    lcd_send_4_bit_enable@lcd	PTR const struct . size(2) Largest target is 6
		 -> lcd(BANK0[6]), 

    lcd_send_4_bit@lcd	PTR const struct . size(2) Largest target is 6
		 -> lcd(BANK0[6]), 

    chr_lcd_4_send_string_pos@data	PTR unsigned char  size(2) Largest target is 8
		 -> conv2(BANK0[6]), conv1(BANK0[6]), STR_5(CODE[8]), STR_4(CODE[8]), 

    chr_lcd_4_send_string_pos@lcd	PTR const struct . size(2) Largest target is 6
		 -> lcd(BANK0[6]), 

    chr_lcd_4_send_char@lcd	PTR const struct . size(2) Largest target is 6
		 -> lcd(BANK0[6]), 

    chr_lcd_4_send_cmd@lcd	PTR const struct . size(2) Largest target is 6
		 -> lcd(BANK0[6]), 

    chr_lcd_4_int@lcd	PTR const struct . size(2) Largest target is 6
		 -> lcd(BANK0[6]), 


Critical Paths under _main in COMRAM

    _convert_short_to_str->_sprintf
    _sprintf->_vfprintf
    _vfprintf->_vfpfcnvrt
    _vfpfcnvrt->_utoa
    _utoa->_pad
    _pad->_fputs
    _fputs->_fputc
    _chr_lcd_4_send_string_pos->_lcd_4_bit_pos
    _lcd_4_bit_pos->_chr_lcd_4_send_cmd
    _chr_lcd_4_send_char->_lcd_send_4_bit
    _chr_lcd_4_int->_chr_lcd_4_send_cmd
    _gpio_pin_int->_gpio_pin_write_level
    _chr_lcd_4_send_cmd->_lcd_send_4_bit
    _lcd_send_4_bit_enable->_gpio_pin_write_level
    _lcd_send_4_bit->_gpio_pin_write_level
    _adc_start_conversion_interrupt->_adc_select_channel
    _adc_select_channel->_adc_pin_cfg
    _adc_int->_adc_pin_cfg
    ___fltol->___flmul
    ___flmul->___xxtofl

Critical Paths under _InterruptManagmentHigh in COMRAM

    _ADC_interrupt->_adc_reading_value

Critical Paths under _main in BANK0

    _main->_convert_short_to_str

Critical Paths under _InterruptManagmentHigh in BANK0

    None.

Critical Paths under _main in BANK1

    _main->_convert_short_to_str

Critical Paths under _InterruptManagmentHigh in BANK1

    None.

Critical Paths under _main in BANK2

    None.

Critical Paths under _InterruptManagmentHigh in BANK2

    None.

Critical Paths under _main in BANK3

    None.

Critical Paths under _InterruptManagmentHigh in BANK3

    None.

Critical Paths under _main in BANK4

    None.

Critical Paths under _InterruptManagmentHigh in BANK4

    None.

Critical Paths under _main in BANK5

    None.

Critical Paths under _InterruptManagmentHigh in BANK5

    None.

Critical Paths under _main in BANK6

    None.

Critical Paths under _InterruptManagmentHigh in BANK6

    None.

Critical Paths under _main in BANK7

    None.

Critical Paths under _InterruptManagmentHigh in BANK7

    None.

Critical Paths under _main in BANK8

    None.

Critical Paths under _InterruptManagmentHigh in BANK8

    None.

Critical Paths under _main in BANK9

    None.

Critical Paths under _InterruptManagmentHigh in BANK9

    None.

Critical Paths under _main in BANK10

    None.

Critical Paths under _InterruptManagmentHigh in BANK10

    None.

Critical Paths under _main in BANK11

    None.

Critical Paths under _InterruptManagmentHigh in BANK11

    None.

Critical Paths under _main in BANK12

    None.

Critical Paths under _InterruptManagmentHigh in BANK12

    None.

Critical Paths under _main in BANK13

    None.

Critical Paths under _InterruptManagmentHigh in BANK13

    None.

Critical Paths under _main in BANK14

    None.

Critical Paths under _InterruptManagmentHigh in BANK14

    None.

Critical Paths under _main in BANK15

    None.

Critical Paths under _InterruptManagmentHigh in BANK15

    None.

Call Graph Tables:

 ---------------------------------------------------------------------------------
 (Depth) Function   	        Calls       Base Space   Used Autos Params    Refs
 ---------------------------------------------------------------------------------
 (0) _main                                                 0     0      0  118698
                            ___flmul
                            ___fltol
                            ___lwdiv
                           ___xxtofl
                            _adc_int
     _adc_start_conversion_interrupt
                      _chr_lcd_4_int
                 _chr_lcd_4_send_cmd
          _chr_lcd_4_send_string_pos
               _convert_short_to_str
 ---------------------------------------------------------------------------------
 (1) _convert_short_to_str                                11     7      4    9669
                                              0 BANK0      4     0      4
                                              0 BANK1      7     7      0
                             _memset
                            _sprintf
 ---------------------------------------------------------------------------------
 (2) _sprintf                                             24    16      8    7114
                                             70 COMRAM    22    14      8
                           _vfprintf
 ---------------------------------------------------------------------------------
 (3) _vfprintf                                             8     2      6    6268
                                             62 COMRAM     8     2      6
                          _vfpfcnvrt
 ---------------------------------------------------------------------------------
 (4) _vfpfcnvrt                                           19    13      6    5807
                                             48 COMRAM    14     8      6
                              _fputc
                               _utoa
 ---------------------------------------------------------------------------------
 (5) _utoa                                                10     6      4    4240
                                             38 COMRAM    10     6      4
                            ___lwdiv
                            ___lwmod
                                _pad
 ---------------------------------------------------------------------------------
 (6) _pad                                                 11     5      6    2533
                                             27 COMRAM    11     5      6
                              _fputc
                              _fputs
 ---------------------------------------------------------------------------------
 (7) _fputs                                                7     3      4    1177
                                             20 COMRAM     7     3      4
                              _fputc
 ---------------------------------------------------------------------------------
 (8) _fputc                                                9     5      4     857
                                             11 COMRAM     9     5      4
                              _putch
 ---------------------------------------------------------------------------------
 (9) _putch                                                1     1      0       0
 ---------------------------------------------------------------------------------
 (6) ___lwmod                                              5     1      4     412
                                             11 COMRAM     5     1      4
 ---------------------------------------------------------------------------------
 (6) ___lwdiv                                              7     3      4     781
                                             11 COMRAM     7     3      4
 ---------------------------------------------------------------------------------
 (2) _memset                                              12     6      6    1827
                                             11 COMRAM    12     6      6
 ---------------------------------------------------------------------------------
 (1) _chr_lcd_4_send_string_pos                           10     4      6   47656
                                             37 COMRAM     9     3      6
                _chr_lcd_4_send_char
                      _lcd_4_bit_pos
 ---------------------------------------------------------------------------------
 (2) _lcd_4_bit_pos                                        6     2      4   24432
                                             31 COMRAM     6     2      4
                 _chr_lcd_4_send_cmd
 ---------------------------------------------------------------------------------
 (2) _chr_lcd_4_send_char                                  4     1      3   21801
                                             28 COMRAM     3     0      3
               _gpio_pin_write_level
                     _lcd_send_4_bit
              _lcd_send_4_bit_enable
 ---------------------------------------------------------------------------------
 (1) _chr_lcd_4_int                                        6     4      2   32494
                                             31 COMRAM     5     3      2
                 _chr_lcd_4_send_cmd
                       _gpio_pin_int
 ---------------------------------------------------------------------------------
 (2) _gpio_pin_int                                         3     1      2    8280
                                             20 COMRAM     2     0      2
             _gpio_pin_direction_int
               _gpio_pin_write_level
 ---------------------------------------------------------------------------------
 (3) _gpio_pin_direction_int                               9     7      2    1053
                                             11 COMRAM     8     6      2
 ---------------------------------------------------------------------------------
 (3) _chr_lcd_4_send_cmd                                   4     1      3   23777
                                             28 COMRAM     3     0      3
               _gpio_pin_write_level
                     _lcd_send_4_bit
              _lcd_send_4_bit_enable
 ---------------------------------------------------------------------------------
 (4) _lcd_send_4_bit_enable                                2     0      2    7046
                                             20 COMRAM     2     0      2
               _gpio_pin_write_level
 ---------------------------------------------------------------------------------
 (4) _lcd_send_4_bit                                       8     5      3    7592
                                             20 COMRAM     8     5      3
               _gpio_pin_write_level
 ---------------------------------------------------------------------------------
 (5) _gpio_pin_write_level                                10     7      3    6524
                                             11 COMRAM     9     6      3
 ---------------------------------------------------------------------------------
 (1) _adc_start_conversion_interrupt                       4     1      3     982
                                             18 COMRAM     3     0      3
                 _adc_select_channel
                          _adc_start
 ---------------------------------------------------------------------------------
 (2) _adc_start                                            3     1      2     182
                                             11 COMRAM     2     0      2
 ---------------------------------------------------------------------------------
 (2) _adc_select_channel                                   5     2      3     400
                                             14 COMRAM     4     1      3
                        _adc_pin_cfg
 ---------------------------------------------------------------------------------
 (1) _adc_int                                              4     2      2     588
                                             14 COMRAM     3     1      2
                       _adc_Vref_cfg
                        _adc_pin_cfg
               _adc_reading_mode_cfg
 ---------------------------------------------------------------------------------
 (2) _adc_reading_mode_cfg                                 2     0      2     142
                                             11 COMRAM     2     0      2
 ---------------------------------------------------------------------------------
 (3) _adc_pin_cfg                                          3     3      0      22
                                             11 COMRAM     3     3      0
 ---------------------------------------------------------------------------------
 (2) _adc_Vref_cfg                                         2     0      2     164
                                             11 COMRAM     2     0      2
 ---------------------------------------------------------------------------------
 (1) ___xxtofl                                            14    10      4     474
                                             11 COMRAM    14    10      4
 ---------------------------------------------------------------------------------
 (1) ___fltol                                             10     6      4     381
                                             50 COMRAM    10     6      4
                            ___flmul (ARG)
                           ___xxtofl (ARG)
 ---------------------------------------------------------------------------------
 (1) ___flmul                                             25    17      8    1896
                                             25 COMRAM    25    17      8
                           ___xxtofl (ARG)
 ---------------------------------------------------------------------------------
 Estimated maximum stack depth 9
 ---------------------------------------------------------------------------------
 (Depth) Function   	        Calls       Base Space   Used Autos Params    Refs
 ---------------------------------------------------------------------------------
 (10) _InterruptManagmentHigh                              4     4      0     794
                                              7 COMRAM     4     4      0
                            _ADC_ISR
                           _INT0_ISR
                           _INT1_ISR
                           _INT2_ISR
                            _RB4_ISR
                            _RB5_ISR
                            _RB6_ISR
                            _RB7_ISR
 ---------------------------------------------------------------------------------
 (11) _RB7_ISR                                             1     1      0      44
                                              0 COMRAM     1     1      0
 ---------------------------------------------------------------------------------
 (11) _RB6_ISR                                             1     1      0      44
                                              0 COMRAM     1     1      0
 ---------------------------------------------------------------------------------
 (11) _RB5_ISR                                             1     1      0      44
                                              0 COMRAM     1     1      0
 ---------------------------------------------------------------------------------
 (11) _RB4_ISR                                             1     1      0      44
                                              0 COMRAM     1     1      0
 ---------------------------------------------------------------------------------
 (11) _INT2_ISR                                            0     0      0       0
 ---------------------------------------------------------------------------------
 (11) _INT1_ISR                                            0     0      0       0
 ---------------------------------------------------------------------------------
 (11) _INT0_ISR                                            0     0      0       0
 ---------------------------------------------------------------------------------
 (11) _ADC_ISR                                             0     0      0     618
                                NULL *
                      _ADC_interrupt *
 ---------------------------------------------------------------------------------
 (12) _ADC_interrupt                                       0     0      0     618
                  _adc_reading_value
 ---------------------------------------------------------------------------------
 (13) _adc_reading_value                                   8     4      4     618
                                              0 COMRAM     7     3      4
 ---------------------------------------------------------------------------------
 (12) NULL(Fake)                                           0     0      0       0
 ---------------------------------------------------------------------------------
 Estimated maximum stack depth 13
 ---------------------------------------------------------------------------------

 Call Graph Graphs:

 _main (ROOT)
   ___flmul
     ___xxtofl (ARG)
   ___fltol
     ___flmul (ARG)
     ___xxtofl (ARG)
   ___lwdiv
   ___xxtofl
   _adc_int
     _adc_Vref_cfg
     _adc_pin_cfg
     _adc_reading_mode_cfg
   _adc_start_conversion_interrupt
     _adc_select_channel
       _adc_pin_cfg
     _adc_start
   _chr_lcd_4_int
     _chr_lcd_4_send_cmd
       _gpio_pin_write_level
       _lcd_send_4_bit
         _gpio_pin_write_level
       _lcd_send_4_bit_enable
         _gpio_pin_write_level
     _gpio_pin_int
       _gpio_pin_direction_int
       _gpio_pin_write_level
   _chr_lcd_4_send_cmd
   _chr_lcd_4_send_string_pos
     _chr_lcd_4_send_char
       _gpio_pin_write_level
       _lcd_send_4_bit
       _lcd_send_4_bit_enable
     _lcd_4_bit_pos
       _chr_lcd_4_send_cmd
   _convert_short_to_str
     _memset
     _sprintf
       _vfprintf
         _vfpfcnvrt
           _fputc
             _putch
           _utoa
             ___lwdiv
             ___lwmod
             _pad
               _fputc
               _fputs
                 _fputc

 _InterruptManagmentHigh (ROOT)
   _ADC_ISR
     NULL(Fake) *
     _ADC_interrupt *
       _adc_reading_value
   _INT0_ISR
   _INT1_ISR
   _INT2_ISR
   _RB4_ISR
   _RB5_ISR
   _RB6_ISR
   _RB7_ISR

 Address spaces:
Name               Size   Autos  Total    Cost      Usage
BIGRAM             F7F      0       0      44        0.0%
EEDATA             400      0       0       0        0.0%
BITBANK14          100      0       0      33        0.0%
BANK14             100      0       0      34        0.0%
BITBANK13          100      0       0      31        0.0%
BANK13             100      0       0      32        0.0%
BITBANK12          100      0       0      29        0.0%
BANK12             100      0       0      30        0.0%
BITBANK11          100      0       0      27        0.0%
BANK11             100      0       0      28        0.0%
BITBANK10          100      0       0      25        0.0%
BANK10             100      0       0      26        0.0%
BITBANK9           100      0       0      23        0.0%
BANK9              100      0       0      24        0.0%
BITBANK8           100      0       0      21        0.0%
BANK8              100      0       0      22        0.0%
BITBANK7           100      0       0      19        0.0%
BANK7              100      0       0      20        0.0%
BITBANK6           100      0       0      17        0.0%
BANK6              100      0       0      18        0.0%
BITBANK5           100      0       0      15        0.0%
BANK5              100      0       0      16        0.0%
BITBANK4           100      0       0      13        0.0%
BANK4              100      0       0      14        0.0%
BITBANK3           100      0       0      10        0.0%
BANK3              100      0       0      11        0.0%
BITBANK2           100      0       0       8        0.0%
BANK2              100      0       0       9        0.0%
BITBANK1           100      0       0       6        0.0%
BANK1              100      7      27       7       15.2%
BITBANK15           80      0       0      35        0.0%
BANK15              80      0       0      36        0.0%
BITBANK0            80      0       0       4        0.0%
BANK0               80      4      7C       5       96.9%
BITCOMRAM           7E      0       0       0        0.0%
COMRAM              7E     5C      72       1       90.5%
BITBIGSFRhlhl       2B      0       0      38        0.0%
BITBIGSFRllhh       15      0       0      39        0.0%
BITBIGSFRhh          D      0       0      37        0.0%
BITBIGSFRllhll       7      0       0      40        0.0%
BITBIGSFRlllhh       6      0       0      41        0.0%
BITBIGSFRllllh       4      0       0      42        0.0%
BITBIGSFRlllll       4      0       0      43        0.0%
BIGSFR               0      0       0     200        0.0%
BITSFR               0      0       0     200        0.0%
SFR                  0      0       0     200        0.0%
STACK                0      0       0       2        0.0%
NULL                 0      0       0       0        0.0%
ABS                  0      0     115      12        0.0%
DATA                 0      0     115       3        0.0%
CODE                 0      0       0       0        0.0%


Microchip Technology PIC18 Macro Assembler V2.41 build 20230208172133 
Symbol Table                                                                                   Tue Jul 04 17:53:13 2023

                                    adc_Vref_cfg@adc 000C                                      ?_lcd_send_4_bit 0015  
                               ??_chr_lcd_4_send_cmd 0020                                                   l51 20D6  
                                                 l55 2B4C                                                   l59 2AEE  
                                                 l77 2764                                ??_chr_lcd_4_send_char 0020  
                                                l133 2A90                                                  l137 2D1C  
                                                l402 1EAA                                                  l411 29BC  
                                                l414 29C4                                                  l422 2BA0  
                                                l407 299A                                                  l159 27FE  
                                                l416 29C8                                                  l424 2BA2  
                                                l352 2E9C                                                  l177 254E  
                                                l348 26B8                                                  l372 2E1E  
                                                l383 2DC4                                                  l473 1FC2  
                                                l485 22DC                                                  l497 2D58  
                                                _lcd 00F2                                                  _pad 2800  
                            _Int2_interrupt_Handeler 00AB                                      __end_of_ADC_ISR 2DF4  
                       __end_of_convert_short_to_str 2550                              ?_gpio_pin_direction_int 000C  
                                                prod 0FF3                                                  tosl 0FFD  
                                                wreg 0FE8                                          led_on@F3059 0069  
                                       ___flmul@aexp 002B                                         ___flmul@bexp 002C  
                                       ___flmul@sign 0026                                         ___flmul@temp 0031  
                                       ___flmul@prod 002D                                      __end_of_RB4_ISR 2E88  
                                    __end_of_RB5_ISR 2E6E                                      __end_of_RB6_ISR 2E54  
                                    __end_of_RB7_ISR 2E3A                                         ___fltol@exp1 003C  
                                gpio_pin_int@pin_cfg 0015                                                 l1133 21DC  
                                               l1334 28EC                                                 l1511 1C2A  
                                               l1327 28E4                                                 l1344 2A2C  
                                               l1505 1A4C                                                 l4001 2E06  
                                               l1337 2A24                                                 l1450 10DA  
                                               l4003 2E18                                                 l1460 1336  
                                               l1524 2C94                                                 l4005 2E1E  
                                               l4021 1FC4                                                 l1454 143E  
                                               l4023 1FC4                                                 l1544 2822  
                                               l1560 23CE                                                 l1552 22FA  
                                               l1457 12D0                                                 l4201 2D96  
                                               l4041 2032                                                 l4033 1FF6  
                                               l4025 1FD6                                                 l1554 2302  
                                               l1467 1400                                                 l1459 1348  
                                               l1491 1958                                                 l4203 2DA8  
                                               l4051 2086                                                 l4043 2042  
                                               l4035 2012                                                 l4027 1FF2  
                                               l1548 2878                                                 l4301 1030  
                                               l4205 2DC4                                                 l4053 2096  
                                               l4045 2060                                                 l4037 2014  
                                               l1494 1AB4                                                 l4311 1068  
                                               l4303 1032                                                 l4055 20A6  
                                               l4047 2066                                                 l4039 2024  
                                               l4071 26BA                                                 l1576 2C48  
                                               l4401 1372                                                 l4321 1094  
                                               l4313 1078                                                 l4305 1042  
                                               l4057 20B6                                                 l4049 2076  
                                               l4081 2726                                                 l4073 26BE  
                                               l1569 1D6A                                                 l1498 19F0  
                                               l4411 13E8                                                 l4403 139C  
                                               l4331 10EA                                                 l4323 10A4  
                                               l4315 107E                                                 l4307 1052  
                                               l4171 2618                                                 l4059 20C6  
                                               l4075 26D0                                                 l1588 2498  
                                               l1596 2CD8                                                 l4413 1404  
                                               l4421 142A                                                 l4405 13A0  
                                               l4341 1124                                                 l4333 10FA  
                                               l4325 10B4                                                 l4317 1084  
                                               l4309 1062                                                 l4501 1A5A  
                                               l4181 269C                                                 l4173 261A  
                                               l4077 26E8                                                 l4423 142E  
                                               l4415 1414                                                 l4407 13BA  
                                               l4351 1176                                                 l4343 113A  
                                               l4327 10C4                                                 l4319 1092  
                                               l4511 1AA2                                                 l4503 1A5C  
                                               l4191 26B4                                                 l4183 26AC  
                                               l4175 2672                                                 l4167 2606  
                                               l3711 2A44                                                 l3703 2A2E  
                                               l4079 2724                                                 l1599 2EAE  
                                               l4417 1422                                                 l4409 13CE  
                                               l4361 11BC                                                 l4353 1184  
                                               l4345 1146                                                 l4337 110E  
                                               l4329 10CA                                                 l4441 2142  
                                               l4433 2102                                                 l4513 1AA4  
                                               l4505 1A60                                                 l3801 1D8E  
                                               l4193 26B6                                                 l4185 26AE  
                                               l4177 2684                                                 l4169 2606  
                                               l3713 2A7E                                                 l3705 2A40  
                                               l3721 2D00                                                 l4419 1424  
                                               l4371 122A                                                 l4363 11D6  
                                               l4355 1190                                                 l4347 115E  
                                               l4339 111A                                                 l4451 2172  
                                               l4443 2150                                                 l4435 212C  
                                               l4427 20D8                                                 l4507 1A84  
                                               l3811 1DAC                                                 l3803 1D90  
                                               l4195 26B8                                                 l4187 26B0  
                                               l4179 2690                                                 l3715 2A80  
                                               l3723 2D08                                                 l4381 12C0  
                                               l4373 1254                                                 l4365 11E6  
                                               l4357 11A0                                                 l4349 116A  
                                               l4461 219C                                                 l4453 217C  
                                               l4437 212E                                                 l4429 20EE  
                                               l4509 1A94                                                 l3821 1DD4  
                                               l3813 1DB8                                                 l3805 1D9C  
                                               l4189 26B2                                                 l3661 21F4  
                                               l3717 2CDA                                                 l3901 276C  
                                               l5501 28B2                                                 ?_pad 001C  
                                               l4391 1300                                                 l4383 12CE  
                                               l4375 128A                                                 l4367 1202  
                                               l4359 11AC                                                 l4463 21AC  
                                               l4439 213E                                                 l4471 1904  
                                               l3831 1DF2                                                 l3823 1DD6  
                                               l3815 1DBA                                                 l3807 1D9E  
                                               l4199 2D96                                                 l3663 2250  
                                               l3655 21DE                                                 l3719 2CEC  
                                               l3903 2782                                                 l3911 27C4  
                                               l5511 28DE                                                 l5503 28B8  
                                               l4393 132E                                                 l4385 12E0  
                                               l4377 1298                                                 l4369 120E  
                                               l4297 1016                                                 l4465 21BC  
                                               l4449 2168                                                 l4473 1914  
                                               l3841 1E1A                                                 l3833 1DFE  
                                               l3825 1DE2                                                 l3817 1DC6  
                                               l3809 1DAA                                                 l3665 22AE  
                                               l3657 21DE                                                 l3761 1EAC  
                                               l3905 2798                                                 l5505 28CE  
                                               l5521 29FA                                                 l5513 29CA  
                                               l4387 12EE                                                 l4379 12B6  
                                               l4299 1022                                                 l4467 21CC  
                                               l4459 2190                                                 l4491 19DA  
                                               l4483 1992                                                 l4475 1922  
                                               l3843 1E1C                                                 l3835 1E00  
                                               l3827 1DE4                                                 l3819 1DC8  
                                               l3771 1F24                                                 l3763 1EAC  
                                               l3907 27AE                                                 l5507 28D6  
                                               l5523 2A10                                                 l5515 29DC  
                                               l5531 280E                                                 l5611 2C22  
                                               l4397 1358                                                 l4389 12F2  
                                               l4493 19E6                                                 l4485 199A  
                                               l4477 1968                                                 l3837 1E0C  
                                               l3829 1DF0                                                 l3669 22B2  
                                               l5621 1AD4                                                 l5509 28D8  
                                               l5525 2A18                                                 l5517 29E4  
                                               l5541 2864                                                 l5533 281A  
                                               l5613 2C40                                                 l4399 1364  
                                               l4495 1A22                                                 l4487 19A6  
                                               l4479 197E                                                 l3839 1E0E  
                                               l3847 1E28                                                 l3791 1D6E  
                                               l3783 2AF0                                                 l3767 1EC2  
                                               l5623 1AE0                                                 l5527 2A1E  
                                               l5519 29EC                                                 l5471 23E2  
                                               l5535 282E                                                 l5551 231C  
                                               l5543 22DE                                                 l5607 2BFA  
                                               l4497 1A2E                                                 l4489 19D8  
                                               l3793 1D72                                                 l3785 2AF0  
                                               l3769 1F20                                                 l3777 1F80  
                                               l5641 1C02                                                 l5633 1B88  
                                               l5617 1AB6                                                 l5473 23F4  
                                               l5537 2842                                                 l5529 2800  
                                               l5553 2322                                                 l5561 2370  
                                               l5545 22EE                                                 l5609 2C06  
                                               l5721 173E                                                 l5713 1706  
                                               l4499 1A3C                                                 l3971 296E  
                                               l3795 1D74                                                 l3787 2B02  
                                               l3883 2D1E                                                 l3891 2A92  
                                               l5643 1C0E                                                 l5635 1BB4  
                                               l5627 1B16                                                 l5491 287A  
                                               l5475 23FE                                                 l5483 2C96  
                                               l5539 2846                                                 l5563 2382  
                                               l5555 2348                                                 l5547 230A  
                                               l5571 1C2C                                                 l5651 2C5A  
                                               l5731 17AA                                                 l5723 175A  
                                               l5715 1712                                                 l3973 2980  
                                               l3797 1D80                                                 l3981 2B7A  
                                               l3885 2D1E                                                 l3893 2A92  
                                               l5645 1C14                                                 l5629 1B6E  
                                               l5493 2882                                                 l5477 241C  
                                               l5469 23D0                                                 l5485 2CA2  
                                               l5565 2394                                                 l5557 234E  
                                               l5549 2312                                                 l5581 1C82  
                                               l5573 1C52                                                 l5653 2C62  
                                               l5661 249A                                                 l5741 18AC  
                                               l5733 17BA                                                 l5725 1776  
                                               l5717 171E                                                 l3975 29A2  
                                               l3799 1D82                                                 l3983 2B80  
                                               l3991 2E9A                                                 l3887 2D30  
                                               l3895 2AA4                                                 l5647 1C18  
                                               l5639 1BCE                                                 l5495 2894  
                                               l5479 2452                                                 l5487 2CB4  
                                               l5567 23AE                                                 l5559 2354  
                                               l5591 1D00                                                 l5583 1CA0  
                                               l5575 1C60                                                 l5655 2C6A  
                                               l5671 24EA                                                 l5663 24A6  
                                               l5743 18C2                                                 l5735 180C  
                                               l5727 1786                                                 l5719 172E  
                                               l3969 295C                                                 l3985 2B9A  
                                               l3977 2B4E                                                 l3993 2E9C  
                                               l5497 289C                                                 l5489 2CB8  
                                               l5585 1CE8                                                 l5593 1D2E  
                                               l5577 1C6E                                                 l5657 2C86  
                                               l5649 2C4A                                                 l5673 250A  
                                               l5665 24AC                                                 l5745 18DE  
                                               l5737 1828                                                 l5729 179A  
                                               l3979 2B60                                                 l3987 2E88  
                                               l5851 1FAC                                                 l3899 2766  
                                               l5499 28A4                                                 l5579 1C72  
                                               l5675 252C                                                 l5667 24C8  
                                               l5739 1896                                                 l3997 2DF4  
                                               l3989 2E88                                                 l5853 22C6  
                                               l5597 1D40                                                 l5677 2530  
                                               l5669 24D8                                                 l5855 1E3C  
                                               l3999 2DF4                                                 l5847 1D20  
                                               l5849 27D8                                                 STR_1 1011  
                                               STR_2 1011                                                 STR_4 1001  
                                               STR_5 1009                                                 u3000 2AA4  
                                               u3001 2AA0                                                 u3100 29BC  
                                               u3101 29B8                                                 _LATA 0F89  
                                               u3110 2B60                                                 _LATB 0F8A  
                                               u3111 2B5C                                                 _LATC 0F8B  
                                               u3120 2B7A                                                 _LATD 0F8C  
                                               u3121 2B76                                                 _LATE 0F8D  
                                               u3130 2B9A                                                 u3210 26D0  
                                               u3131 2B96                                                 u3211 26CC  
                                               u3140 2E9A                                                 u3220 271E  
                                               u3141 2E96                                                 u3070 296E  
                                               u3150 2E06                                                 u3230 2754  
                                               u3071 296A                                                 u3151 2E02  
                                               u3080 2980                                                 u3240 2764  
                                               u3081 297C                                                 u3241 2760  
                                               u3090 299A                                                 u5010 23E2  
                                               u3091 2996                                                 u3227 2714  
                                               u5011 23DE                                                 u3500 1052  
                                               u3180 1FD6                                                 u5100 29FA  
                                               u5020 23F4                                                 u3501 104E  
                                               u3181 1FD2                                                 u3237 274A  
                                               u5101 29F6                                                 u5021 23F0  
                                               u3510 1092                                                 u3190 2024  
                                               u5110 2A10                                                 u5030 241C  
                                               u3511 108E                                                 u3191 2020  
                                               u5111 2A0C                                                 u5031 2418  
                                               u3600 132E                                                 u3520 10A4  
                                               u5040 2452                                                 u5120 280E  
                                               u5200 2C40                                                 u3601 132A  
                                               u3521 10A0                                                 u5041 244E  
                                               u5121 280A                                                 u5201 2C3C  
                                               u3610 1344                                                 u3530 10B4  
                                               u3370 2618                                                 u2810 2A40  
                                               u5210 1AD0                                                 u5050 2CD8  
                                               u5130 2864                                                 u3611 1340  
                                               u3531 10B0                                                 u3371 2614  
                                               u2811 2A3C                                                 u5211 1ACC  
                                               u5051 2CD4                                                 u5131 2860  
                                               u3620 1358                                                 u3540 10EA  
                                               u3700 2164                                                 u3380 2DA8  
                                               u2740 21F0                                                 u2900 1F98  
                                               u5220 1B12                                                 u5060 2894  
                                               u5140 22EE                                                 u3621 1354  
                                               u3541 10E6                                                 u3701 2160  
                                               u3381 2DA4                                                 u2741 21EC  
                                               u2901 1F92                                                 u5221 1B0E  
                                               u5061 2890                                                 u5141 22EA  
                                               u3630 1372                                                 u3550 10FA  
                                               u3710 218C                                                 u2830 2A90  
                                               u2910 1F9A                                                 u5230 1B84  
                                               u5070 28B2                                                 u5150 2382  
                                               u3631 136E                                                 u3551 10F6  
                                               u3711 2188                                                 u2831 2A8C  
                                               u5231 1B80                                                 u5071 28AE  
                                               u5151 237E                                                 u3640 13BA  
                                               u3560 1274                                                 u3480 1030  
                                               u3720 21AC                                                 u3800 1A4C  
                                               u2824 2A6E                                                 u2840 2CEC  
                                               u2920 2B02                                                 u5240 1BCA  
                                               u5080 28CE                                                 u5160 2394  
                                               u3641 13B6                                                 u3481 102C  
                                               u3721 21A8                                                 u3801 1A48  
                                               u2825 2A6A                                                 u2841 2CE8  
                                               u2921 2AFE                                                 u5241 1BC6  
                                               u5081 28CA                                                 u5161 2390  
                                               u3650 13E8                                                 u3570 12CE  
                                               u3490 1042                                                 u3730 21BC  
                                               u3810 1A5A                                                 u2754 2212  
                                               u5250 1C2A                                                 u5090 29DC  
                                               u5170 23AE                                                 u3651 13E4  
                                               u3571 12CA                                                 u3491 103E  
                                               u3731 21B8                                                 u3811 1A56  
                                               u2755 220E                                                 u5251 1C26  
                                               u5091 29D8                                                 u5171 23AA  
                                               u3660 1422                                                 u3580 12EE  
                                               u3820 1A94                                                 u3740 1914  
                                               u2764 226E                                                 u5180 1C52  
                                               u5340 1786                                                 u3661 141E  
                                               u3581 12EA                                                 u3565 126A  
                                               u3821 1A90                                                 u3741 1910  
                                               u2765 226A                                                 u5181 1C4E  
                                               u5261 24A0                                                 u5341 1782  
                                               u3590 1300                                                 u3670 20EE  
                                               u3830 1AA2                                                 u3750 1922  
                                               u2870 1EBE                                                 u5190 1CA0  
                                               u5270 24EA                                                 u5350 17AA  
                                               u3591 12FC                                                 u3671 20EA  
                                               u3831 1A9E                                                 u3751 191E  
                                               u2871 1EBA                                                 u5191 1C9C  
                                               u5271 24E6                                                 u5351 17A6  
                                               u3680 2122                                                 u3760 197E  
                                               u5280 254E                                                 u3761 197A  
                                               u5281 254A                                                 u3690 2150  
                                               u3770 19D4                                                 u3691 214C  
                                               u3771 19D0                                                 u3780 1A1E  
                                               u2884 1EE0                                                 u3685 2118  
                                               u3781 1A1A                                                 u2885 1EDC  
                                               u3790 1A3C                                                 u2894 1F42  
                                               u2990 2D30                                                 u3791 1A38  
                                               u2895 1F3E                                                 u2991 2D2C  
                                               u5367 202A                                                 u5377 2048  
                                               u5387 2062                                                 u5397 2D02  
                                               _dbuf 0100                                                 _main 1706  
                                               _prec 0097                                                 pad@i 0023  
                                               pad@p 0020                                                 fsr0h 0FEA  
                                               fsr1h 0FE2                                                 indf0 0FEF  
                                               fsr2h 0FDA                                                 fsr0l 0FE9  
                                               indf1 0FE7                                                 indf2 0FDF  
                                               fsr1l 0FE1                                                 pad@w 0025  
                                               fsr2l 0FD9                                                 btemp 0073  
                                               _utoa 22DE                                         _adc_Vref_cfg 295C  
                                               prodh 0FF4                                                 prodl 0FF3  
                             chr_lcd_4_send_char@lcd 001D                                                 start 000E  
             __end_of_adc_start_conversion_interrupt 2DC6                       _adc_start_conversion_interrupt 2D96  
                             adc_reading_value@value 0003                                   _adc_select_channel 2DF4  
                                       ___param_bank 0000                                 _gpio_pin_write_level 21DE  
                                              ??_pad 0022                                     __end_of_INT0_ISR 2EAE  
                                   __end_of_INT1_ISR 2EAA                                     __end_of_INT2_ISR 2EA6  
                                ?_adc_select_channel 000F                                        ___fltol@sign1 003B  
                                              ?_main 0001                                                _EEADR 0FA9  
                  adc_start_conversion_interrupt@adc 0013                       __end_of_gpio_pin_direction_int 1FC4  
                                    __end_of___flmul 1440                                      __end_of___fltol 21DE  
                                              ?_utoa 0027                                         led_off@F3064 0068  
                                    __end_of_adc_int 26BA                                      __end_of___lwdiv 28EE  
                                    __end_of___lwmod 2A2E                                                i2l360 2604  
                                              i2l428 2DF2                                                i2l733 2EAC  
                                              i2l741 2EA4                                                i2l750 2E86  
                                              i2l737 2EA8                                                i2l818 2BF8  
                                              i2l598 16F2                                                i2l759 2E6C  
                                              i2l768 2E52                                                i2l777 2E38  
                                       vfpfcnvrt@fmt 0033                                                _PORTA 0F80  
                                              _PORTB 0F81                                                _PORTC 0F82  
                                              _PORTD 0F83                                                _PORTE 0F84  
                                              _TRISA 0F92                                                _TRISB 0F93  
                                              _TRISC 0F94                                                _TRISD 0F95  
                                              _TRISE 0F96                                         led_int@F3054 006A  
                       convert_short_to_str@Temp_str 0120  adc_start_conversion_interrupt@analog_channel_select 0015  
                                              _adc_1 00EB                                                _conv1 00B7  
                                              _conv2 00B1                                                _flags 0061  
                                              _fputc 23D0                                                _fputs 2C96  
                                              pad@fp 001C                                                _width 0095  
                                              _putch 2EAE                                                pclath 0FFA  
                                              pclatu 0FFB                                                tablat 0FF5  
                               ??_adc_select_channel 0012                              chr_lcd_4_send_char@data 001F  
                                              ttemp5 0074                                                ttemp6 0077  
                                              ttemp7 007B                                                utoa@d 0029  
                                              utoa@i 002F                                                utoa@p 002D  
                                              utoa@w 002B                                                status 0FD8  
                                              wtemp8 0074                                      __end_of_sprintf 2C96  
                           ??_InterruptManagmentHigh 0008                                         RB4_ISR@flage 0001  
                                   chr_lcd_4_int@lcd 0020                                      __initialization 28EE  
                                      ?_gpio_pin_int 0015                                         __end_of_main 1902  
                              ?_gpio_pin_write_level 000C                                         __end_of_utoa 23D0  
                                 lcd_4_bit_pos@colmn 0023                                            ??_ADC_ISR 0008  
                                       RB5_ISR@flage 0001                                               ??_main 005D  
                                             ??_utoa 002B                                        __activetblptr 0003  
                                          ??_RB4_ISR 0001                                            ??_RB5_ISR 0001  
                                          ??_RB6_ISR 0001                                            ??_RB7_ISR 0001  
                                       RB6_ISR@flage 0001                         __end_of_adc_reading_mode_cfg 2BA4  
                                             ?_fputc 000C                                               ?_fputs 0015  
                                             _ADRESH 0FC4                                               _EEADRH 0FAA  
                                             _ADRESL 0FC3                                               _EEDATA 0FA8  
                                             _EECON2 0FA7                                               ?_putch 0001  
                                             i2l4011 2BB4                                               i2l4013 2BC8  
                                             i2l4015 2BD0                                               i2l4017 2BE0  
                                             i2l4009 2BA4                                               i2l4019 2BF4  
                                             i2l4211 2DC8                                               i2l4213 2DDA  
                                             i2l4215 2EAA                                               i2l4223 2EA2  
                                             i2l4209 2DC6                                               i2l4233 2E86  
                                             i2l5201 1622                                               i2l5121 1460  
                                             i2l4219 2EA6                                               i2l4227 2E70  
                                             i2l4243 2E6C                                               i2l5211 1658  
                                             i2l5203 1630                                               i2l5131 1492  
                                             i2l5123 146E                                               i2l4229 2E72  
                                             i2l4237 2E56                                               i2l4253 2E52  
                                             i2l5213 1666                                               i2l5221 168E  
                                             i2l5205 1640                                               i2l5141 14CE  
                                             i2l5133 14A0                                               i2l5125 1472  
                                             i2l4239 2E58                                               i2l4247 2E3C  
                                             i2l4263 2E38                                               i2l5231 16CC  
                                             i2l5223 169C                                               i2l5215 1674  
                                             i2l5207 1644                                               i2l5151 1504  
                                             i2l5143 14DC                                               i2l5135 14AE  
                                             i2l5127 1480                                               i2l5119 1452  
                                             i2l4249 2E3E                                               i2l4257 2E22  
                                             i2l5225 16AA                                               i2l5233 16D2  
                                             i2l5217 1684                                               i2l5209 164A  
                                             i2l5153 1512                                               i2l5161 153A  
                                             i2l5145 14EC                                               i2l5137 14B2  
                                             i2l5129 148E                                               i2l4259 2E24  
                                             i2l5235 16E0                                               i2l5227 16B8  
                                             i2l5219 1688                                               i2l5171 1578  
                                             i2l5163 1548                                               i2l5155 1520  
                                             i2l5147 14F0                                               i2l5139 14C0  
                                             i2l5237 16EE                                               i2l5229 16C8  
                                             i2l5181 15B8                                               i2l5165 1556  
                                             i2l5173 157E                                               i2l5157 1530  
                                             i2l5149 14F6                                               i2l5191 15EC  
                                             i2l5183 15BC                                               i2l5175 158C  
                                             i2l5167 1564                                               i2l5159 1534  
                                             i2l5193 15FC                                               i2l5177 159A  
                                             i2l5185 15C2                                               i2l5169 1574  
                                             i2l5195 1600                                               i2l5187 15D0  
                                             i2l5179 15A8                                               i2l3861 258E  
                                             i2l3853 2550                                               i2l5189 15DE  
                                             i2l5197 1606                                               i2l3863 25B6  
                                             i2l3855 2550                                               i2l5199 1614  
                                             i2l3865 25D0                                               i2l3857 2562  
                                             i2l3859 2574                                               i2l3869 2604  
                                       RB7_ISR@flage 0001                                     __end_of___xxtofl 1AB6  
                              __end_of_lcd_4_bit_pos 2800                                 _convert_short_to_str 249A  
                                     ??_gpio_pin_int 0017                                adc_select_channel@adc 000F  
                                       vfprintf@cfmt 0045                                            ??___flmul 0022  
                                          ??___fltol 0037                                            ??_adc_int 0011  
                                          ??___lwdiv 0010                                            ??___lwmod 0010  
                                             _memset 1AB6                                               clear_0 2934  
                                             clear_1 2940                                               clear_2 294C  
                              __end_of_chr_lcd_4_int 20D8                                               isa$std 0001  
                                             pad@buf 001E                                               fputc@c 000C  
                                             fputs@c 0019                                               fputs@i 001A  
                                       __pdataCOMRAM 006F                                               fputs@s 0015  
                                       __mediumconst 0000                                               tblptrh 0FF7  
                                             tblptrl 0FF6                                               tblptru 0FF8  
                  __end_of_chr_lcd_4_send_string_pos 2766                                               putch@c 0001  
                                   __end_of_vfprintf 2C4A                                               utoa@fp 0027  
                            ??_lcd_send_4_bit_enable 0017                                            ??_sprintf 004F  
                        _RB5_HIGH_interrupt_Handeler 00A3                                         ___xxtofl@arg 0016  
                                       ___xxtofl@exp 0015                                         ___xxtofl@val 000C  
                                         __accesstop 0080                              __end_of__initialization 2952  
                                          ?_INT0_ISR 0001                                            ?_INT1_ISR 0001  
                                          ?_INT2_ISR 0001                                        ___rparam_used 0001  
                                         ___fltol@f1 0033                                     ??_lcd_send_4_bit 0018  
                        lcd_send_4_bit@_data_command 0017                                ?_convert_short_to_str 00F8  
                               adc_reading_value@adc 0001                               ??_gpio_pin_write_level 000F  
                                     __pcstackCOMRAM 0001                                         __pidataBANK0 2D5A  
                        convert_short_to_str@counter 0126                                        __end_of_fputc 249A  
                                      __end_of_fputs 2CDA                                        __end_of_putch 2EB0  
                                     chr_lcd_4_int@i 0024                                    _adc_reading_value 2550  
                                 ?_adc_reading_value 0001                                              ??_fputc 0010  
                                            ??_fputs 0019                                              ??_putch 000C  
                                         __pbssBANK0 0080                                           __pbssBANK1 0100  
                                ??_adc_reading_value 0005                           _RB5_LOW_interrupt_Handeler 00A5  
                                         ??_INT0_ISR 0001                                           ??_INT1_ISR 0001  
                                         ??_INT2_ISR 0001                                     fp__ADC_interrupt 0000  
                                         adc_int@adc 000F                                 _adc_reading_mode_cfg 2B4E  
                        __end_of_chr_lcd_4_send_char 2AF0                                      led_toggel@F3069 0067  
                                            _ADC_ISR 2DC6                                              ?_memset 000C  
                                      ??_adc_pin_cfg 000C                            __end_of_adc_reading_value 2606  
                                            _RB4_ISR 2E6E                              _Int1_interrupt_Handeler 00AD  
                                            _RB5_ISR 2E54                                              _RB6_ISR 2E3A  
                                            _RB7_ISR 2E20                                    __end_of_adc_start 2E9E  
                                          ?___xxtofl 000C                               _InterruptManagmentHigh 0008  
                               __end_of_gpio_pin_int 2D5A                                         adc_start@adc 000C  
                             ??_convert_short_to_str 005D                                            _ADC_Start 0062  
                                            __Hparam 0000                                              __Lparam 0000  
                              ?_adc_reading_mode_cfg 000C                                              ___flmul 1016  
                                            ___fltol 20D8                                              _adc_int 2606  
                                            ___lwdiv 287A                                              ___lwmod 29CA  
                                          ?_vfprintf 003F                                         __psmallconst 1000  
                                            __pcinit 28EE                                              __ramtop 1000  
                                            _flage_4 0072                                              _flage_5 0071  
                                            _flage_6 0070                                              _flage_7 006F  
                                            __ptext0 1706                                              __ptext1 249A  
                                      relay_on@F3058 0065                                              __ptext2 2C4A  
                                            __ptext3 2BFA                                              __ptext4 1C2C  
                                            __ptext5 22DE                                              __ptext6 2800  
                                            __ptext7 2C96                                              __ptext8 23D0  
                                            __ptext9 2EAE                                        _ADC_interrupt 2BA4  
                                  lcd_send_4_bit@lcd 0015                                           ??___xxtofl 0010  
                                __end_of_adc_pin_cfg 1EAC                              convert_int_to_str@F3236 0080  
                                            _sprintf 2C4A                                       __pintcode_body 1440  
                               end_of_initialization 2952                     adc_pin_cfg@analog_channel_select 000E  
                                            fputc@fp 000E                                              memset@c 000E  
                                            memset@k 0014                                              memset@n 0010  
                                            memset@s 0016                                              int_func 1440  
                                            fputs@fp 0017                                    __end_of_vfpfcnvrt 1D6C  
                                            postdec1 0FE5                                              postdec2 0FDD  
                                            postinc0 0FEE                                              postinc1 0FE6  
                                            postinc2 0FDE                                     vfpfcnvrt@convarg 0039  
                                         ??_vfprintf 0045                                       ?_ADC_interrupt 0001  
                                          _PORTBbits 0F81                                        ___xxtofl@sign 0014  
                          convert_short_to_str@F3230 008B              adc_select_channel@analog_channel_select 0011  
                      __end_of_lcd_send_4_bit_enable 2D1E                                          ___flmul@grs 0027  
                                  relay_toggel@F3068 0063                               ??_adc_reading_mode_cfg 000E  
                              chr_lcd_4_send_cmd@cmd 001F                                chr_lcd_4_send_cmd@lcd 001D  
                                       _KEYPAD_SHAPE 00BD                             ??_gpio_pin_direction_int 000E  
                                        vfpfcnvrt@ap 0035                                          vfpfcnvrt@cp 003D  
                                        vfpfcnvrt@fp 0031                                        __pidataCOMRAM 2E9E  
                                        _adc_pin_cfg 1D6C                                       __end_of_memset 1C2C  
                                start_initialization 28EE                                          __end_of_pad 287A  
                         ?_chr_lcd_4_send_string_pos 0026                          _RB6_HIGH_interrupt_Handeler 009F  
                                      ?_adc_Vref_cfg 000C                                          vfprintf@fmt 0041  
                                       _gpio_pin_int 2D1E                                      lcd_send_4_bit@i 001C  
                                    ??_ADC_interrupt 0008                                            _Port_Regs 00E1  
                                        __pdataBANK0 00BD                                             ?_ADC_ISR 0001  
                                           ??_memset 0012                                           memset@dest 000C  
                            ?_InterruptManagmentHigh 0001                                            _Tris_Regs 00CD  
                                           ?_RB4_ISR 0001                                             ?_RB5_ISR 0001  
                                           ?_RB6_ISR 0001                                             ?_RB7_ISR 0001  
                                          ___flmul@a 001E                                            ___flmul@b 001A  
                                        __pbssCOMRAM 005D                                        __pcstackBANK0 00F8  
                                      __pcstackBANK1 0120                                            _adc_start 2E88  
                         convert_short_to_str@number 00F8                           _RB4_LOW_interrupt_Handeler 00A9  
                                     ??_adc_Vref_cfg 000E                           _RB7_LOW_interrupt_Handeler 009D  
                          gpio_pin_write_level@level 000E                         chr_lcd_4_send_string_pos@col 0029  
                       chr_lcd_4_send_string_pos@lcd 0026                                        _lcd_4_bit_pos 2766  
                                   ___lwdiv@dividend 000C                         chr_lcd_4_send_string_pos@row 0028  
                         chr_lcd_4_send_string_pos@i 002E                           __end_of_chr_lcd_4_send_cmd 2B4E  
                                          __pintcode 0008                                             ?___flmul 001A  
                                           ?___fltol 0033                                             ?_adc_int 000F  
                                           ?___lwdiv 000C                                             ?___lwmod 000C  
                     __end_of_InterruptManagmentHigh 1706                                        _chr_lcd_4_int 1FC4  
                                        __smallconst 1000                              _Int0_interrupt_Handeler 00AF  
                                   ___lwdiv@quotient 0011                                             ?_sprintf 0047  
                                         ?_adc_start 000C                                            _reading_1 006D  
                                          _reading_2 006B                                             _INT0_ISR 2EAA  
                                           _INT1_ISR 2EA6                                             _INT2_ISR 2EA2  
                                           _PIE1bits 0F9D                                       ?_lcd_4_bit_pos 0020  
                                           i2u316_40 2BB4                                             i2u316_41 2BB0  
                                           i2u317_40 2BE0                                             i2u340_48 2DE0  
                                           i2u341_40 2E82                                             i2u317_41 2BDC  
                                           i2u340_49 2DF2                                             i2u341_41 2E7E  
                                           i2u342_40 2E68                                             i2u342_41 2E64  
                                           i2u343_40 2E4E                                             i2u343_41 2E4A  
                                           i2u344_40 2E34                                             i2u344_41 2E30  
                                           _PIR1bits 0F9E                                             i2u339_40 2DDA  
                                           i2u339_41 2DD6                                             i2u460_40 14AE  
                                           i2u460_41 14AA                                             i2u293_40 2562  
                                           i2u461_40 14C0                                             i2u293_41 255E  
                                           i2u461_41 14BC                                             i2u294_40 2574  
                                           i2u470_40 1556                                             i2u462_40 14CE  
                                           i2u294_41 2570                                             i2u470_41 1552  
                                           i2u462_41 14CA                                             i2u295_40 258E  
                                           i2u471_40 1564                                             i2u463_40 14DC  
                                           i2u455_40 1460                                             i2u295_41 258A  
                                           i2u471_41 1560                                             i2u463_41 14D8  
                                           i2u455_41 145C                                             i2u296_40 25D0  
                                           i2u480_40 15FC                                             i2u472_40 1574  
                                           i2u464_40 14EC                                             i2u456_40 146E  
                                           i2u296_41 25CC                                             i2u480_41 15F8  
                                           i2u472_41 1570                                             i2u464_41 14E8  
                                           i2u456_41 146A                                             i2u481_40 1614  
                                           i2u473_40 158C                                             i2u465_40 1504  
                                           i2u457_40 1480                                             i2u481_41 1610  
                                           i2u473_41 1588                                             i2u465_41 1500  
                                           i2u457_41 147C                                             i2u297_45 25E8  
                                           i2u490_40 16AA                                             i2u482_40 1622  
                                           i2u474_40 159A                                             i2u466_40 1512  
                                           i2u458_40 148E                                             i2u490_41 16A6  
                                           i2u482_41 161E                                             i2u474_41 1596  
                                           i2u466_41 150E                                             i2u458_41 148A  
                                           i2u491_40 16B8                                             i2u483_40 1630  
                                           i2u475_40 15A8                                             i2u467_40 1520  
                                           i2u459_40 14A0                                             i2u491_41 16B4  
                                           i2u483_41 162C                                             i2u475_41 15A4  
                                           i2u467_41 151C                                             i2u459_41 149C  
                                           i2u492_40 16C8                                             i2u484_40 1640  
                                           i2u476_40 15B8                                             i2u468_40 1530  
                                           i2u492_41 16C4                                             i2u484_41 163C  
                                           i2u476_41 15B4                                             i2u468_41 152C  
                                           i2u493_40 16E0                                             i2u485_40 1658  
                                           i2u477_40 15D0                                             i2u469_40 1548  
                                           i2u493_41 16DC                                             i2u485_41 1654  
                                           i2u477_41 15CC                                             i2u469_41 1544  
                                           i2u494_40 16EE                                             i2u486_40 1666  
                                           i2u478_40 15DE                                             i2u494_41 16EA  
                                           i2u486_41 1662                                             i2u478_41 15DA  
                                           i2u487_40 1674                                             i2u479_40 15EC  
                                           i2u487_41 1670                                             i2u479_41 15E8  
                                           i2u488_40 1684                                             i2u488_41 1680  
                                           i2u489_40 169C                                             i2u489_41 1698  
                            convert_short_to_str@str 00FA                                            _vfpfcnvrt 1C2C  
                                     ?_chr_lcd_4_int 0020                                           _ADCON0bits 0FC2  
                                         _ADCON1bits 0FC1                                           _ADCON2bits 0FC0  
                                           _Degree_1 005D                                             _Degree_2 0099  
                   ??_adc_start_conversion_interrupt 0016                      ?_adc_start_conversion_interrupt 0013  
                             _gpio_pin_direction_int 1EAC                           __end_of_adc_select_channel 2E20  
                                        _INTCON2bits 0FF1                                          _INTCON3bits 0FF0  
                                          copy_data0 2902                                            copy_data1 2922  
                                           _Lat_Regs 00D7                                     lcd_4_bit_pos@lcd 0020  
                                   lcd_4_bit_pos@row 0022                                           _EECON1bits 0FA6  
                                           __Hrparam 0000                                           vfprintf@ap 0043  
                                           __Lrparam 0000                                           vfprintf@fp 003F  
                                         ?_vfpfcnvrt 0031                             lcd_send_4_bit_enable@lcd 0015  
                                       ?_adc_pin_cfg 0001                                 __end_of_adc_Vref_cfg 29CA  
                                         sprintf@fmt 0049                                             ___xxtofl 1902  
                        gpio_pin_write_level@pin_cfg 000C                                      ___lwdiv@divisor 000E  
                                    ___lwdiv@counter 0010                                             __ptext10 29CA  
                                           __ptext11 287A                                             __ptext20 2CDA  
                                           __ptext12 1AB6                                             __ptext21 2A2E  
                                           __ptext13 26BA                                             __ptext30 1902  
                                           __ptext22 21DE                                             __ptext14 2766  
                                           __ptext31 20D8                                             __ptext23 2D96  
                                           __ptext15 2A92                                             __ptext40 2EAA  
                                           __ptext32 1016                                             __ptext24 2E88  
                                           __ptext16 1FC4                                             __ptext41 2DC6  
                                           __ptext25 2DF4                                             __ptext17 2D1E  
                                           __ptext42 2BA4                                             __ptext34 2E20  
                                           __ptext26 2606                                             __ptext18 1EAC  
                                           __ptext43 2550                                             __ptext35 2E3A  
                                           __ptext27 2B4E                                             __ptext19 2AF0  
                                           __ptext44 0000                                             __ptext36 2E54  
                                           __ptext28 1D6C                                             __ptext37 2E6E  
                                           __ptext29 295C                                             __ptext38 2EA2  
                                           __ptext39 2EA6                                          ??_adc_start 000E  
                        ??_chr_lcd_4_send_string_pos 002C                                _ADC_Interrupt_handler 005F  
                                    ??_lcd_4_bit_pos 0024                                _lcd_send_4_bit_enable 2CDA  
                                     relay_off@F3063 0064                                       relay_int@F3053 0066  
                                           isa$xinst 0000                                             int$flags 0073  
                                    ??_chr_lcd_4_int 0022                                             _vfprintf 2BFA  
                                     _lcd_send_4_bit 2A2E                                           _INTCONbits 0FF2  
                       __end_of_gpio_pin_write_level 22DE                          _RB4_HIGH_interrupt_Handeler 00A7  
                                           intlevel2 0000                                            sprintf@ap 004F  
                      chr_lcd_4_send_string_pos@data 002A                                     ___lwmod@dividend 000C  
                                _chr_lcd_4_send_char 2A92                          _RB7_HIGH_interrupt_Handeler 009B  
                            adc_reading_mode_cfg@adc 000C                            _chr_lcd_4_send_string_pos 26BA  
                             __end_of_lcd_send_4_bit 2A92                        gpio_pin_direction_int@pin_cfg 000C  
                                        ??_vfpfcnvrt 0037                                __end_of_ADC_interrupt 2BFA  
                               ?_chr_lcd_4_send_char 001D                                             sprintf@f 0051  
                                           sprintf@s 0047                                      ___lwmod@divisor 000E  
                                 _chr_lcd_4_send_cmd 2AF0                                      ___lwmod@counter 0010  
                           convert_byte_to_str@F3224 0091                                  ?_chr_lcd_4_send_cmd 001D  
                             ?_lcd_send_4_bit_enable 0015                           _RB6_LOW_interrupt_Handeler 00A1  
