

Microchip MPLAB XC8 Assembler V2.41 build 20230208172133 
                                                                                               Sat Aug 26 03:08:12 2023

Microchip MPLAB XC8 C Compiler v2.41 (Free license) build 20230208172133 Og1 
     1                           	processor	18F4620
     2                           	fnconf	rparam,??,?,0
     3                           	pagewidth 120
     4                           	opt	flic
     5                           	psect	idataCOMRAM,global,class=CODE,delta=1,noexec
     6                           	psect	idataBANK0,global,class=CODE,delta=1,noexec
     7                           	psect	idataBANK1,global,class=CODE,delta=1,noexec
     8                           	psect	smallconst,global,reloc=2,class=SMALLCONST,delta=1,noexec
     9                           	psect	cinit,global,reloc=2,class=CODE,delta=1
    10                           	psect	bssCOMRAM,global,class=COMRAM,space=1,delta=1,lowdata,noexec
    11                           	psect	dataCOMRAM,global,class=COMRAM,space=1,delta=1,lowdata,noexec
    12                           	psect	bssBANK0,global,class=BANK0,space=1,delta=1,lowdata,noexec
    13                           	psect	dataBANK0,global,class=BANK0,space=1,delta=1,lowdata,noexec
    14                           	psect	dataBANK1,global,class=BANK1,space=1,delta=1,lowdata,noexec
    15                           	psect	cstackBANK0,global,class=BANK0,space=1,delta=1,lowdata,noexec
    16                           	psect	cstackCOMRAM,global,class=COMRAM,space=1,delta=1,lowdata,noexec
    17                           	psect	text0,global,reloc=2,class=CODE,delta=1
    18                           	psect	text1,global,reloc=2,class=CODE,delta=1
    19                           	psect	text2,global,reloc=2,class=CODE,delta=1
    20                           	psect	text3,global,reloc=2,class=CODE,delta=1
    21                           	psect	text4,global,reloc=2,class=CODE,delta=1
    22                           	psect	text5,global,reloc=2,class=CODE,delta=1
    23                           	psect	text6,global,reloc=2,class=CODE,delta=1
    24                           	psect	text7,global,reloc=2,class=CODE,delta=1
    25                           	psect	text8,global,reloc=2,class=CODE,delta=1,group=1
    26                           	psect	text9,global,reloc=2,class=CODE,delta=1,group=1
    27                           	psect	text10,global,reloc=2,class=CODE,delta=1,group=1
    28                           	psect	text11,global,reloc=2,class=CODE,delta=1,group=1
    29                           	psect	text12,global,reloc=2,class=CODE,delta=1,group=1
    30                           	psect	intcode,global,reloc=2,class=CODE,delta=1
    31                           	psect	intcode_body,global,reloc=2,class=CODE,delta=1
    32                           	psect	text14,global,reloc=2,class=CODE,delta=1
    33                           	psect	text15,global,reloc=2,class=CODE,delta=1
    34                           	psect	text16,global,reloc=2,class=CODE,delta=1
    35                           	psect	text17,global,reloc=2,class=CODE,delta=1
    36                           	psect	text18,global,reloc=2,class=CODE,delta=1
    37                           	psect	text19,global,reloc=2,class=CODE,delta=1
    38                           	psect	text20,global,reloc=2,class=CODE,delta=1
    39                           	psect	text21,global,reloc=2,class=CODE,delta=1
    40                           	psect	text22,global,reloc=2,class=CODE,delta=1
    41                           	psect	text23,global,reloc=2,class=CODE,delta=1
    42                           	psect	text24,global,reloc=2,class=CODE,delta=1
    43                           	psect	text25,global,reloc=2,class=CODE,delta=1
    44                           	psect	text26,global,reloc=2,class=CODE,delta=1
    45                           	psect	text27,global,reloc=2,class=CODE,delta=1
    46                           	psect	text28,global,reloc=2,class=CODE,delta=1
    47                           	psect	text29,global,reloc=2,class=CODE,delta=1
    48                           	psect	text30,global,reloc=2,class=CODE,delta=1
    49                           	psect	text31,global,reloc=2,class=CODE,delta=1
    50                           	psect	text32,global,reloc=2,class=CODE,delta=1
    51                           	psect	intsave_regs,global,class=BIGRAM,space=1,delta=1,noexec
    52                           	psect	text33,global,reloc=2,class=CODE,delta=1
    53                           	psect	rparam,global,class=COMRAM,space=1,delta=1,noexec
    54                           	psect	temp,global,ovrld,common,class=COMRAM,space=1,delta=1
    55                           	psect	idloc,global,abs,ovrld,class=IDLOC,space=5,delta=1,noexec
    56                           	psect	config,global,abs,ovrld,class=CONFIG,space=4,delta=1,noexec
    57   000000                     
    58                           ; Version 2.40
    59                           ; Generated 17/11/2021 GMT
    60                           ; 
    61                           ; Copyright © 2021, Microchip Technology Inc. and its subsidiaries ("Microchip")
    62                           ; All rights reserved.
    63                           ; 
    64                           ; This software is developed by Microchip Technology Inc. and its subsidiaries ("Microch
      +                          ip").
    65                           ; 
    66                           ; Redistribution and use in source and binary forms, with or without modification, are
    67                           ; permitted provided that the following conditions are met:
    68                           ; 
    69                           ;     1. Redistributions of source code must retain the above copyright notice, this lis
      +                          t of
    70                           ;        conditions and the following disclaimer.
    71                           ; 
    72                           ;     2. Redistributions in binary form must reproduce the above copyright notice, this 
      +                          list
    73                           ;        of conditions and the following disclaimer in the documentation and/or other
    74                           ;        materials provided with the distribution. Publication is not required when
    75                           ;        this file is used in an embedded application.
    76                           ; 
    77                           ;     3. Microchip's name may not be used to endorse or promote products derived from th
      +                          is
    78                           ;        software without specific prior written permission.
    79                           ; 
    80                           ; THIS SOFTWARE IS PROVIDED BY MICROCHIP "AS IS" AND ANY EXPRESS OR IMPLIED WARRANTIES,
    81                           ; INCLUDING, BUT NOT LIMITED TO, THE IMPLIED WARRANTIES OF MERCHANTABILITY AND FITNESS F
      +                          OR
    82                           ; PURPOSE ARE DISCLAIMED.  IN NO EVENT SHALL MICROCHIP BE LIABLE FOR ANY DIRECT, INDIREC
      +                          T,
    83                           ; INCIDENTAL, SPECIAL, EXEMPLARY, OR CONSEQUENTIAL DAMAGES (INCLUDING BUT NOT LIMITED TO
    84                           ; PROCUREMENT OF SUBSTITUTE GOODS OR SERVICES; LOSS OF USE, DATA OR PROFITS; OR BUSINESS
    85                           ; INTERRUPTION) HOWSOEVER CAUSED AND ON ANY THEORY OF LIABILITY, WHETHER IN CONTRACT, ST
      +                          RICT
    86                           ; LIABILITY, OR TORT (INCLUDING NEGLIGENCE OR OTHERWISE) ARISING IN ANY WAY OUT OF THE U
      +                          SE OF
    87                           ; THIS SOFTWARE, EVEN IF ADVISED OF THE POSSIBILITY OF SUCH DAMAGE.
    88                           ; 
    89                           ; 
    90                           ; Code-generator required, PIC18F4620 Definitions
    91                           ; 
    92                           ; SFR Addresses
    93   000000                     
    94                           	psect	idataCOMRAM
    95   002C00                     __pidataCOMRAM:
    96                           	callstack 0
    97                           
    98                           ;initializer for _flage_7
    99   002C00  01                 	db	1
   100                           
   101                           ;initializer for _flage_6
   102   002C01  01                 	db	1
   103                           
   104                           ;initializer for _flage_5
   105   002C02  01                 	db	1
   106                           
   107                           ;initializer for _flage_4
   108   002C03  01                 	db	1
   109                           
   110                           ;initializer for _led1
   111   002C04  03                 	db	3
   112                           
   113                           	psect	idataBANK0
   114   002B30                     __pidataBANK0:
   115                           	callstack 0
   116                           
   117                           ;initializer for _Tris_Regs
   118   002B30  92                 	db	146
   119   002B31  0F                 	db	15
   120   002B32  93                 	db	147
   121   002B33  0F                 	db	15
   122   002B34  94                 	db	148
   123   002B35  0F                 	db	15
   124   002B36  95                 	db	149
   125   002B37  0F                 	db	15
   126   002B38  96                 	db	150
   127   002B39  0F                 	db	15
   128                           
   129                           ;initializer for _Lat_Regs
   130   002B3A  89                 	db	137
   131   002B3B  0F                 	db	15
   132   002B3C  8A                 	db	138
   133   002B3D  0F                 	db	15
   134   002B3E  8B                 	db	139
   135   002B3F  0F                 	db	15
   136   002B40  8C                 	db	140
   137   002B41  0F                 	db	15
   138   002B42  8D                 	db	141
   139   002B43  0F                 	db	15
   140                           
   141                           ;initializer for _Port_Regs
   142   002B44  80                 	db	128
   143   002B45  0F                 	db	15
   144   002B46  81                 	db	129
   145   002B47  0F                 	db	15
   146   002B48  82                 	db	130
   147   002B49  0F                 	db	15
   148   002B4A  83                 	db	131
   149   002B4B  0F                 	db	15
   150   002B4C  84                 	db	132
   151   002B4D  0F                 	db	15
   152                           
   153                           ;initializer for _i2c
   154   002B4E  0000               	dw	0
   155   002B50  0000               	dw	0
   156   002B52  00                 	db	0
   157   002B53  00                 	db	0
   158   002B54  00                 	db	0
   159   002B55  00                 	db	0
   160   002B56  C6                 	db	low _Default
   161   002B57  2A                 	db	high _Default
   162   002B58  06                 	db	6
   163   002B59  00                 	db	0
   164   002B5A  60                 	db	96
   165   002B5B  01                 	db	1
   166                           
   167                           	psect	idataBANK1
   168   002BC4                     __pidataBANK1:
   169                           	callstack 0
   170                           
   171                           ;initializer for _KEYPAD_SHAPE
   172   002BC4  37                 	db	55
   173   002BC5  38                 	db	56
   174   002BC6  39                 	db	57
   175   002BC7  2F                 	db	47
   176   002BC8  34                 	db	52
   177   002BC9  35                 	db	53
   178   002BCA  36                 	db	54
   179   002BCB  2A                 	db	42
   180   002BCC  31                 	db	49
   181   002BCD  32                 	db	50
   182   002BCE  33                 	db	51
   183   002BCF  2D                 	db	45
   184   002BD0  23                 	db	35
   185   002BD1  30                 	db	48
   186   002BD2  3D                 	db	61
   187   002BD3  2B                 	db	43
   188   000000                     _TMR2	set	4044
   189   000000                     _T2CONbits	set	4042
   190   000000                     _TMR1L	set	4046
   191   000000                     _TMR1H	set	4047
   192   000000                     _T1CONbits	set	4045
   193   000000                     _T0CONbits	set	4053
   194   000000                     _INTCON2bits	set	4081
   195   000000                     _INTCON3bits	set	4080
   196   000000                     _EECON2	set	4007
   197   000000                     _SSPBUF	set	4041
   198   000000                     _SSPSTATbits	set	4039
   199   000000                     _SSPCON2bits	set	4037
   200   000000                     _SSPADD	set	4040
   201   000000                     _SSPCON1bits	set	4038
   202   000000                     _SPBRGH	set	4016
   203   000000                     _SPBRG	set	4015
   204   000000                     _TXREG	set	4013
   205   000000                     _TXSTAbits	set	4012
   206   000000                     _RCREG	set	4014
   207   000000                     _TRISCbits	set	3988
   208   000000                     _PR2	set	4043
   209   000000                     _CCPR1L	set	4030
   210   000000                     _CCPR1H	set	4031
   211   000000                     _ADCON1bits	set	4033
   212   000000                     _ADRESL	set	4035
   213   000000                     _ADRESH	set	4036
   214   000000                     _INTCONbits	set	4082
   215   000000                     _TRISD	set	3989
   216   000000                     _TRISB	set	3987
   217   000000                     _TRISE	set	3990
   218   000000                     _TMR3L	set	4018
   219   000000                     _TMR3H	set	4019
   220   000000                     _PORTBbits	set	3969
   221   000000                     _TRISC	set	3988
   222   000000                     _PIE1bits	set	3997
   223   000000                     _ADCON2bits	set	4032
   224   000000                     _ADCON0bits	set	4034
   225   000000                     _LATA	set	3977
   226   000000                     _PORTE	set	3972
   227   000000                     _PORTD	set	3971
   228   000000                     _PORTC	set	3970
   229   000000                     _PORTB	set	3969
   230   000000                     _PORTA	set	3968
   231   000000                     _TRISA	set	3986
   232   000000                     _PIE2bits	set	4000
   233   000000                     _PIR2bits	set	4001
   234   000000                     _T3CONbits	set	4017
   235   000000                     _CCP1CONbits	set	4029
   236   000000                     _PIR1bits	set	3998
   237   000000                     _TMR3	set	4018
   238   000000                     _BAUDCONbits	set	4024
   239   000000                     _CCP2CONbits	set	4026
   240   000000                     _EECON1bits	set	4006
   241   000000                     _EEDATA	set	4008
   242   000000                     _EEADR	set	4009
   243   000000                     _EEADRH	set	4010
   244   000000                     _RCSTAbits	set	4011
   245   000000                     _CCPR2L	set	4027
   246   000000                     _LATE	set	3981
   247   000000                     _LATD	set	3980
   248   000000                     _LATC	set	3979
   249   000000                     _LATB	set	3978
   250   000000                     _TMR0H	set	4055
   251   000000                     _TMR0L	set	4054
   252                           
   253                           	psect	smallconst
   254   001000                     __psmallconst:
   255                           	callstack 0
   256   001000  00                 	db	0
   257   001001                     STR_1:
   258   001001  25                 	db	37
   259   001002  75                 	db	117	;'u'
   260   001003  00                 	db	0
   261   001004  00                 	db	0	; dummy byte at the end
   262   000000                     
   263                           ; #config settings
   264                           
   265                           	psect	cinit
   266   00284A                     __pcinit:
   267                           	callstack 0
   268   00284A                     start_initialization:
   269                           	callstack 0
   270   00284A                     __initialization:
   271                           	callstack 0
   272                           
   273                           ; Initialize objects allocated to BANK1 (16 bytes)
   274                           ; load TBLPTR registers with __pidataBANK1
   275   00284A  0EC4               	movlw	low __pidataBANK1
   276   00284C  6EF6               	movwf	tblptrl,c
   277   00284E  0E2B               	movlw	high __pidataBANK1
   278   002850  6EF7               	movwf	tblptrh,c
   279   002852  0E00               	movlw	low (__pidataBANK1 shr (0+16))
   280   002854  6EF8               	movwf	tblptru,c
   281   002856  EE01  F000         	lfsr	0,__pdataBANK1
   282   00285A  EE10 F010          	lfsr	1,16
   283   00285E                     copy_data0:
   284   00285E  0009               	tblrd		*+
   285   002860  CFF5 FFEE          	movff	tablat,postinc0
   286   002864  50E5               	movf	postdec1,w,c
   287   002866  50E1               	movf	fsr1l,w,c
   288   002868  E1FA               	bnz	copy_data0
   289                           
   290                           ; Initialize objects allocated to BANK0 (44 bytes)
   291                           ; load TBLPTR registers with __pidataBANK0
   292   00286A  0E30               	movlw	low __pidataBANK0
   293   00286C  6EF6               	movwf	tblptrl,c
   294   00286E  0E2B               	movlw	high __pidataBANK0
   295   002870  6EF7               	movwf	tblptrh,c
   296   002872  0E00               	movlw	low (__pidataBANK0 shr (0+16))
   297   002874  6EF8               	movwf	tblptru,c
   298   002876  EE00  F0C5         	lfsr	0,__pdataBANK0
   299   00287A  EE10 F02C          	lfsr	1,44
   300   00287E                     copy_data1:
   301   00287E  0009               	tblrd		*+
   302   002880  CFF5 FFEE          	movff	tablat,postinc0
   303   002884  50E5               	movf	postdec1,w,c
   304   002886  50E1               	movf	fsr1l,w,c
   305   002888  E1FA               	bnz	copy_data1
   306                           
   307                           ; Initialize objects allocated to COMRAM (5 bytes)
   308                           ; load TBLPTR registers with __pidataCOMRAM
   309   00288A  0E00               	movlw	low __pidataCOMRAM
   310   00288C  6EF6               	movwf	tblptrl,c
   311   00288E  0E2C               	movlw	high __pidataCOMRAM
   312   002890  6EF7               	movwf	tblptrh,c
   313   002892  0E00               	movlw	low (__pidataCOMRAM shr (0+16))
   314   002894  6EF8               	movwf	tblptru,c
   315   002896  EE00  F076         	lfsr	0,__pdataCOMRAM
   316   00289A  EE10 F005          	lfsr	1,5
   317   00289E                     copy_data2:
   318   00289E  0009               	tblrd		*+
   319   0028A0  CFF5 FFEE          	movff	tablat,postinc0
   320   0028A4  50E5               	movf	postdec1,w,c
   321   0028A6  50E1               	movf	fsr1l,w,c
   322   0028A8  E1FA               	bnz	copy_data2
   323                           
   324                           ; Clear objects allocated to BANK0 (69 bytes)
   325   0028AA  EE00  F080         	lfsr	0,__pbssBANK0
   326   0028AE  0E45               	movlw	69
   327   0028B0                     clear_0:
   328   0028B0  6AEE               	clrf	postinc0,c
   329   0028B2  06E8               	decf	wreg,f,c
   330   0028B4  E1FD               	bnz	clear_0
   331                           
   332                           ; Clear objects allocated to COMRAM (24 bytes)
   333   0028B6  EE00  F05E         	lfsr	0,__pbssCOMRAM
   334   0028BA  0E18               	movlw	24
   335   0028BC                     clear_1:
   336   0028BC  6AEE               	clrf	postinc0,c
   337   0028BE  06E8               	decf	wreg,f,c
   338   0028C0  E1FD               	bnz	clear_1
   339   0028C2                     end_of_initialization:
   340                           	callstack 0
   341   0028C2                     __end_of__initialization:
   342                           	callstack 0
   343   0028C2  907B               	bcf	int$flags,0,c	;clear compiler interrupt flag (level 1)
   344   0028C4  927B               	bcf	int$flags,1,c	;clear compiler interrupt flag (level 2)
   345   0028C6  0100               	movlb	0
   346   0028C8  EF12  F015         	goto	_main	;jump to C main() function
   347                           
   348                           	psect	bssCOMRAM
   349   00005E                     __pbssCOMRAM:
   350                           	callstack 0
   351   00005E                     _timer3_preload:
   352                           	callstack 0
   353   00005E                     	ds	2
   354   000060                     _timer1_preload:
   355                           	callstack 0
   356   000060                     	ds	2
   357   000062                     _timer0_preload:
   358                           	callstack 0
   359   000062                     	ds	2
   360   000064                     _i2c_callback_ptr:
   361                           	callstack 0
   362   000064                     	ds	2
   363   000066                     ccp1_compare_set_value@F3132:
   364                           	callstack 0
   365   000066                     	ds	2
   366   000068                     _ccp1_callback_ptr:
   367                           	callstack 0
   368   000068                     	ds	2
   369   00006A                     _ADC_Interrupt_handler:
   370                           	callstack 0
   371   00006A                     	ds	2
   372   00006C                     _slave1_data_rec:
   373                           	callstack 0
   374   00006C                     	ds	1
   375   00006D                     _timer2_preload:
   376                           	callstack 0
   377   00006D                     	ds	1
   378   00006E                     relay_toggel@F3068:
   379                           	callstack 0
   380   00006E                     	ds	1
   381   00006F                     relay_off@F3063:
   382                           	callstack 0
   383   00006F                     	ds	1
   384   000070                     relay_on@F3058:
   385                           	callstack 0
   386   000070                     	ds	1
   387   000071                     relay_int@F3053:
   388                           	callstack 0
   389   000071                     	ds	1
   390   000072                     led_toggel@F3069:
   391                           	callstack 0
   392   000072                     	ds	1
   393   000073                     led_off@F3064:
   394                           	callstack 0
   395   000073                     	ds	1
   396   000074                     led_on@F3059:
   397                           	callstack 0
   398   000074                     	ds	1
   399   000075                     led_int@F3054:
   400                           	callstack 0
   401   000075                     	ds	1
   402                           
   403                           	psect	dataCOMRAM
   404   000076                     __pdataCOMRAM:
   405                           	callstack 0
   406   000076                     _flage_7:
   407                           	callstack 0
   408   000076                     	ds	1
   409   000077                     _flage_6:
   410                           	callstack 0
   411   000077                     	ds	1
   412   000078                     _flage_5:
   413                           	callstack 0
   414   000078                     	ds	1
   415   000079                     _flage_4:
   416                           	callstack 0
   417   000079                     	ds	1
   418   00007A                     _led1:
   419                           	callstack 0
   420   00007A                     	ds	1
   421                           
   422                           	psect	bssBANK0
   423   000080                     __pbssBANK0:
   424                           	callstack 0
   425   000080                     	ds	11
   426   00008B                     	ds	6
   427   000091                     	ds	4
   428   000095                     _timer3_callback_ptr:
   429                           	callstack 0
   430   000095                     	ds	2
   431   000097                     _timer2_callback_ptr:
   432                           	callstack 0
   433   000097                     	ds	2
   434   000099                     _timer1_callback_ptr:
   435                           	callstack 0
   436   000099                     	ds	2
   437   00009B                     _timer0_callback_ptr:
   438                           	callstack 0
   439   00009B                     	ds	2
   440   00009D                     _RB7_HIGH_interrupt_Handeler:
   441                           	callstack 0
   442   00009D                     	ds	2
   443   00009F                     _RB7_LOW_interrupt_Handeler:
   444                           	callstack 0
   445   00009F                     	ds	2
   446   0000A1                     _RB6_HIGH_interrupt_Handeler:
   447                           	callstack 0
   448   0000A1                     	ds	2
   449   0000A3                     _RB6_LOW_interrupt_Handeler:
   450                           	callstack 0
   451   0000A3                     	ds	2
   452   0000A5                     _RB5_HIGH_interrupt_Handeler:
   453                           	callstack 0
   454   0000A5                     	ds	2
   455   0000A7                     _RB5_LOW_interrupt_Handeler:
   456                           	callstack 0
   457   0000A7                     	ds	2
   458   0000A9                     _RB4_HIGH_interrupt_Handeler:
   459                           	callstack 0
   460   0000A9                     	ds	2
   461   0000AB                     _RB4_LOW_interrupt_Handeler:
   462                           	callstack 0
   463   0000AB                     	ds	2
   464   0000AD                     _Int2_interrupt_Handeler:
   465                           	callstack 0
   466   0000AD                     	ds	2
   467   0000AF                     _Int1_interrupt_Handeler:
   468                           	callstack 0
   469   0000AF                     	ds	2
   470   0000B1                     _Int0_interrupt_Handeler:
   471                           	callstack 0
   472   0000B1                     	ds	2
   473   0000B3                     _write_collision_callback_ptr:
   474                           	callstack 0
   475   0000B3                     	ds	2
   476   0000B5                     _recive_overflow_callback_ptr:
   477                           	callstack 0
   478   0000B5                     	ds	2
   479   0000B7                     	ds	2
   480   0000B9                     	ds	2
   481   0000BB                     _eusart_rx_callback_ptr:
   482                           	callstack 0
   483   0000BB                     	ds	2
   484   0000BD                     _eusart_tx_callback_ptr:
   485                           	callstack 0
   486   0000BD                     	ds	2
   487   0000BF                     _eusart_overerr_callback_ptr:
   488                           	callstack 0
   489   0000BF                     	ds	2
   490   0000C1                     _eusart_framerr_callback_ptr:
   491                           	callstack 0
   492   0000C1                     	ds	2
   493   0000C3                     _ccp2_callback_ptr:
   494                           	callstack 0
   495   0000C3                     	ds	2
   496                           
   497                           	psect	dataBANK0
   498   0000C5                     __pdataBANK0:
   499                           	callstack 0
   500   0000C5                     _Tris_Regs:
   501                           	callstack 0
   502   0000C5                     	ds	10
   503   0000CF                     _Lat_Regs:
   504                           	callstack 0
   505   0000CF                     	ds	10
   506   0000D9                     _Port_Regs:
   507                           	callstack 0
   508   0000D9                     	ds	10
   509   0000E3                     _i2c:
   510                           	callstack 0
   511   0000E3                     	ds	14
   512                           
   513                           	psect	dataBANK1
   514   000100                     __pdataBANK1:
   515                           	callstack 0
   516   000100                     _KEYPAD_SHAPE:
   517                           	callstack 0
   518   000100                     	ds	16
   519                           
   520                           	psect	cstackBANK0
   521   0000F1                     __pcstackBANK0:
   522                           	callstack 0
   523   0000F1                     i2c_int@ptr:
   524                           	callstack 0
   525                           
   526                           ; 2 bytes @ 0x0
   527   0000F1                     	ds	2
   528   0000F3                     ??_i2c_int:
   529                           
   530                           ; 1 bytes @ 0x2
   531   0000F3                     	ds	2
   532                           
   533                           	psect	cstackCOMRAM
   534   000001                     __pcstackCOMRAM:
   535                           	callstack 0
   536   000001                     RB4_ISR@flage:
   537                           	callstack 0
   538   000001                     RB5_ISR@flage:
   539                           	callstack 0
   540   000001                     RB6_ISR@flage:
   541                           	callstack 0
   542   000001                     RB7_ISR@flage:
   543                           	callstack 0
   544                           
   545                           ; 1 bytes @ 0x0
   546   000001                     	ds	1
   547   000002                     ??_InterruptManagmentHigh:
   548                           
   549                           ; 1 bytes @ 0x1
   550   000002                     	ds	2
   551   000004                     ?___xxtofl:
   552                           	callstack 0
   553   000004                     gpio_pin_direction_int@pin_cfg:
   554                           	callstack 0
   555   000004                     gpio_pin_write_level@pin_cfg:
   556                           	callstack 0
   557   000004                     ___xxtofl@val:
   558                           	callstack 0
   559                           
   560                           ; 4 bytes @ 0x3
   561   000004                     	ds	2
   562   000006                     ??_gpio_pin_direction_int:
   563   000006                     gpio_pin_write_level@level:
   564                           	callstack 0
   565                           
   566                           ; 1 bytes @ 0x5
   567   000006                     	ds	1
   568   000007                     ??_gpio_pin_write_level:
   569                           
   570                           ; 1 bytes @ 0x6
   571   000007                     	ds	1
   572   000008                     ??___xxtofl:
   573                           
   574                           ; 1 bytes @ 0x7
   575   000008                     	ds	4
   576   00000C                     ___xxtofl@sign:
   577                           	callstack 0
   578                           
   579                           ; 1 bytes @ 0xB
   580   00000C                     	ds	1
   581   00000D                     ___xxtofl@exp:
   582                           	callstack 0
   583   00000D                     led_on@led_cfg:
   584                           	callstack 0
   585   00000D                     led_off@led_cfg:
   586                           	callstack 0
   587   00000D                     gpio_pin_int@pin_cfg:
   588                           	callstack 0
   589                           
   590                           ; 2 bytes @ 0xC
   591   00000D                     	ds	1
   592   00000E                     ___xxtofl@arg:
   593                           	callstack 0
   594                           
   595                           ; 4 bytes @ 0xD
   596   00000E                     	ds	1
   597   00000F                     ??_led_on:
   598   00000F                     ??_led_off:
   599   00000F                     led_int@led_cfg:
   600                           	callstack 0
   601                           
   602                           ; 2 bytes @ 0xE
   603   00000F                     	ds	1
   604   000010                     led_on@pin_cfg:
   605                           	callstack 0
   606   000010                     led_off@pin_cfg:
   607                           	callstack 0
   608                           
   609                           ; 1 bytes @ 0xF
   610   000010                     	ds	1
   611   000011                     ??_led_int:
   612                           
   613                           ; 1 bytes @ 0x10
   614   000011                     	ds	1
   615   000012                     ?___flmul:
   616                           	callstack 0
   617   000012                     led_int@pin_cfg:
   618                           	callstack 0
   619   000012                     ___flmul@b:
   620                           	callstack 0
   621                           
   622                           ; 4 bytes @ 0x11
   623   000012                     	ds	4
   624   000016                     ___flmul@a:
   625                           	callstack 0
   626                           
   627                           ; 4 bytes @ 0x15
   628   000016                     	ds	4
   629   00001A                     ??___flmul:
   630                           
   631                           ; 1 bytes @ 0x19
   632   00001A                     	ds	4
   633   00001E                     ___flmul@sign:
   634                           	callstack 0
   635                           
   636                           ; 1 bytes @ 0x1D
   637   00001E                     	ds	1
   638   00001F                     ___flmul@grs:
   639                           	callstack 0
   640                           
   641                           ; 4 bytes @ 0x1E
   642   00001F                     	ds	4
   643   000023                     ___flmul@aexp:
   644                           	callstack 0
   645                           
   646                           ; 1 bytes @ 0x22
   647   000023                     	ds	1
   648   000024                     ___flmul@bexp:
   649                           	callstack 0
   650                           
   651                           ; 1 bytes @ 0x23
   652   000024                     	ds	1
   653   000025                     ___flmul@prod:
   654                           	callstack 0
   655                           
   656                           ; 4 bytes @ 0x24
   657   000025                     	ds	4
   658   000029                     ___flmul@temp:
   659                           	callstack 0
   660                           
   661                           ; 2 bytes @ 0x28
   662   000029                     	ds	2
   663   00002B                     ?___fldiv:
   664                           	callstack 0
   665   00002B                     ___fldiv@b:
   666                           	callstack 0
   667                           
   668                           ; 4 bytes @ 0x2A
   669   00002B                     	ds	4
   670   00002F                     ___fldiv@a:
   671                           	callstack 0
   672                           
   673                           ; 4 bytes @ 0x2E
   674   00002F                     	ds	4
   675   000033                     ??___fldiv:
   676                           
   677                           ; 1 bytes @ 0x32
   678   000033                     	ds	4
   679   000037                     ___fldiv@rem:
   680                           	callstack 0
   681                           
   682                           ; 4 bytes @ 0x36
   683   000037                     	ds	4
   684   00003B                     ___fldiv@sign:
   685                           	callstack 0
   686                           
   687                           ; 1 bytes @ 0x3A
   688   00003B                     	ds	1
   689   00003C                     ___fldiv@new_exp:
   690                           	callstack 0
   691                           
   692                           ; 2 bytes @ 0x3B
   693   00003C                     	ds	2
   694   00003E                     ___fldiv@grs:
   695                           	callstack 0
   696                           
   697                           ; 4 bytes @ 0x3D
   698   00003E                     	ds	4
   699   000042                     ___fldiv@bexp:
   700                           	callstack 0
   701                           
   702                           ; 1 bytes @ 0x41
   703   000042                     	ds	1
   704   000043                     ___fldiv@aexp:
   705                           	callstack 0
   706                           
   707                           ; 1 bytes @ 0x42
   708   000043                     	ds	1
   709   000044                     ?___fladd:
   710                           	callstack 0
   711   000044                     ___fladd@b:
   712                           	callstack 0
   713                           
   714                           ; 4 bytes @ 0x43
   715   000044                     	ds	4
   716   000048                     ___fladd@a:
   717                           	callstack 0
   718                           
   719                           ; 4 bytes @ 0x47
   720   000048                     	ds	4
   721   00004C                     ??___fladd:
   722                           
   723                           ; 1 bytes @ 0x4B
   724   00004C                     	ds	4
   725   000050                     ___fladd@signs:
   726                           	callstack 0
   727                           
   728                           ; 1 bytes @ 0x4F
   729   000050                     	ds	1
   730   000051                     ___fladd@aexp:
   731                           	callstack 0
   732                           
   733                           ; 1 bytes @ 0x50
   734   000051                     	ds	1
   735   000052                     ___fladd@bexp:
   736                           	callstack 0
   737                           
   738                           ; 1 bytes @ 0x51
   739   000052                     	ds	1
   740   000053                     ___fladd@grs:
   741                           	callstack 0
   742                           
   743                           ; 1 bytes @ 0x52
   744   000053                     	ds	1
   745   000054                     ?___fltol:
   746                           	callstack 0
   747   000054                     ___fltol@f1:
   748                           	callstack 0
   749                           
   750                           ; 4 bytes @ 0x53
   751   000054                     	ds	4
   752   000058                     ??___fltol:
   753                           
   754                           ; 1 bytes @ 0x57
   755   000058                     	ds	4
   756   00005C                     ___fltol@sign1:
   757                           	callstack 0
   758                           
   759                           ; 1 bytes @ 0x5B
   760   00005C                     	ds	1
   761   00005D                     ___fltol@exp1:
   762                           	callstack 0
   763                           
   764                           ; 1 bytes @ 0x5C
   765   00005D                     	ds	1
   766   00005E                     
   767                           ; 1 bytes @ 0x5D
   768 ;;
   769 ;;Main: autosize = 0, tempsize = 0, incstack = 0, save=0
   770 ;;
   771 ;; *************** function _main *****************
   772 ;; Defined at:
   773 ;;		line 49 in file "Application.c"
   774 ;; Parameters:    Size  Location     Type
   775 ;;		None
   776 ;; Auto vars:     Size  Location     Type
   777 ;;		None
   778 ;; Return value:  Size  Location     Type
   779 ;;                  2  1428[None  ] int 
   780 ;; Registers used:
   781 ;;		wreg, fsr2l, fsr2h, status,2, status,0, prodl, prodh, cstack
   782 ;; Tracked objects:
   783 ;;		On entry : 0/0
   784 ;;		On exit  : 0/0
   785 ;;		Unchanged: 0/0
   786 ;; Data sizes:     COMRAM   BANK0   BANK1   BANK2   BANK3   BANK4   BANK5   BANK6   BANK7   BANK8   BANK9  BANK10  BANK1
      +1  BANK12  BANK13  BANK14  BANK15
   787 ;;      Params:         0       0       0       0       0       0       0       0       0       0       0       0       
      +0       0       0       0       0
   788 ;;      Locals:         0       0       0       0       0       0       0       0       0       0       0       0       
      +0       0       0       0       0
   789 ;;      Temps:          0       0       0       0       0       0       0       0       0       0       0       0       
      +0       0       0       0       0
   790 ;;      Totals:         0       0       0       0       0       0       0       0       0       0       0       0       
      +0       0       0       0       0
   791 ;;Total ram usage:        0 bytes
   792 ;; Hardware stack levels required when called: 6
   793 ;; This function calls:
   794 ;;		_i2c_int
   795 ;;		_led_int
   796 ;;		_led_off
   797 ;;		_led_on
   798 ;; This function is called by:
   799 ;;		Startup code after reset
   800 ;; This function uses a non-reentrant model
   801 ;;
   802                           
   803                           	psect	text0
   804   002A24                     __ptext0:
   805                           	callstack 0
   806   002A24                     _main:
   807                           	callstack 25
   808   002A24                     
   809                           ;Application.c: 51: i2c_int(&i2c);
   810   002A24  0EE3               	movlw	low _i2c
   811   002A26  0100               	movlb	0	; () banked
   812   002A28  6FF1               	movwf	i2c_int@ptr& (0+255),b
   813   002A2A  0E00               	movlw	high _i2c
   814   002A2C  6FF2               	movwf	(i2c_int@ptr+1)& (0+255),b
   815   002A2E  EC40  F010         	call	_i2c_int	;wreg free
   816                           
   817                           ;Application.c: 52: led_int(&led1);
   818   002A32  0E7A               	movlw	low _led1
   819   002A34  6E0F               	movwf	led_int@led_cfg^0,c
   820   002A36  0E00               	movlw	high _led1
   821   002A38  6E10               	movwf	(led_int@led_cfg+1)^0,c
   822   002A3A  ECDA  F014         	call	_led_int	;wreg free
   823   002A3E                     l7772:
   824                           
   825                           ;Application.c: 57:      if(slave1_data_rec=='a'){
   826   002A3E  0E61               	movlw	97
   827   002A40  186C               	xorwf	_slave1_data_rec^0,w,c	;volatile
   828   002A42  A4D8               	btfss	status,2,c
   829   002A44  EF26  F015         	goto	u7581
   830   002A48  EF28  F015         	goto	u7580
   831   002A4C                     u7581:
   832   002A4C  EF30  F015         	goto	l7776
   833   002A50                     u7580:
   834   002A50                     
   835                           ;Application.c: 58:          led_on(&led1);
   836   002A50  0E7A               	movlw	low _led1
   837   002A52  6E0D               	movwf	led_on@led_cfg^0,c
   838   002A54  0E00               	movlw	high _led1
   839   002A56  6E0E               	movwf	(led_on@led_cfg+1)^0,c
   840   002A58  EC66  F014         	call	_led_on	;wreg free
   841                           
   842                           ;Application.c: 59:      }
   843   002A5C  EF1F  F015         	goto	l7772
   844   002A60                     l7776:
   845   002A60  0E63               	movlw	99
   846   002A62  186C               	xorwf	_slave1_data_rec^0,w,c	;volatile
   847   002A64  A4D8               	btfss	status,2,c
   848   002A66  EF37  F015         	goto	u7591
   849   002A6A  EF39  F015         	goto	u7590
   850   002A6E                     u7591:
   851   002A6E  EF41  F015         	goto	l1431
   852   002A72                     u7590:
   853   002A72                     
   854                           ;Application.c: 61:          led_off(&led1);
   855   002A72  0E7A               	movlw	low _led1
   856   002A74  6E0D               	movwf	led_off@led_cfg^0,c
   857   002A76  0E00               	movlw	high _led1
   858   002A78  6E0E               	movwf	(led_off@led_cfg+1)^0,c
   859   002A7A  ECA0  F014         	call	_led_off	;wreg free
   860                           
   861                           ;Application.c: 62:      }
   862   002A7E  EF1F  F015         	goto	l7772
   863   002A82                     l1431:
   864   002A82  EF1F  F015         	goto	l7772
   865   002A86  EF07  F000         	goto	start
   866   002A8A                     __end_of_main:
   867                           	callstack 0
   868                           
   869 ;; *************** function _led_on *****************
   870 ;; Defined at:
   871 ;;		line 29 in file "ECU_Layer/LED/LED.c"
   872 ;; Parameters:    Size  Location     Type
   873 ;;  led_cfg         2   12[COMRAM] PTR struct .
   874 ;;		 -> led1(1), 
   875 ;; Auto vars:     Size  Location     Type
   876 ;;  pin_cfg         1   15[COMRAM] struct .
   877 ;;  returt_state    1    0        unsigned char 
   878 ;; Return value:  Size  Location     Type
   879 ;;                  1    wreg      unsigned char 
   880 ;; Registers used:
   881 ;;		wreg, fsr2l, fsr2h, status,2, status,0, prodl, prodh, cstack
   882 ;; Tracked objects:
   883 ;;		On entry : 0/0
   884 ;;		On exit  : 0/0
   885 ;;		Unchanged: 0/0
   886 ;; Data sizes:     COMRAM   BANK0   BANK1   BANK2   BANK3   BANK4   BANK5   BANK6   BANK7   BANK8   BANK9  BANK10  BANK1
      +1  BANK12  BANK13  BANK14  BANK15
   887 ;;      Params:         2       0       0       0       0       0       0       0       0       0       0       0       
      +0       0       0       0       0
   888 ;;      Locals:         1       0       0       0       0       0       0       0       0       0       0       0       
      +0       0       0       0       0
   889 ;;      Temps:          1       0       0       0       0       0       0       0       0       0       0       0       
      +0       0       0       0       0
   890 ;;      Totals:         4       0       0       0       0       0       0       0       0       0       0       0       
      +0       0       0       0       0
   891 ;;Total ram usage:        4 bytes
   892 ;; Hardware stack levels used: 1
   893 ;; Hardware stack levels required when called: 4
   894 ;; This function calls:
   895 ;;		_gpio_pin_write_level
   896 ;; This function is called by:
   897 ;;		_main
   898 ;; This function uses a non-reentrant model
   899 ;;
   900                           
   901                           	psect	text1
   902   0028CC                     __ptext1:
   903                           	callstack 0
   904   0028CC                     _led_on:
   905                           	callstack 26
   906   0028CC                     
   907                           ;ECU_Layer/LED/LED.c: 31:     pin_cfg_t pin_cfg={
   908   0028CC  C074  F010         	movff	led_on@F3059,led_on@pin_cfg
   909   0028D0  9010               	bcf	led_on@pin_cfg^0,0,c
   910   0028D2  C00D  FFD9         	movff	led_on@led_cfg,fsr2l
   911   0028D6  C00E  FFDA         	movff	led_on@led_cfg+1,fsr2h
   912   0028DA  AEDF               	btfss	indf2,7,c
   913   0028DC  D002               	bra	u5435
   914   0028DE  8210               	bsf	led_on@pin_cfg^0,1,c
   915   0028E0  D001               	bra	u5437
   916   0028E2                     u5435:
   917   0028E2  9210               	bcf	led_on@pin_cfg^0,1,c
   918   0028E4                     u5437:
   919   0028E4  C00D  FFD9         	movff	led_on@led_cfg,fsr2l
   920   0028E8  C00E  FFDA         	movff	led_on@led_cfg+1,fsr2h
   921   0028EC  38DF               	swapf	223,w,c
   922   0028EE  0B07               	andlw	7
   923   0028F0  6E0F               	movwf	??_led_on^0,c
   924   0028F2  460F               	rlncf	??_led_on^0,f,c
   925   0028F4  460F               	rlncf	??_led_on^0,f,c
   926   0028F6  5010               	movf	led_on@pin_cfg^0,w,c
   927   0028F8  180F               	xorwf	??_led_on^0,w,c
   928   0028FA  0BE3               	andlw	-29
   929   0028FC  180F               	xorwf	??_led_on^0,w,c
   930   0028FE  6E10               	movwf	led_on@pin_cfg^0,c
   931   002900  C00D  FFD9         	movff	led_on@led_cfg,fsr2l
   932   002904  C00E  FFDA         	movff	led_on@led_cfg+1,fsr2h
   933   002908  50DF               	movf	223,w,c
   934   00290A  0B0F               	andlw	15
   935   00290C  6E0F               	movwf	??_led_on^0,c
   936   00290E  3A0F               	swapf	??_led_on^0,f,c
   937   002910  460F               	rlncf	??_led_on^0,f,c
   938   002912  5010               	movf	led_on@pin_cfg^0,w,c
   939   002914  180F               	xorwf	??_led_on^0,w,c
   940   002916  0B1F               	andlw	-225
   941   002918  180F               	xorwf	??_led_on^0,w,c
   942   00291A  6E10               	movwf	led_on@pin_cfg^0,c
   943   00291C                     
   944                           ;ECU_Layer/LED/LED.c: 37:     if(((void*)0)!=led_cfg)
   945   00291C  500D               	movf	led_on@led_cfg^0,w,c
   946   00291E  100E               	iorwf	(led_on@led_cfg+1)^0,w,c
   947   002920  B4D8               	btfsc	status,2,c
   948   002922  EF95  F014         	goto	u5441
   949   002926  EF97  F014         	goto	u5440
   950   00292A                     u5441:
   951   00292A  EF9F  F014         	goto	l255
   952   00292E                     u5440:
   953   00292E                     
   954                           ;ECU_Layer/LED/LED.c: 38:     {;ECU_Layer/LED/LED.c: 39:         gpio_pin_write_level(&p
      +                          in_cfg,GPIO_HIGH);
   955   00292E  0E10               	movlw	low led_on@pin_cfg
   956   002930  6E04               	movwf	gpio_pin_write_level@pin_cfg^0,c
   957   002932  0E00               	movlw	high led_on@pin_cfg
   958   002934  6E05               	movwf	(gpio_pin_write_level@pin_cfg+1)^0,c
   959   002936  0E01               	movlw	1
   960   002938  6E06               	movwf	gpio_pin_write_level@level^0,c
   961   00293A  ECA5  F013         	call	_gpio_pin_write_level	;wreg free
   962   00293E                     l255:
   963   00293E  0012               	return		;funcret
   964   002940                     __end_of_led_on:
   965                           	callstack 0
   966                           
   967 ;; *************** function _led_off *****************
   968 ;; Defined at:
   969 ;;		line 49 in file "ECU_Layer/LED/LED.c"
   970 ;; Parameters:    Size  Location     Type
   971 ;;  led_cfg         2   12[COMRAM] PTR struct .
   972 ;;		 -> led1(1), 
   973 ;; Auto vars:     Size  Location     Type
   974 ;;  pin_cfg         1   15[COMRAM] struct .
   975 ;;  returt_state    1    0        unsigned char 
   976 ;; Return value:  Size  Location     Type
   977 ;;                  1    wreg      unsigned char 
   978 ;; Registers used:
   979 ;;		wreg, fsr2l, fsr2h, status,2, status,0, prodl, prodh, cstack
   980 ;; Tracked objects:
   981 ;;		On entry : 0/0
   982 ;;		On exit  : 0/0
   983 ;;		Unchanged: 0/0
   984 ;; Data sizes:     COMRAM   BANK0   BANK1   BANK2   BANK3   BANK4   BANK5   BANK6   BANK7   BANK8   BANK9  BANK10  BANK1
      +1  BANK12  BANK13  BANK14  BANK15
   985 ;;      Params:         2       0       0       0       0       0       0       0       0       0       0       0       
      +0       0       0       0       0
   986 ;;      Locals:         1       0       0       0       0       0       0       0       0       0       0       0       
      +0       0       0       0       0
   987 ;;      Temps:          1       0       0       0       0       0       0       0       0       0       0       0       
      +0       0       0       0       0
   988 ;;      Totals:         4       0       0       0       0       0       0       0       0       0       0       0       
      +0       0       0       0       0
   989 ;;Total ram usage:        4 bytes
   990 ;; Hardware stack levels used: 1
   991 ;; Hardware stack levels required when called: 4
   992 ;; This function calls:
   993 ;;		_gpio_pin_write_level
   994 ;; This function is called by:
   995 ;;		_main
   996 ;; This function uses a non-reentrant model
   997 ;;
   998                           
   999                           	psect	text2
  1000   002940                     __ptext2:
  1001                           	callstack 0
  1002   002940                     _led_off:
  1003                           	callstack 26
  1004   002940                     
  1005                           ;ECU_Layer/LED/LED.c: 51:     pin_cfg_t pin_cfg={
  1006   002940  C073  F010         	movff	led_off@F3064,led_off@pin_cfg
  1007   002944  9010               	bcf	led_off@pin_cfg^0,0,c
  1008   002946  C00D  FFD9         	movff	led_off@led_cfg,fsr2l
  1009   00294A  C00E  FFDA         	movff	led_off@led_cfg+1,fsr2h
  1010   00294E  AEDF               	btfss	indf2,7,c
  1011   002950  D002               	bra	u5455
  1012   002952  8210               	bsf	led_off@pin_cfg^0,1,c
  1013   002954  D001               	bra	u5457
  1014   002956                     u5455:
  1015   002956  9210               	bcf	led_off@pin_cfg^0,1,c
  1016   002958                     u5457:
  1017   002958  C00D  FFD9         	movff	led_off@led_cfg,fsr2l
  1018   00295C  C00E  FFDA         	movff	led_off@led_cfg+1,fsr2h
  1019   002960  38DF               	swapf	223,w,c
  1020   002962  0B07               	andlw	7
  1021   002964  6E0F               	movwf	??_led_off^0,c
  1022   002966  460F               	rlncf	??_led_off^0,f,c
  1023   002968  460F               	rlncf	??_led_off^0,f,c
  1024   00296A  5010               	movf	led_off@pin_cfg^0,w,c
  1025   00296C  180F               	xorwf	??_led_off^0,w,c
  1026   00296E  0BE3               	andlw	-29
  1027   002970  180F               	xorwf	??_led_off^0,w,c
  1028   002972  6E10               	movwf	led_off@pin_cfg^0,c
  1029   002974  C00D  FFD9         	movff	led_off@led_cfg,fsr2l
  1030   002978  C00E  FFDA         	movff	led_off@led_cfg+1,fsr2h
  1031   00297C  50DF               	movf	223,w,c
  1032   00297E  0B0F               	andlw	15
  1033   002980  6E0F               	movwf	??_led_off^0,c
  1034   002982  3A0F               	swapf	??_led_off^0,f,c
  1035   002984  460F               	rlncf	??_led_off^0,f,c
  1036   002986  5010               	movf	led_off@pin_cfg^0,w,c
  1037   002988  180F               	xorwf	??_led_off^0,w,c
  1038   00298A  0B1F               	andlw	-225
  1039   00298C  180F               	xorwf	??_led_off^0,w,c
  1040   00298E  6E10               	movwf	led_off@pin_cfg^0,c
  1041   002990                     
  1042                           ;ECU_Layer/LED/LED.c: 57:     if(((void*)0)!=led_cfg)
  1043   002990  500D               	movf	led_off@led_cfg^0,w,c
  1044   002992  100E               	iorwf	(led_off@led_cfg+1)^0,w,c
  1045   002994  B4D8               	btfsc	status,2,c
  1046   002996  EFCF  F014         	goto	u5461
  1047   00299A  EFD1  F014         	goto	u5460
  1048   00299E                     u5461:
  1049   00299E  EFD9  F014         	goto	l261
  1050   0029A2                     u5460:
  1051   0029A2                     
  1052                           ;ECU_Layer/LED/LED.c: 58:     {;ECU_Layer/LED/LED.c: 59:         gpio_pin_write_level(&p
      +                          in_cfg,GPIO_LOW);
  1053   0029A2  0E10               	movlw	low led_off@pin_cfg
  1054   0029A4  6E04               	movwf	gpio_pin_write_level@pin_cfg^0,c
  1055   0029A6  0E00               	movlw	high led_off@pin_cfg
  1056   0029A8  6E05               	movwf	(gpio_pin_write_level@pin_cfg+1)^0,c
  1057   0029AA  0E00               	movlw	0
  1058   0029AC  6E06               	movwf	gpio_pin_write_level@level^0,c
  1059   0029AE  ECA5  F013         	call	_gpio_pin_write_level	;wreg free
  1060   0029B2                     l261:
  1061   0029B2  0012               	return		;funcret
  1062   0029B4                     __end_of_led_off:
  1063                           	callstack 0
  1064                           
  1065 ;; *************** function _led_int *****************
  1066 ;; Defined at:
  1067 ;;		line 8 in file "ECU_Layer/LED/LED.c"
  1068 ;; Parameters:    Size  Location     Type
  1069 ;;  led_cfg         2   14[COMRAM] PTR struct .
  1070 ;;		 -> led1(1), 
  1071 ;; Auto vars:     Size  Location     Type
  1072 ;;  pin_cfg         1   17[COMRAM] struct .
  1073 ;;  returt_state    1    0        unsigned char 
  1074 ;; Return value:  Size  Location     Type
  1075 ;;                  1    wreg      unsigned char 
  1076 ;; Registers used:
  1077 ;;		wreg, fsr2l, fsr2h, status,2, status,0, prodl, prodh, cstack
  1078 ;; Tracked objects:
  1079 ;;		On entry : 0/0
  1080 ;;		On exit  : 0/0
  1081 ;;		Unchanged: 0/0
  1082 ;; Data sizes:     COMRAM   BANK0   BANK1   BANK2   BANK3   BANK4   BANK5   BANK6   BANK7   BANK8   BANK9  BANK10  BANK1
      +1  BANK12  BANK13  BANK14  BANK15
  1083 ;;      Params:         2       0       0       0       0       0       0       0       0       0       0       0       
      +0       0       0       0       0
  1084 ;;      Locals:         1       0       0       0       0       0       0       0       0       0       0       0       
      +0       0       0       0       0
  1085 ;;      Temps:          1       0       0       0       0       0       0       0       0       0       0       0       
      +0       0       0       0       0
  1086 ;;      Totals:         4       0       0       0       0       0       0       0       0       0       0       0       
      +0       0       0       0       0
  1087 ;;Total ram usage:        4 bytes
  1088 ;; Hardware stack levels used: 1
  1089 ;; Hardware stack levels required when called: 5
  1090 ;; This function calls:
  1091 ;;		_gpio_pin_int
  1092 ;; This function is called by:
  1093 ;;		_main
  1094 ;; This function uses a non-reentrant model
  1095 ;;
  1096                           
  1097                           	psect	text3
  1098   0029B4                     __ptext3:
  1099                           	callstack 0
  1100   0029B4                     _led_int:
  1101                           	callstack 25
  1102   0029B4                     
  1103                           ;ECU_Layer/LED/LED.c: 11:     pin_cfg_t pin_cfg={
  1104   0029B4  C075  F012         	movff	led_int@F3054,led_int@pin_cfg
  1105   0029B8  9012               	bcf	led_int@pin_cfg^0,0,c
  1106   0029BA  C00F  FFD9         	movff	led_int@led_cfg,fsr2l
  1107   0029BE  C010  FFDA         	movff	led_int@led_cfg+1,fsr2h
  1108   0029C2  AEDF               	btfss	indf2,7,c
  1109   0029C4  D002               	bra	u5415
  1110   0029C6  8212               	bsf	led_int@pin_cfg^0,1,c
  1111   0029C8  D001               	bra	u5417
  1112   0029CA                     u5415:
  1113   0029CA  9212               	bcf	led_int@pin_cfg^0,1,c
  1114   0029CC                     u5417:
  1115   0029CC  C00F  FFD9         	movff	led_int@led_cfg,fsr2l
  1116   0029D0  C010  FFDA         	movff	led_int@led_cfg+1,fsr2h
  1117   0029D4  38DF               	swapf	223,w,c
  1118   0029D6  0B07               	andlw	7
  1119   0029D8  6E11               	movwf	??_led_int^0,c
  1120   0029DA  4611               	rlncf	??_led_int^0,f,c
  1121   0029DC  4611               	rlncf	??_led_int^0,f,c
  1122   0029DE  5012               	movf	led_int@pin_cfg^0,w,c
  1123   0029E0  1811               	xorwf	??_led_int^0,w,c
  1124   0029E2  0BE3               	andlw	-29
  1125   0029E4  1811               	xorwf	??_led_int^0,w,c
  1126   0029E6  6E12               	movwf	led_int@pin_cfg^0,c
  1127   0029E8  C00F  FFD9         	movff	led_int@led_cfg,fsr2l
  1128   0029EC  C010  FFDA         	movff	led_int@led_cfg+1,fsr2h
  1129   0029F0  50DF               	movf	223,w,c
  1130   0029F2  0B0F               	andlw	15
  1131   0029F4  6E11               	movwf	??_led_int^0,c
  1132   0029F6  3A11               	swapf	??_led_int^0,f,c
  1133   0029F8  4611               	rlncf	??_led_int^0,f,c
  1134   0029FA  5012               	movf	led_int@pin_cfg^0,w,c
  1135   0029FC  1811               	xorwf	??_led_int^0,w,c
  1136   0029FE  0B1F               	andlw	-225
  1137   002A00  1811               	xorwf	??_led_int^0,w,c
  1138   002A02  6E12               	movwf	led_int@pin_cfg^0,c
  1139   002A04                     
  1140                           ;ECU_Layer/LED/LED.c: 17:     if(((void*)0)!=led_cfg)
  1141   002A04  500F               	movf	led_int@led_cfg^0,w,c
  1142   002A06  1010               	iorwf	(led_int@led_cfg+1)^0,w,c
  1143   002A08  B4D8               	btfsc	status,2,c
  1144   002A0A  EF09  F015         	goto	u5421
  1145   002A0E  EF0B  F015         	goto	u5420
  1146   002A12                     u5421:
  1147   002A12  EF11  F015         	goto	l249
  1148   002A16                     u5420:
  1149   002A16                     
  1150                           ;ECU_Layer/LED/LED.c: 18:     {;ECU_Layer/LED/LED.c: 19:         gpio_pin_int(&pin_cfg);
  1151   002A16  0E12               	movlw	low led_int@pin_cfg
  1152   002A18  6E0D               	movwf	gpio_pin_int@pin_cfg^0,c
  1153   002A1A  0E00               	movlw	high led_int@pin_cfg
  1154   002A1C  6E0E               	movwf	(gpio_pin_int@pin_cfg+1)^0,c
  1155   002A1E  EC45  F015         	call	_gpio_pin_int	;wreg free
  1156   002A22                     l249:
  1157   002A22  0012               	return		;funcret
  1158   002A24                     __end_of_led_int:
  1159                           	callstack 0
  1160                           
  1161 ;; *************** function _gpio_pin_int *****************
  1162 ;; Defined at:
  1163 ;;		line 128 in file "MCAL_Layer/GPIO/GPIO.c"
  1164 ;; Parameters:    Size  Location     Type
  1165 ;;  pin_cfg         2   12[COMRAM] PTR const struct .
  1166 ;;		 -> led_int@pin_cfg(1), 
  1167 ;; Auto vars:     Size  Location     Type
  1168 ;;  return_statu    1    0        unsigned char 
  1169 ;; Return value:  Size  Location     Type
  1170 ;;                  1    wreg      unsigned char 
  1171 ;; Registers used:
  1172 ;;		wreg, fsr2l, fsr2h, status,2, status,0, prodl, prodh, cstack
  1173 ;; Tracked objects:
  1174 ;;		On entry : 0/0
  1175 ;;		On exit  : 0/0
  1176 ;;		Unchanged: 0/0
  1177 ;; Data sizes:     COMRAM   BANK0   BANK1   BANK2   BANK3   BANK4   BANK5   BANK6   BANK7   BANK8   BANK9  BANK10  BANK1
      +1  BANK12  BANK13  BANK14  BANK15
  1178 ;;      Params:         2       0       0       0       0       0       0       0       0       0       0       0       
      +0       0       0       0       0
  1179 ;;      Locals:         0       0       0       0       0       0       0       0       0       0       0       0       
      +0       0       0       0       0
  1180 ;;      Temps:          0       0       0       0       0       0       0       0       0       0       0       0       
      +0       0       0       0       0
  1181 ;;      Totals:         2       0       0       0       0       0       0       0       0       0       0       0       
      +0       0       0       0       0
  1182 ;;Total ram usage:        2 bytes
  1183 ;; Hardware stack levels used: 1
  1184 ;; Hardware stack levels required when called: 4
  1185 ;; This function calls:
  1186 ;;		_gpio_pin_direction_int
  1187 ;;		_gpio_pin_write_level
  1188 ;; This function is called by:
  1189 ;;		_led_int
  1190 ;;		_chr_lcd_4_int
  1191 ;;		_chr_lcd_8_int
  1192 ;;		_keypad_int
  1193 ;; This function uses a non-reentrant model
  1194 ;;
  1195                           
  1196                           	psect	text4
  1197   002A8A                     __ptext4:
  1198                           	callstack 0
  1199   002A8A                     _gpio_pin_int:
  1200                           	callstack 25
  1201   002A8A                     
  1202                           ;MCAL_Layer/GPIO/GPIO.c: 131:     if(((void*)0)!=pin_cfg)
  1203   002A8A  500D               	movf	gpio_pin_int@pin_cfg^0,w,c
  1204   002A8C  100E               	iorwf	(gpio_pin_int@pin_cfg+1)^0,w,c
  1205   002A8E  B4D8               	btfsc	status,2,c
  1206   002A90  EF4C  F015         	goto	u4251
  1207   002A94  EF4E  F015         	goto	u4250
  1208   002A98                     u4251:
  1209   002A98  EF62  F015         	goto	l776
  1210   002A9C                     u4250:
  1211   002A9C                     
  1212                           ;MCAL_Layer/GPIO/GPIO.c: 132:     {;MCAL_Layer/GPIO/GPIO.c: 133:             gpio_pin_di
      +                          rection_int(pin_cfg);
  1213   002A9C  C00D  F004         	movff	gpio_pin_int@pin_cfg,gpio_pin_direction_int@pin_cfg
  1214   002AA0  C00E  F005         	movff	gpio_pin_int@pin_cfg+1,gpio_pin_direction_int@pin_cfg+1
  1215   002AA4  EC96  F012         	call	_gpio_pin_direction_int	;wreg free
  1216                           
  1217                           ;MCAL_Layer/GPIO/GPIO.c: 134:             gpio_pin_write_level(pin_cfg,pin_cfg->level);
  1218   002AA8  C00D  F004         	movff	gpio_pin_int@pin_cfg,gpio_pin_write_level@pin_cfg
  1219   002AAC  C00E  F005         	movff	gpio_pin_int@pin_cfg+1,gpio_pin_write_level@pin_cfg+1
  1220   002AB0  C00D  FFD9         	movff	gpio_pin_int@pin_cfg,fsr2l
  1221   002AB4  C00E  FFDA         	movff	gpio_pin_int@pin_cfg+1,fsr2h
  1222   002AB8  0E00               	movlw	0
  1223   002ABA  B2DF               	btfsc	indf2,1,c
  1224   002ABC  0E01               	movlw	1
  1225   002ABE  6E06               	movwf	gpio_pin_write_level@level^0,c
  1226   002AC0  ECA5  F013         	call	_gpio_pin_write_level	;wreg free
  1227   002AC4                     l776:
  1228   002AC4  0012               	return		;funcret
  1229   002AC6                     __end_of_gpio_pin_int:
  1230                           	callstack 0
  1231                           
  1232 ;; *************** function _gpio_pin_write_level *****************
  1233 ;; Defined at:
  1234 ;;		line 67 in file "MCAL_Layer/GPIO/GPIO.c"
  1235 ;; Parameters:    Size  Location     Type
  1236 ;;  pin_cfg         2    3[COMRAM] PTR const struct .
  1237 ;;		 -> relay_off@relay_pin(1), relay_on@relay_pin(1), relay_int@relay_pin(1), led_off@pin_cfg(1), 
  1238 ;;		 -> led_on@pin_cfg(1), led_int@pin_cfg(1), 
  1239 ;;  level           1    5[COMRAM] enum E2974
  1240 ;; Auto vars:     Size  Location     Type
  1241 ;;  return_statu    1    0        unsigned char 
  1242 ;; Return value:  Size  Location     Type
  1243 ;;                  1    wreg      unsigned char 
  1244 ;; Registers used:
  1245 ;;		wreg, fsr2l, fsr2h, status,2, status,0, prodl, prodh
  1246 ;; Tracked objects:
  1247 ;;		On entry : 0/0
  1248 ;;		On exit  : 0/0
  1249 ;;		Unchanged: 0/0
  1250 ;; Data sizes:     COMRAM   BANK0   BANK1   BANK2   BANK3   BANK4   BANK5   BANK6   BANK7   BANK8   BANK9  BANK10  BANK1
      +1  BANK12  BANK13  BANK14  BANK15
  1251 ;;      Params:         3       0       0       0       0       0       0       0       0       0       0       0       
      +0       0       0       0       0
  1252 ;;      Locals:         0       0       0       0       0       0       0       0       0       0       0       0       
      +0       0       0       0       0
  1253 ;;      Temps:          6       0       0       0       0       0       0       0       0       0       0       0       
      +0       0       0       0       0
  1254 ;;      Totals:         9       0       0       0       0       0       0       0       0       0       0       0       
      +0       0       0       0       0
  1255 ;;Total ram usage:        9 bytes
  1256 ;; Hardware stack levels used: 1
  1257 ;; Hardware stack levels required when called: 3
  1258 ;; This function calls:
  1259 ;;		Nothing
  1260 ;; This function is called by:
  1261 ;;		_led_on
  1262 ;;		_led_off
  1263 ;;		_gpio_pin_int
  1264 ;;		_chr_lcd_4_send_cmd
  1265 ;;		_chr_lcd_4_send_char
  1266 ;;		_chr_lcd_4_send_char_pos
  1267 ;;		_chr_lcd_8_send_cmd
  1268 ;;		_chr_lcd_8_send_char
  1269 ;;		_chr_lcd_8_send_char_pos
  1270 ;;		_lcd_send_4_bit
  1271 ;;		_lcd_send_4_bit_enable
  1272 ;;		_lcd_send_8_bit_enable
  1273 ;;		_motor_int
  1274 ;;		_motor_right
  1275 ;;		_motor_left
  1276 ;;		_motor_stop
  1277 ;;		_keypad_get_value
  1278 ;;		_relay_int
  1279 ;;		_relay_on
  1280 ;;		_relay_off
  1281 ;;		_seven_segment_int
  1282 ;;		_seven_segment_write_number
  1283 ;; This function uses a non-reentrant model
  1284 ;;
  1285                           
  1286                           	psect	text5
  1287   00274A                     __ptext5:
  1288                           	callstack 0
  1289   00274A                     _gpio_pin_write_level:
  1290                           	callstack 26
  1291   00274A                     
  1292                           ;MCAL_Layer/GPIO/GPIO.c: 71:     if(((void*)0)!=pin_cfg)
  1293   00274A  5004               	movf	gpio_pin_write_level@pin_cfg^0,w,c
  1294   00274C  1005               	iorwf	(gpio_pin_write_level@pin_cfg+1)^0,w,c
  1295   00274E  B4D8               	btfsc	status,2,c
  1296   002750  EFAC  F013         	goto	u4221
  1297   002754  EFAE  F013         	goto	u4220
  1298   002758                     u4221:
  1299   002758  EF24  F014         	goto	l764
  1300   00275C                     u4220:
  1301   00275C  EF0F  F014         	goto	l5300
  1302   002760                     l5292:
  1303                           
  1304                           ;MCAL_Layer/GPIO/GPIO.c: 77:                  (*(Lat_Regs[pin_cfg->port])|=(1<<pin_cfg->
      +                          pin));
  1305   002760  C004  FFD9         	movff	gpio_pin_write_level@pin_cfg,fsr2l
  1306   002764  C005  FFDA         	movff	gpio_pin_write_level@pin_cfg+1,fsr2h
  1307   002768  30DF               	rrcf	223,w,c
  1308   00276A  32E8               	rrcf	wreg,f,c
  1309   00276C  0B07               	andlw	7
  1310   00276E  6E07               	movwf	??_gpio_pin_write_level^0,c
  1311   002770  0E01               	movlw	1
  1312   002772  6E08               	movwf	(??_gpio_pin_write_level+1)^0,c
  1313   002774  2A07               	incf	??_gpio_pin_write_level^0,f,c
  1314   002776  EFBF  F013         	goto	u4234
  1315   00277A                     u4235:
  1316   00277A  90D8               	bcf	status,0,c
  1317   00277C  3608               	rlcf	(??_gpio_pin_write_level+1)^0,f,c
  1318   00277E                     u4234:
  1319   00277E  2E07               	decfsz	??_gpio_pin_write_level^0,f,c
  1320   002780  EFBD  F013         	goto	u4235
  1321   002784  C004  FFD9         	movff	gpio_pin_write_level@pin_cfg,fsr2l
  1322   002788  C005  FFDA         	movff	gpio_pin_write_level@pin_cfg+1,fsr2h
  1323   00278C  38DF               	swapf	223,w,c
  1324   00278E  32E8               	rrcf	wreg,f,c
  1325   002790  0B07               	andlw	7
  1326   002792  6E09               	movwf	(??_gpio_pin_write_level+2)^0,c
  1327   002794  5009               	movf	(??_gpio_pin_write_level+2)^0,w,c
  1328   002796  0D02               	mullw	2
  1329   002798  0ECF               	movlw	low _Lat_Regs
  1330   00279A  24F3               	addwf	243,w,c
  1331   00279C  6ED9               	movwf	fsr2l,c
  1332   00279E  0E00               	movlw	high _Lat_Regs
  1333   0027A0  20F4               	addwfc	prodh,w,c
  1334   0027A2  6EDA               	movwf	fsr2h,c
  1335   0027A4  CFDE F00A          	movff	postinc2,??_gpio_pin_write_level+3
  1336   0027A8  CFDD F00B          	movff	postdec2,??_gpio_pin_write_level+4
  1337   0027AC  C00A  FFD9         	movff	??_gpio_pin_write_level+3,fsr2l
  1338   0027B0  C00B  FFDA         	movff	??_gpio_pin_write_level+4,fsr2h
  1339   0027B4  5008               	movf	(??_gpio_pin_write_level+1)^0,w,c
  1340   0027B6  12DF               	iorwf	indf2,f,c
  1341                           
  1342                           ;MCAL_Layer/GPIO/GPIO.c: 79:                 break;
  1343   0027B8  EF24  F014         	goto	l764
  1344   0027BC                     l5294:
  1345                           
  1346                           ;MCAL_Layer/GPIO/GPIO.c: 82:                 (*Lat_Regs[pin_cfg->port]&=~(1<<pin_cfg->pi
      +                          n));
  1347   0027BC  C004  FFD9         	movff	gpio_pin_write_level@pin_cfg,fsr2l
  1348   0027C0  C005  FFDA         	movff	gpio_pin_write_level@pin_cfg+1,fsr2h
  1349   0027C4  30DF               	rrcf	223,w,c
  1350   0027C6  32E8               	rrcf	wreg,f,c
  1351   0027C8  0B07               	andlw	7
  1352   0027CA  6E07               	movwf	??_gpio_pin_write_level^0,c
  1353   0027CC  0E01               	movlw	1
  1354   0027CE  6E08               	movwf	(??_gpio_pin_write_level+1)^0,c
  1355   0027D0  2A07               	incf	??_gpio_pin_write_level^0,f,c
  1356   0027D2  EFED  F013         	goto	u4244
  1357   0027D6                     u4245:
  1358   0027D6  90D8               	bcf	status,0,c
  1359   0027D8  3608               	rlcf	(??_gpio_pin_write_level+1)^0,f,c
  1360   0027DA                     u4244:
  1361   0027DA  2E07               	decfsz	??_gpio_pin_write_level^0,f,c
  1362   0027DC  EFEB  F013         	goto	u4245
  1363   0027E0  5008               	movf	(??_gpio_pin_write_level+1)^0,w,c
  1364   0027E2  0AFF               	xorlw	255
  1365   0027E4  6E09               	movwf	(??_gpio_pin_write_level+2)^0,c
  1366   0027E6  C004  FFD9         	movff	gpio_pin_write_level@pin_cfg,fsr2l
  1367   0027EA  C005  FFDA         	movff	gpio_pin_write_level@pin_cfg+1,fsr2h
  1368   0027EE  38DF               	swapf	223,w,c
  1369   0027F0  32E8               	rrcf	wreg,f,c
  1370   0027F2  0B07               	andlw	7
  1371   0027F4  6E0A               	movwf	(??_gpio_pin_write_level+3)^0,c
  1372   0027F6  500A               	movf	(??_gpio_pin_write_level+3)^0,w,c
  1373   0027F8  0D02               	mullw	2
  1374   0027FA  0ECF               	movlw	low _Lat_Regs
  1375   0027FC  24F3               	addwf	243,w,c
  1376   0027FE  6ED9               	movwf	fsr2l,c
  1377   002800  0E00               	movlw	high _Lat_Regs
  1378   002802  20F4               	addwfc	prodh,w,c
  1379   002804  6EDA               	movwf	fsr2h,c
  1380   002806  CFDE F00B          	movff	postinc2,??_gpio_pin_write_level+4
  1381   00280A  CFDD F00C          	movff	postdec2,??_gpio_pin_write_level+5
  1382   00280E  C00B  FFD9         	movff	??_gpio_pin_write_level+4,fsr2l
  1383   002812  C00C  FFDA         	movff	??_gpio_pin_write_level+5,fsr2h
  1384   002816  5009               	movf	(??_gpio_pin_write_level+2)^0,w,c
  1385   002818  16DF               	andwf	indf2,f,c
  1386   00281A                     
  1387                           ;MCAL_Layer/GPIO/GPIO.c: 84:                 break;
  1388   00281A  EF24  F014         	goto	l764
  1389   00281E                     l5300:
  1390   00281E  5006               	movf	gpio_pin_write_level@level^0,w,c
  1391   002820  6E07               	movwf	??_gpio_pin_write_level^0,c
  1392   002822  6A08               	clrf	(??_gpio_pin_write_level+1)^0,c
  1393                           
  1394                           ; Switch on 2 bytes has been partitioned into a top level switch of size 1, and 1 sub-sw
      +                          itches
  1395                           ; Switch size 1, requested type "simple"
  1396                           ; Number of cases is 1, Range of values is 0 to 0
  1397                           ; switch strategies available:
  1398                           ; Name         Instructions Cycles
  1399                           ; simple_byte            4     3 (average)
  1400                           ;	Chosen strategy is simple_byte
  1401   002824  5008               	movf	(??_gpio_pin_write_level+1)^0,w,c
  1402   002826  0A00               	xorlw	0	; case 0
  1403   002828  B4D8               	btfsc	status,2,c
  1404   00282A  EF19  F014         	goto	l7860
  1405   00282E  EF24  F014         	goto	l764
  1406   002832                     l7860:
  1407                           
  1408                           ; Switch size 1, requested type "simple"
  1409                           ; Number of cases is 2, Range of values is 0 to 1
  1410                           ; switch strategies available:
  1411                           ; Name         Instructions Cycles
  1412                           ; simple_byte            7     4 (average)
  1413                           ;	Chosen strategy is simple_byte
  1414   002832  5007               	movf	??_gpio_pin_write_level^0,w,c
  1415   002834  0A00               	xorlw	0	; case 0
  1416   002836  B4D8               	btfsc	status,2,c
  1417   002838  EFDE  F013         	goto	l5294
  1418   00283C  0A01               	xorlw	1	; case 1
  1419   00283E  B4D8               	btfsc	status,2,c
  1420   002840  EFB0  F013         	goto	l5292
  1421   002844  EF24  F014         	goto	l764
  1422   002848                     l764:
  1423   002848  0012               	return		;funcret
  1424   00284A                     __end_of_gpio_pin_write_level:
  1425                           	callstack 0
  1426                           
  1427 ;; *************** function _gpio_pin_direction_int *****************
  1428 ;; Defined at:
  1429 ;;		line 14 in file "MCAL_Layer/GPIO/GPIO.c"
  1430 ;; Parameters:    Size  Location     Type
  1431 ;;  pin_cfg         2    3[COMRAM] PTR const struct .
  1432 ;;		 -> relay_int@relay_pin(1), led_int@pin_cfg(1), 
  1433 ;; Auto vars:     Size  Location     Type
  1434 ;;  return_statu    1    0        unsigned char 
  1435 ;; Return value:  Size  Location     Type
  1436 ;;                  1    wreg      unsigned char 
  1437 ;; Registers used:
  1438 ;;		wreg, fsr2l, fsr2h, status,2, status,0, prodl, prodh
  1439 ;; Tracked objects:
  1440 ;;		On entry : 0/0
  1441 ;;		On exit  : 0/0
  1442 ;;		Unchanged: 0/0
  1443 ;; Data sizes:     COMRAM   BANK0   BANK1   BANK2   BANK3   BANK4   BANK5   BANK6   BANK7   BANK8   BANK9  BANK10  BANK1
      +1  BANK12  BANK13  BANK14  BANK15
  1444 ;;      Params:         2       0       0       0       0       0       0       0       0       0       0       0       
      +0       0       0       0       0
  1445 ;;      Locals:         0       0       0       0       0       0       0       0       0       0       0       0       
      +0       0       0       0       0
  1446 ;;      Temps:          6       0       0       0       0       0       0       0       0       0       0       0       
      +0       0       0       0       0
  1447 ;;      Totals:         8       0       0       0       0       0       0       0       0       0       0       0       
      +0       0       0       0       0
  1448 ;;Total ram usage:        8 bytes
  1449 ;; Hardware stack levels used: 1
  1450 ;; Hardware stack levels required when called: 3
  1451 ;; This function calls:
  1452 ;;		Nothing
  1453 ;; This function is called by:
  1454 ;;		_gpio_pin_int
  1455 ;;		_button_int
  1456 ;;		_motor_int
  1457 ;;		_keypad_int
  1458 ;;		_relay_int
  1459 ;;		_seven_segment_int
  1460 ;;		_ccp1_int
  1461 ;;		_ccp2_int
  1462 ;;		_interrupt_rbx_int
  1463 ;;		_interrupt_intx_pin
  1464 ;; This function uses a non-reentrant model
  1465 ;;
  1466                           
  1467                           	psect	text6
  1468   00252C                     __ptext6:
  1469                           	callstack 0
  1470   00252C                     _gpio_pin_direction_int:
  1471                           	callstack 25
  1472   00252C                     
  1473                           ;MCAL_Layer/GPIO/GPIO.c: 17:     if(((void*)0)!=pin_cfg)
  1474   00252C  5004               	movf	gpio_pin_direction_int@pin_cfg^0,w,c
  1475   00252E  1005               	iorwf	(gpio_pin_direction_int@pin_cfg+1)^0,w,c
  1476   002530  B4D8               	btfsc	status,2,c
  1477   002532  EF9D  F012         	goto	u4171
  1478   002536  EF9F  F012         	goto	u4170
  1479   00253A                     u4171:
  1480   00253A  EF21  F013         	goto	l752
  1481   00253E                     u4170:
  1482   00253E  EF00  F013         	goto	l5280
  1483   002542                     l5270:
  1484                           
  1485                           ;MCAL_Layer/GPIO/GPIO.c: 22:                 (*Tris_Regs[pin_cfg->port]&=~(1<<pin_cfg->p
      +                          in));
  1486   002542  C004  FFD9         	movff	gpio_pin_direction_int@pin_cfg,fsr2l
  1487   002546  C005  FFDA         	movff	gpio_pin_direction_int@pin_cfg+1,fsr2h
  1488   00254A  30DF               	rrcf	223,w,c
  1489   00254C  32E8               	rrcf	wreg,f,c
  1490   00254E  0B07               	andlw	7
  1491   002550  6E06               	movwf	??_gpio_pin_direction_int^0,c
  1492   002552  0E01               	movlw	1
  1493   002554  6E07               	movwf	(??_gpio_pin_direction_int+1)^0,c
  1494   002556  2A06               	incf	??_gpio_pin_direction_int^0,f,c
  1495   002558  EFB0  F012         	goto	u4184
  1496   00255C                     u4185:
  1497   00255C  90D8               	bcf	status,0,c
  1498   00255E  3607               	rlcf	(??_gpio_pin_direction_int+1)^0,f,c
  1499   002560                     u4184:
  1500   002560  2E06               	decfsz	??_gpio_pin_direction_int^0,f,c
  1501   002562  EFAE  F012         	goto	u4185
  1502   002566  5007               	movf	(??_gpio_pin_direction_int+1)^0,w,c
  1503   002568  0AFF               	xorlw	255
  1504   00256A  6E08               	movwf	(??_gpio_pin_direction_int+2)^0,c
  1505   00256C  C004  FFD9         	movff	gpio_pin_direction_int@pin_cfg,fsr2l
  1506   002570  C005  FFDA         	movff	gpio_pin_direction_int@pin_cfg+1,fsr2h
  1507   002574  38DF               	swapf	223,w,c
  1508   002576  32E8               	rrcf	wreg,f,c
  1509   002578  0B07               	andlw	7
  1510   00257A  6E09               	movwf	(??_gpio_pin_direction_int+3)^0,c
  1511   00257C  5009               	movf	(??_gpio_pin_direction_int+3)^0,w,c
  1512   00257E  0D02               	mullw	2
  1513   002580  0EC5               	movlw	low _Tris_Regs
  1514   002582  24F3               	addwf	243,w,c
  1515   002584  6ED9               	movwf	fsr2l,c
  1516   002586  0E00               	movlw	high _Tris_Regs
  1517   002588  20F4               	addwfc	prodh,w,c
  1518   00258A  6EDA               	movwf	fsr2h,c
  1519   00258C  CFDE F00A          	movff	postinc2,??_gpio_pin_direction_int+4
  1520   002590  CFDD F00B          	movff	postdec2,??_gpio_pin_direction_int+5
  1521   002594  C00A  FFD9         	movff	??_gpio_pin_direction_int+4,fsr2l
  1522   002598  C00B  FFDA         	movff	??_gpio_pin_direction_int+5,fsr2h
  1523   00259C  5008               	movf	(??_gpio_pin_direction_int+2)^0,w,c
  1524   00259E  16DF               	andwf	indf2,f,c
  1525   0025A0                     l5272:
  1526                           
  1527                           ;MCAL_Layer/GPIO/GPIO.c: 24:                 break;
  1528   0025A0  EF21  F013         	goto	l752
  1529   0025A4                     l5274:
  1530                           
  1531                           ;MCAL_Layer/GPIO/GPIO.c: 27:                 (*Tris_Regs[pin_cfg->port]|=(1<<pin_cfg->pi
      +                          n));
  1532   0025A4  C004  FFD9         	movff	gpio_pin_direction_int@pin_cfg,fsr2l
  1533   0025A8  C005  FFDA         	movff	gpio_pin_direction_int@pin_cfg+1,fsr2h
  1534   0025AC  30DF               	rrcf	223,w,c
  1535   0025AE  32E8               	rrcf	wreg,f,c
  1536   0025B0  0B07               	andlw	7
  1537   0025B2  6E06               	movwf	??_gpio_pin_direction_int^0,c
  1538   0025B4  0E01               	movlw	1
  1539   0025B6  6E07               	movwf	(??_gpio_pin_direction_int+1)^0,c
  1540   0025B8  2A06               	incf	??_gpio_pin_direction_int^0,f,c
  1541   0025BA  EFE1  F012         	goto	u4194
  1542   0025BE                     u4195:
  1543   0025BE  90D8               	bcf	status,0,c
  1544   0025C0  3607               	rlcf	(??_gpio_pin_direction_int+1)^0,f,c
  1545   0025C2                     u4194:
  1546   0025C2  2E06               	decfsz	??_gpio_pin_direction_int^0,f,c
  1547   0025C4  EFDF  F012         	goto	u4195
  1548   0025C8  C004  FFD9         	movff	gpio_pin_direction_int@pin_cfg,fsr2l
  1549   0025CC  C005  FFDA         	movff	gpio_pin_direction_int@pin_cfg+1,fsr2h
  1550   0025D0  38DF               	swapf	223,w,c
  1551   0025D2  32E8               	rrcf	wreg,f,c
  1552   0025D4  0B07               	andlw	7
  1553   0025D6  6E08               	movwf	(??_gpio_pin_direction_int+2)^0,c
  1554   0025D8  5008               	movf	(??_gpio_pin_direction_int+2)^0,w,c
  1555   0025DA  0D02               	mullw	2
  1556   0025DC  0EC5               	movlw	low _Tris_Regs
  1557   0025DE  24F3               	addwf	243,w,c
  1558   0025E0  6ED9               	movwf	fsr2l,c
  1559   0025E2  0E00               	movlw	high _Tris_Regs
  1560   0025E4  20F4               	addwfc	prodh,w,c
  1561   0025E6  6EDA               	movwf	fsr2h,c
  1562   0025E8  CFDE F009          	movff	postinc2,??_gpio_pin_direction_int+3
  1563   0025EC  CFDD F00A          	movff	postdec2,??_gpio_pin_direction_int+4
  1564   0025F0  C009  FFD9         	movff	??_gpio_pin_direction_int+3,fsr2l
  1565   0025F4  C00A  FFDA         	movff	??_gpio_pin_direction_int+4,fsr2h
  1566   0025F8  5007               	movf	(??_gpio_pin_direction_int+1)^0,w,c
  1567   0025FA  12DF               	iorwf	indf2,f,c
  1568   0025FC  EFD0  F012         	goto	l5272
  1569   002600                     l5280:
  1570   002600  C004  FFD9         	movff	gpio_pin_direction_int@pin_cfg,fsr2l
  1571   002604  C005  FFDA         	movff	gpio_pin_direction_int@pin_cfg+1,fsr2h
  1572   002608  B0DF               	btfsc	indf2,0,c
  1573   00260A  EF09  F013         	goto	u4201
  1574   00260E  EF0C  F013         	goto	u4200
  1575   002612                     u4201:
  1576   002612  0E01               	movlw	1
  1577   002614  EF0D  F013         	goto	u4210
  1578   002618                     u4200:
  1579   002618  0E00               	movlw	0
  1580   00261A                     u4210:
  1581   00261A  6E06               	movwf	??_gpio_pin_direction_int^0,c
  1582   00261C  6A07               	clrf	(??_gpio_pin_direction_int+1)^0,c
  1583                           
  1584                           ; Switch on 2 bytes has been partitioned into a top level switch of size 1, and 1 sub-sw
      +                          itches
  1585                           ; Switch size 1, requested type "simple"
  1586                           ; Number of cases is 1, Range of values is 0 to 0
  1587                           ; switch strategies available:
  1588                           ; Name         Instructions Cycles
  1589                           ; simple_byte            4     3 (average)
  1590                           ;	Chosen strategy is simple_byte
  1591   00261E  5007               	movf	(??_gpio_pin_direction_int+1)^0,w,c
  1592   002620  0A00               	xorlw	0	; case 0
  1593   002622  B4D8               	btfsc	status,2,c
  1594   002624  EF16  F013         	goto	l7862
  1595   002628  EF21  F013         	goto	l752
  1596   00262C                     l7862:
  1597                           
  1598                           ; Switch size 1, requested type "simple"
  1599                           ; Number of cases is 2, Range of values is 0 to 1
  1600                           ; switch strategies available:
  1601                           ; Name         Instructions Cycles
  1602                           ; simple_byte            7     4 (average)
  1603                           ;	Chosen strategy is simple_byte
  1604   00262C  5006               	movf	??_gpio_pin_direction_int^0,w,c
  1605   00262E  0A00               	xorlw	0	; case 0
  1606   002630  B4D8               	btfsc	status,2,c
  1607   002632  EFA1  F012         	goto	l5270
  1608   002636  0A01               	xorlw	1	; case 1
  1609   002638  B4D8               	btfsc	status,2,c
  1610   00263A  EFD2  F012         	goto	l5274
  1611   00263E  EF21  F013         	goto	l752
  1612   002642                     l752:
  1613   002642  0012               	return		;funcret
  1614   002644                     __end_of_gpio_pin_direction_int:
  1615                           	callstack 0
  1616                           
  1617 ;; *************** function _i2c_int *****************
  1618 ;; Defined at:
  1619 ;;		line 10 in file "MCAL_Layer/I2C/I2C.c"
  1620 ;; Parameters:    Size  Location     Type
  1621 ;;  ptr             2    0[BANK0 ] PTR const struct .
  1622 ;;		 -> i2c(14), 
  1623 ;; Auto vars:     Size  Location     Type
  1624 ;;  returt_statu    1    0        unsigned char 
  1625 ;; Return value:  Size  Location     Type
  1626 ;;                  1    wreg      unsigned char 
  1627 ;; Registers used:
  1628 ;;		wreg, fsr2l, fsr2h, status,2, status,0, prodl, prodh, cstack
  1629 ;; Tracked objects:
  1630 ;;		On entry : 0/0
  1631 ;;		On exit  : 0/0
  1632 ;;		Unchanged: 0/0
  1633 ;; Data sizes:     COMRAM   BANK0   BANK1   BANK2   BANK3   BANK4   BANK5   BANK6   BANK7   BANK8   BANK9  BANK10  BANK1
      +1  BANK12  BANK13  BANK14  BANK15
  1634 ;;      Params:         0       2       0       0       0       0       0       0       0       0       0       0       
      +0       0       0       0       0
  1635 ;;      Locals:         0       0       0       0       0       0       0       0       0       0       0       0       
      +0       0       0       0       0
  1636 ;;      Temps:          0       2       0       0       0       0       0       0       0       0       0       0       
      +0       0       0       0       0
  1637 ;;      Totals:         0       4       0       0       0       0       0       0       0       0       0       0       
      +0       0       0       0       0
  1638 ;;Total ram usage:        4 bytes
  1639 ;; Hardware stack levels used: 1
  1640 ;; Hardware stack levels required when called: 4
  1641 ;; This function calls:
  1642 ;;		___fladd
  1643 ;;		___fldiv
  1644 ;;		___flmul
  1645 ;;		___fltol
  1646 ;;		___xxtofl
  1647 ;; This function is called by:
  1648 ;;		_main
  1649 ;; This function uses a non-reentrant model
  1650 ;;
  1651                           
  1652                           	psect	text7
  1653   002080                     __ptext7:
  1654                           	callstack 0
  1655   002080                     _i2c_int:
  1656                           	callstack 26
  1657   002080                     
  1658                           ;MCAL_Layer/I2C/I2C.c: 12:     if(((void*)0)!=ptr){
  1659   002080  0100               	movlb	0	; () banked
  1660   002082  51F1               	movf	i2c_int@ptr& (0+255),w,b
  1661   002084  11F2               	iorwf	(i2c_int@ptr+1)& (0+255),w,b
  1662   002086  B4D8               	btfsc	status,2,c
  1663   002088  EF48  F010         	goto	u7491
  1664   00208C  EF4A  F010         	goto	u7490
  1665   002090                     u7491:
  1666   002090  EFBB  F011         	goto	l861
  1667   002094                     u7490:
  1668   002094                     
  1669                           ; BSR set to: 0
  1670                           ;MCAL_Layer/I2C/I2C.c: 14:         (SSPCON1bits.SSPEN=0);
  1671   002094  9AC6               	bcf	198,5,c	;volatile
  1672                           
  1673                           ;MCAL_Layer/I2C/I2C.c: 16:         TRISCbits.RC4=1;
  1674   002096  8894               	bsf	148,4,c	;volatile
  1675                           
  1676                           ;MCAL_Layer/I2C/I2C.c: 17:         TRISCbits.RC3=1;
  1677   002098  8694               	bsf	148,3,c	;volatile
  1678   00209A                     
  1679                           ; BSR set to: 0
  1680                           ;MCAL_Layer/I2C/I2C.c: 20:         if((1)==ptr->i2c_cfg.i2c_mode){
  1681   00209A  EE20 F00B          	lfsr	2,11
  1682   00209E  51F1               	movf	i2c_int@ptr& (0+255),w,b
  1683   0020A0  26D9               	addwf	fsr2l,f,c
  1684   0020A2  51F2               	movf	(i2c_int@ptr+1)& (0+255),w,b
  1685   0020A4  22DA               	addwfc	fsr2h,f,c
  1686   0020A6  A0DF               	btfss	indf2,0,c
  1687   0020A8  EF58  F010         	goto	u7501
  1688   0020AC  EF5A  F010         	goto	u7500
  1689   0020B0                     u7501:
  1690   0020B0  EFE6  F010         	goto	l7706
  1691   0020B4                     u7500:
  1692   0020B4  EFCB  F010         	goto	l7704
  1693   0020B8                     l7696:
  1694                           
  1695                           ; BSR set to: 0
  1696                           ;MCAL_Layer/I2C/I2C.c: 23:                     (SSPCON1bits.SSPM=ptr->i2c_cfg.i2c_sub_mo
      +                          de);
  1697   0020B8  EE20 F00A          	lfsr	2,10
  1698   0020BC  51F1               	movf	i2c_int@ptr& (0+255),w,b
  1699   0020BE  26D9               	addwf	fsr2l,f,c
  1700   0020C0  51F2               	movf	(i2c_int@ptr+1)& (0+255),w,b
  1701   0020C2  22DA               	addwfc	fsr2h,f,c
  1702   0020C4  50DF               	movf	indf2,w,c
  1703   0020C6  6FF3               	movwf	??_i2c_int& (0+255),b
  1704   0020C8  50C6               	movf	198,w,c	;volatile
  1705   0020CA  19F3               	xorwf	??_i2c_int& (0+255),w,b
  1706   0020CC  0BF0               	andlw	-16
  1707   0020CE  19F3               	xorwf	??_i2c_int& (0+255),w,b
  1708   0020D0  6EC6               	movwf	198,c	;volatile
  1709   0020D2                     
  1710                           ; BSR set to: 0
  1711                           ;MCAL_Layer/I2C/I2C.c: 24:                     SSPADD=(uint8)((8000000UL/(4.0*ptr->i2c_c
      +                          lock))-1);
  1712   0020D2  0E00               	movlw	0
  1713   0020D4  6E48               	movwf	___fladd@a^0,c
  1714   0020D6  0E00               	movlw	0
  1715   0020D8  6E49               	movwf	(___fladd@a+1)^0,c
  1716   0020DA  0E80               	movlw	128
  1717   0020DC  6E4A               	movwf	(___fladd@a+2)^0,c
  1718   0020DE  0EBF               	movlw	191
  1719   0020E0  6E4B               	movwf	(___fladd@a+3)^0,c
  1720   0020E2  0E00               	movlw	0
  1721   0020E4  6E16               	movwf	___flmul@a^0,c
  1722   0020E6  0E00               	movlw	0
  1723   0020E8  6E17               	movwf	(___flmul@a+1)^0,c
  1724   0020EA  0E80               	movlw	128
  1725   0020EC  6E18               	movwf	(___flmul@a+2)^0,c
  1726   0020EE  0E40               	movlw	64
  1727   0020F0  6E19               	movwf	(___flmul@a+3)^0,c
  1728   0020F2  C0F1  FFD9         	movff	i2c_int@ptr,fsr2l
  1729   0020F6  C0F2  FFDA         	movff	i2c_int@ptr+1,fsr2h
  1730   0020FA  CFDE F004          	movff	postinc2,___xxtofl@val
  1731   0020FE  CFDE F005          	movff	postinc2,___xxtofl@val+1
  1732   002102  CFDE F006          	movff	postinc2,___xxtofl@val+2
  1733   002106  CFDE F007          	movff	postinc2,___xxtofl@val+3
  1734   00210A  0E00               	movlw	0
  1735   00210C  ECBC  F011         	call	___xxtofl
  1736   002110  C004  F012         	movff	?___xxtofl,___flmul@b
  1737   002114  C005  F013         	movff	?___xxtofl+1,___flmul@b+1
  1738   002118  C006  F014         	movff	?___xxtofl+2,___flmul@b+2
  1739   00211C  C007  F015         	movff	?___xxtofl+3,___flmul@b+3
  1740   002120  EC63  F00A         	call	___flmul	;wreg free
  1741   002124  C012  F02F         	movff	?___flmul,___fldiv@a
  1742   002128  C013  F030         	movff	?___flmul+1,___fldiv@a+1
  1743   00212C  C014  F031         	movff	?___flmul+2,___fldiv@a+2
  1744   002130  C015  F032         	movff	?___flmul+3,___fldiv@a+3
  1745   002134  0E00               	movlw	0
  1746   002136  6E2B               	movwf	___fldiv@b^0,c
  1747   002138  0E24               	movlw	36
  1748   00213A  6E2C               	movwf	(___fldiv@b+1)^0,c
  1749   00213C  0EF4               	movlw	244
  1750   00213E  6E2D               	movwf	(___fldiv@b+2)^0,c
  1751   002140  0E4A               	movlw	74
  1752   002142  6E2E               	movwf	(___fldiv@b+3)^0,c
  1753   002144  EC73  F00E         	call	___fldiv	;wreg free
  1754   002148  C02B  F044         	movff	?___fldiv,___fladd@b
  1755   00214C  C02C  F045         	movff	?___fldiv+1,___fladd@b+1
  1756   002150  C02D  F046         	movff	?___fldiv+2,___fladd@b+2
  1757   002154  C02E  F047         	movff	?___fldiv+3,___fladd@b+3
  1758   002158  EC03  F008         	call	___fladd	;wreg free
  1759   00215C  C044  F054         	movff	?___fladd,___fltol@f1
  1760   002160  C045  F055         	movff	?___fladd+1,___fltol@f1+1
  1761   002164  C046  F056         	movff	?___fladd+2,___fltol@f1+2
  1762   002168  C047  F057         	movff	?___fladd+3,___fltol@f1+3
  1763   00216C  EC22  F013         	call	___fltol	;wreg free
  1764   002170  5054               	movf	?___fltol^0,w,c
  1765   002172  6EC8               	movwf	200,c	;volatile
  1766                           
  1767                           ;MCAL_Layer/I2C/I2C.c: 25:                     break;
  1768   002174  EF59  F011         	goto	l7730
  1769   002178                     l7700:
  1770                           
  1771                           ; BSR set to: 0
  1772                           ;MCAL_Layer/I2C/I2C.c: 27:                     (SSPCON1bits.SSPM=ptr->i2c_cfg.i2c_sub_mo
      +                          de);
  1773   002178  EE20 F00A          	lfsr	2,10
  1774   00217C  51F1               	movf	i2c_int@ptr& (0+255),w,b
  1775   00217E  26D9               	addwf	fsr2l,f,c
  1776   002180  51F2               	movf	(i2c_int@ptr+1)& (0+255),w,b
  1777   002182  22DA               	addwfc	fsr2h,f,c
  1778   002184  50DF               	movf	indf2,w,c
  1779   002186  6FF3               	movwf	??_i2c_int& (0+255),b
  1780   002188  50C6               	movf	198,w,c	;volatile
  1781   00218A  19F3               	xorwf	??_i2c_int& (0+255),w,b
  1782   00218C  0BF0               	andlw	-16
  1783   00218E  19F3               	xorwf	??_i2c_int& (0+255),w,b
  1784   002190  6EC6               	movwf	198,c	;volatile
  1785                           
  1786                           ;MCAL_Layer/I2C/I2C.c: 28:                     break;
  1787   002192  EF59  F011         	goto	l7730
  1788   002196                     l7704:
  1789                           
  1790                           ; BSR set to: 0
  1791   002196  EE20 F00A          	lfsr	2,10
  1792   00219A  51F1               	movf	i2c_int@ptr& (0+255),w,b
  1793   00219C  26D9               	addwf	fsr2l,f,c
  1794   00219E  51F2               	movf	(i2c_int@ptr+1)& (0+255),w,b
  1795   0021A0  22DA               	addwfc	fsr2h,f,c
  1796   0021A2  50DF               	movf	indf2,w,c
  1797   0021A4  6FF3               	movwf	??_i2c_int& (0+255),b
  1798   0021A6  6BF4               	clrf	(??_i2c_int+1)& (0+255),b
  1799                           
  1800                           ; Switch on 2 bytes has been partitioned into a top level switch of size 1, and 1 sub-sw
      +                          itches
  1801                           ; Switch size 1, requested type "simple"
  1802                           ; Number of cases is 1, Range of values is 0 to 0
  1803                           ; switch strategies available:
  1804                           ; Name         Instructions Cycles
  1805                           ; simple_byte            4     3 (average)
  1806                           ;	Chosen strategy is simple_byte
  1807   0021A8  51F4               	movf	(??_i2c_int+1)& (0+255),w,b
  1808   0021AA  0A00               	xorlw	0	; case 0
  1809   0021AC  B4D8               	btfsc	status,2,c
  1810   0021AE  EFDB  F010         	goto	l7864
  1811   0021B2  EF59  F011         	goto	l7730
  1812   0021B6                     l7864:
  1813                           
  1814                           ; BSR set to: 0
  1815                           ; Switch size 1, requested type "simple"
  1816                           ; Number of cases is 2, Range of values is 8 to 11
  1817                           ; switch strategies available:
  1818                           ; Name         Instructions Cycles
  1819                           ; simple_byte            7     4 (average)
  1820                           ;	Chosen strategy is simple_byte
  1821   0021B6  51F3               	movf	??_i2c_int& (0+255),w,b
  1822   0021B8  0A08               	xorlw	8	; case 8
  1823   0021BA  B4D8               	btfsc	status,2,c
  1824   0021BC  EF5C  F010         	goto	l7696
  1825   0021C0  0A03               	xorlw	3	; case 11
  1826   0021C2  B4D8               	btfsc	status,2,c
  1827   0021C4  EFBC  F010         	goto	l7700
  1828   0021C8  EF59  F011         	goto	l7730
  1829   0021CC                     l7706:
  1830                           
  1831                           ; BSR set to: 0
  1832   0021CC  EE20 F00B          	lfsr	2,11
  1833   0021D0  51F1               	movf	i2c_int@ptr& (0+255),w,b
  1834   0021D2  26D9               	addwf	fsr2l,f,c
  1835   0021D4  51F2               	movf	(i2c_int@ptr+1)& (0+255),w,b
  1836   0021D6  22DA               	addwfc	fsr2h,f,c
  1837   0021D8  B0DF               	btfsc	indf2,0,c
  1838   0021DA  EFF1  F010         	goto	u7511
  1839   0021DE  EFF3  F010         	goto	u7510
  1840   0021E2                     u7511:
  1841   0021E2  EF59  F011         	goto	l7730
  1842   0021E6                     u7510:
  1843   0021E6                     
  1844                           ; BSR set to: 0
  1845                           ;MCAL_Layer/I2C/I2C.c: 39:             if((1) == ptr->i2c_cfg.i2c_general_call){
  1846   0021E6  EE20 F00D          	lfsr	2,13
  1847   0021EA  51F1               	movf	i2c_int@ptr& (0+255),w,b
  1848   0021EC  26D9               	addwf	fsr2l,f,c
  1849   0021EE  51F2               	movf	(i2c_int@ptr+1)& (0+255),w,b
  1850   0021F0  22DA               	addwfc	fsr2h,f,c
  1851   0021F2  A4DF               	btfss	indf2,2,c
  1852   0021F4  EFFE  F010         	goto	u7521
  1853   0021F8  EF00  F011         	goto	u7520
  1854   0021FC                     u7521:
  1855   0021FC  EF03  F011         	goto	l7712
  1856   002200                     u7520:
  1857   002200                     
  1858                           ; BSR set to: 0
  1859                           ;MCAL_Layer/I2C/I2C.c: 40:                 (SSPCON2bits.GCEN=1);
  1860   002200  8EC5               	bsf	197,7,c	;volatile
  1861                           
  1862                           ;MCAL_Layer/I2C/I2C.c: 41:             }
  1863   002202  EF33  F011         	goto	l7726
  1864   002206                     l7712:
  1865                           
  1866                           ; BSR set to: 0
  1867   002206  EE20 F00D          	lfsr	2,13
  1868   00220A  51F1               	movf	i2c_int@ptr& (0+255),w,b
  1869   00220C  26D9               	addwf	fsr2l,f,c
  1870   00220E  51F2               	movf	(i2c_int@ptr+1)& (0+255),w,b
  1871   002210  22DA               	addwfc	fsr2h,f,c
  1872   002212  B4DF               	btfsc	indf2,2,c
  1873   002214  EF0E  F011         	goto	u7531
  1874   002218  EF10  F011         	goto	u7530
  1875   00221C                     u7531:
  1876   00221C  EF13  F011         	goto	l842
  1877   002220                     u7530:
  1878   002220                     
  1879                           ; BSR set to: 0
  1880                           ;MCAL_Layer/I2C/I2C.c: 43:                 (SSPCON2bits.GCEN=0);
  1881   002220  9EC5               	bcf	197,7,c	;volatile
  1882                           
  1883                           ;MCAL_Layer/I2C/I2C.c: 44:             }
  1884   002222  EF33  F011         	goto	l7726
  1885   002226                     l842:
  1886                           
  1887                           ; BSR set to: 0
  1888                           ;MCAL_Layer/I2C/I2C.c: 49:             switch(ptr->i2c_cfg.i2c_sub_mode){
  1889   002226  EF33  F011         	goto	l7726
  1890   00222A                     l7716:
  1891                           
  1892                           ; BSR set to: 0
  1893                           ;MCAL_Layer/I2C/I2C.c: 51:                         (SSPCON1bits.SSPM=ptr->i2c_cfg.i2c_su
      +                          b_mode);
  1894   00222A  EE20 F00A          	lfsr	2,10
  1895   00222E  51F1               	movf	i2c_int@ptr& (0+255),w,b
  1896   002230  26D9               	addwf	fsr2l,f,c
  1897   002232  51F2               	movf	(i2c_int@ptr+1)& (0+255),w,b
  1898   002234  22DA               	addwfc	fsr2h,f,c
  1899   002236  50DF               	movf	indf2,w,c
  1900   002238  6FF3               	movwf	??_i2c_int& (0+255),b
  1901   00223A  50C6               	movf	198,w,c	;volatile
  1902   00223C  19F3               	xorwf	??_i2c_int& (0+255),w,b
  1903   00223E  0BF0               	andlw	-16
  1904   002240  19F3               	xorwf	??_i2c_int& (0+255),w,b
  1905   002242  6EC6               	movwf	198,c	;volatile
  1906                           
  1907                           ;MCAL_Layer/I2C/I2C.c: 52:                         break;
  1908   002244  EF4E  F011         	goto	l847
  1909   002248                     l7720:
  1910                           
  1911                           ; BSR set to: 0
  1912                           ;MCAL_Layer/I2C/I2C.c: 57:                         (SSPCON1bits.SSPM=ptr->i2c_cfg.i2c_su
      +                          b_mode);
  1913   002248  EE20 F00A          	lfsr	2,10
  1914   00224C  51F1               	movf	i2c_int@ptr& (0+255),w,b
  1915   00224E  26D9               	addwf	fsr2l,f,c
  1916   002250  51F2               	movf	(i2c_int@ptr+1)& (0+255),w,b
  1917   002252  22DA               	addwfc	fsr2h,f,c
  1918   002254  50DF               	movf	indf2,w,c
  1919   002256  6FF3               	movwf	??_i2c_int& (0+255),b
  1920   002258  50C6               	movf	198,w,c	;volatile
  1921   00225A  19F3               	xorwf	??_i2c_int& (0+255),w,b
  1922   00225C  0BF0               	andlw	-16
  1923   00225E  19F3               	xorwf	??_i2c_int& (0+255),w,b
  1924   002260  6EC6               	movwf	198,c	;volatile
  1925                           
  1926                           ;MCAL_Layer/I2C/I2C.c: 58:                         break;
  1927   002262  EF4E  F011         	goto	l847
  1928   002266                     l7726:
  1929                           
  1930                           ; BSR set to: 0
  1931   002266  EE20 F00A          	lfsr	2,10
  1932   00226A  51F1               	movf	i2c_int@ptr& (0+255),w,b
  1933   00226C  26D9               	addwf	fsr2l,f,c
  1934   00226E  51F2               	movf	(i2c_int@ptr+1)& (0+255),w,b
  1935   002270  22DA               	addwfc	fsr2h,f,c
  1936   002272  50DF               	movf	indf2,w,c
  1937   002274  6FF3               	movwf	??_i2c_int& (0+255),b
  1938   002276  6BF4               	clrf	(??_i2c_int+1)& (0+255),b
  1939                           
  1940                           ; Switch on 2 bytes has been partitioned into a top level switch of size 1, and 1 sub-sw
      +                          itches
  1941                           ; Switch size 1, requested type "simple"
  1942                           ; Number of cases is 1, Range of values is 0 to 0
  1943                           ; switch strategies available:
  1944                           ; Name         Instructions Cycles
  1945                           ; simple_byte            4     3 (average)
  1946                           ;	Chosen strategy is simple_byte
  1947   002278  51F4               	movf	(??_i2c_int+1)& (0+255),w,b
  1948   00227A  0A00               	xorlw	0	; case 0
  1949   00227C  B4D8               	btfsc	status,2,c
  1950   00227E  EF43  F011         	goto	l7866
  1951   002282  EF4E  F011         	goto	l847
  1952   002286                     l7866:
  1953                           
  1954                           ; BSR set to: 0
  1955                           ; Switch size 1, requested type "simple"
  1956                           ; Number of cases is 2, Range of values is 6 to 14
  1957                           ; switch strategies available:
  1958                           ; Name         Instructions Cycles
  1959                           ; simple_byte            7     4 (average)
  1960                           ;	Chosen strategy is simple_byte
  1961   002286  51F3               	movf	??_i2c_int& (0+255),w,b
  1962   002288  0A06               	xorlw	6	; case 6
  1963   00228A  B4D8               	btfsc	status,2,c
  1964   00228C  EF15  F011         	goto	l7716
  1965   002290  0A08               	xorlw	8	; case 14
  1966   002292  B4D8               	btfsc	status,2,c
  1967   002294  EF24  F011         	goto	l7720
  1968   002298  EF4E  F011         	goto	l847
  1969   00229C                     l847:
  1970                           
  1971                           ; BSR set to: 0
  1972                           ;MCAL_Layer/I2C/I2C.c: 67:             (SSPCON1bits.WCOL=0);
  1973   00229C  9EC6               	bcf	198,7,c	;volatile
  1974                           
  1975                           ;MCAL_Layer/I2C/I2C.c: 69:             (SSPCON1bits.SSPOV=0);
  1976   00229E  9CC6               	bcf	198,6,c	;volatile
  1977                           
  1978                           ;MCAL_Layer/I2C/I2C.c: 71:             (SSPCON1bits.CKP=1);
  1979   0022A0  88C6               	bsf	198,4,c	;volatile
  1980   0022A2                     
  1981                           ; BSR set to: 0
  1982                           ;MCAL_Layer/I2C/I2C.c: 73:             SSPADD=ptr->i2c_cfg.i2c_slave_address;
  1983   0022A2  EE20 F00C          	lfsr	2,12
  1984   0022A6  51F1               	movf	i2c_int@ptr& (0+255),w,b
  1985   0022A8  26D9               	addwf	fsr2l,f,c
  1986   0022AA  51F2               	movf	(i2c_int@ptr+1)& (0+255),w,b
  1987   0022AC  22DA               	addwfc	fsr2h,f,c
  1988   0022AE  50DF               	movf	indf2,w,c
  1989   0022B0  6EC8               	movwf	200,c	;volatile
  1990   0022B2                     l7730:
  1991                           
  1992                           ;MCAL_Layer/I2C/I2C.c: 80:         if((0) == ptr->i2c_cfg.i2c_speed_mode){
  1993   0022B2  0100               	movlb	0	; () banked
  1994   0022B4  EE20 F00D          	lfsr	2,13
  1995   0022B8  51F1               	movf	i2c_int@ptr& (0+255),w,b
  1996   0022BA  26D9               	addwf	fsr2l,f,c
  1997   0022BC  51F2               	movf	(i2c_int@ptr+1)& (0+255),w,b
  1998   0022BE  22DA               	addwfc	fsr2h,f,c
  1999   0022C0  B0DF               	btfsc	indf2,0,c
  2000   0022C2  EF65  F011         	goto	u7541
  2001   0022C6  EF67  F011         	goto	u7540
  2002   0022CA                     u7541:
  2003   0022CA  EF6A  F011         	goto	l7734
  2004   0022CE                     u7540:
  2005   0022CE                     
  2006                           ; BSR set to: 0
  2007                           ;MCAL_Layer/I2C/I2C.c: 81:             (SSPSTATbits.SMP=0);
  2008   0022CE  9EC7               	bcf	199,7,c	;volatile
  2009                           
  2010                           ;MCAL_Layer/I2C/I2C.c: 82:         }
  2011   0022D0  EF78  F011         	goto	l7738
  2012   0022D4                     l7734:
  2013                           
  2014                           ; BSR set to: 0
  2015   0022D4  EE20 F00D          	lfsr	2,13
  2016   0022D8  51F1               	movf	i2c_int@ptr& (0+255),w,b
  2017   0022DA  26D9               	addwf	fsr2l,f,c
  2018   0022DC  51F2               	movf	(i2c_int@ptr+1)& (0+255),w,b
  2019   0022DE  22DA               	addwfc	fsr2h,f,c
  2020   0022E0  A0DF               	btfss	indf2,0,c
  2021   0022E2  EF75  F011         	goto	u7551
  2022   0022E6  EF77  F011         	goto	u7550
  2023   0022EA                     u7551:
  2024   0022EA  EF78  F011         	goto	l7738
  2025   0022EE                     u7550:
  2026   0022EE                     
  2027                           ; BSR set to: 0
  2028                           ;MCAL_Layer/I2C/I2C.c: 84:             (SSPSTATbits.SMP=1);
  2029   0022EE  8EC7               	bsf	199,7,c	;volatile
  2030   0022F0                     l7738:
  2031                           
  2032                           ; BSR set to: 0
  2033                           ;MCAL_Layer/I2C/I2C.c: 91:         if((1) == ptr->i2c_cfg.i2c_speed_mode){
  2034   0022F0  EE20 F00D          	lfsr	2,13
  2035   0022F4  51F1               	movf	i2c_int@ptr& (0+255),w,b
  2036   0022F6  26D9               	addwf	fsr2l,f,c
  2037   0022F8  51F2               	movf	(i2c_int@ptr+1)& (0+255),w,b
  2038   0022FA  22DA               	addwfc	fsr2h,f,c
  2039   0022FC  A0DF               	btfss	indf2,0,c
  2040   0022FE  EF83  F011         	goto	u7561
  2041   002302  EF85  F011         	goto	u7560
  2042   002306                     u7561:
  2043   002306  EF88  F011         	goto	l7742
  2044   00230A                     u7560:
  2045   00230A                     
  2046                           ; BSR set to: 0
  2047                           ;MCAL_Layer/I2C/I2C.c: 92:             (SSPSTATbits.CKE=1);
  2048   00230A  8CC7               	bsf	199,6,c	;volatile
  2049                           
  2050                           ;MCAL_Layer/I2C/I2C.c: 93:         }
  2051   00230C  EF96  F011         	goto	l858
  2052   002310                     l7742:
  2053                           
  2054                           ; BSR set to: 0
  2055   002310  EE20 F00D          	lfsr	2,13
  2056   002314  51F1               	movf	i2c_int@ptr& (0+255),w,b
  2057   002316  26D9               	addwf	fsr2l,f,c
  2058   002318  51F2               	movf	(i2c_int@ptr+1)& (0+255),w,b
  2059   00231A  22DA               	addwfc	fsr2h,f,c
  2060   00231C  B0DF               	btfsc	indf2,0,c
  2061   00231E  EF93  F011         	goto	u7571
  2062   002322  EF95  F011         	goto	u7570
  2063   002326                     u7571:
  2064   002326  EF96  F011         	goto	l858
  2065   00232A                     u7570:
  2066   00232A                     
  2067                           ; BSR set to: 0
  2068                           ;MCAL_Layer/I2C/I2C.c: 95:             (SSPSTATbits.CKE=0);
  2069   00232A  9CC7               	bcf	199,6,c	;volatile
  2070   00232C                     l858:
  2071                           
  2072                           ; BSR set to: 0
  2073                           ;MCAL_Layer/I2C/I2C.c: 106:         (PIE1bits.SSPIE=0);
  2074   00232C  969D               	bcf	157,3,c	;volatile
  2075                           
  2076                           ;MCAL_Layer/I2C/I2C.c: 107:         (PIR1bits.SSPIF=0);
  2077   00232E  969E               	bcf	158,3,c	;volatile
  2078   002330                     
  2079                           ; BSR set to: 0
  2080                           ;MCAL_Layer/I2C/I2C.c: 108:         i2c_callback_ptr=ptr->default_ptr;
  2081   002330  EE20 F008          	lfsr	2,8
  2082   002334  51F1               	movf	i2c_int@ptr& (0+255),w,b
  2083   002336  26D9               	addwf	fsr2l,f,c
  2084   002338  51F2               	movf	(i2c_int@ptr+1)& (0+255),w,b
  2085   00233A  22DA               	addwfc	fsr2h,f,c
  2086   00233C  CFDE F064          	movff	postinc2,_i2c_callback_ptr
  2087   002340  CFDD F065          	movff	postdec2,_i2c_callback_ptr+1
  2088                           
  2089                           ;MCAL_Layer/I2C/I2C.c: 109:         recive_overflow_callback_ptr=ptr->recive_overflow_pt
      +                          r;
  2090   002344  EE20 F006          	lfsr	2,6
  2091   002348  51F1               	movf	i2c_int@ptr& (0+255),w,b
  2092   00234A  26D9               	addwf	fsr2l,f,c
  2093   00234C  51F2               	movf	(i2c_int@ptr+1)& (0+255),w,b
  2094   00234E  22DA               	addwfc	fsr2h,f,c
  2095   002350  CFDE F0B5          	movff	postinc2,_recive_overflow_callback_ptr
  2096   002354  CFDD F0B6          	movff	postdec2,_recive_overflow_callback_ptr+1
  2097                           
  2098                           ;MCAL_Layer/I2C/I2C.c: 110:         write_collision_callback_ptr=ptr->write_collision_pt
      +                          r;
  2099   002358  EE20 F004          	lfsr	2,4
  2100   00235C  51F1               	movf	i2c_int@ptr& (0+255),w,b
  2101   00235E  26D9               	addwf	fsr2l,f,c
  2102   002360  51F2               	movf	(i2c_int@ptr+1)& (0+255),w,b
  2103   002362  22DA               	addwfc	fsr2h,f,c
  2104   002364  CFDE F0B3          	movff	postinc2,_write_collision_callback_ptr
  2105   002368  CFDD F0B4          	movff	postdec2,_write_collision_callback_ptr+1
  2106   00236C                     
  2107                           ; BSR set to: 0
  2108                           ;MCAL_Layer/I2C/I2C.c: 129:         (INTCONbits.GIE=1);
  2109   00236C  8EF2               	bsf	242,7,c	;volatile
  2110   00236E                     
  2111                           ; BSR set to: 0
  2112                           ;MCAL_Layer/I2C/I2C.c: 130:         (INTCONbits.PEIE=1);
  2113   00236E  8CF2               	bsf	242,6,c	;volatile
  2114   002370                     
  2115                           ; BSR set to: 0
  2116                           ;MCAL_Layer/I2C/I2C.c: 132:         (PIE1bits.SSPIE=1);
  2117   002370  869D               	bsf	157,3,c	;volatile
  2118   002372                     
  2119                           ; BSR set to: 0
  2120                           ;MCAL_Layer/I2C/I2C.c: 133:         (PIE2bits.BCLIE=1);
  2121   002372  86A0               	bsf	160,3,c	;volatile
  2122   002374                     
  2123                           ; BSR set to: 0
  2124                           ;MCAL_Layer/I2C/I2C.c: 136:         (SSPCON1bits.SSPEN=1);
  2125   002374  8AC6               	bsf	198,5,c	;volatile
  2126   002376                     l861:
  2127                           
  2128                           ; BSR set to: 0
  2129   002376  0012               	return		;funcret
  2130   002378                     __end_of_i2c_int:
  2131                           	callstack 0
  2132                           
  2133 ;; *************** function ___xxtofl *****************
  2134 ;; Defined at:
  2135 ;;		line 10 in file "E:\Program Files\Microchip\xc8\v2.41\pic\sources\c99\common\xxtofl.c"
  2136 ;; Parameters:    Size  Location     Type
  2137 ;;  sign            1    wreg     unsigned char 
  2138 ;;  val             4    3[COMRAM] long 
  2139 ;; Auto vars:     Size  Location     Type
  2140 ;;  sign            1   11[COMRAM] unsigned char 
  2141 ;;  arg             4   13[COMRAM] unsigned long 
  2142 ;;  exp             1   12[COMRAM] unsigned char 
  2143 ;; Return value:  Size  Location     Type
  2144 ;;                  4    3[COMRAM] unsigned char 
  2145 ;; Registers used:
  2146 ;;		wreg, status,2, status,0
  2147 ;; Tracked objects:
  2148 ;;		On entry : 0/0
  2149 ;;		On exit  : 0/0
  2150 ;;		Unchanged: 0/0
  2151 ;; Data sizes:     COMRAM   BANK0   BANK1   BANK2   BANK3   BANK4   BANK5   BANK6   BANK7   BANK8   BANK9  BANK10  BANK1
      +1  BANK12  BANK13  BANK14  BANK15
  2152 ;;      Params:         4       0       0       0       0       0       0       0       0       0       0       0       
      +0       0       0       0       0
  2153 ;;      Locals:         6       0       0       0       0       0       0       0       0       0       0       0       
      +0       0       0       0       0
  2154 ;;      Temps:          4       0       0       0       0       0       0       0       0       0       0       0       
      +0       0       0       0       0
  2155 ;;      Totals:        14       0       0       0       0       0       0       0       0       0       0       0       
      +0       0       0       0       0
  2156 ;;Total ram usage:       14 bytes
  2157 ;; Hardware stack levels used: 1
  2158 ;; Hardware stack levels required when called: 3
  2159 ;; This function calls:
  2160 ;;		Nothing
  2161 ;; This function is called by:
  2162 ;;		_i2c_int
  2163 ;;		_ccp2_int
  2164 ;;		_ccp2_pwm_set_duty
  2165 ;;		_buadrate_calculation
  2166 ;; This function uses a non-reentrant model
  2167 ;;
  2168                           
  2169                           	psect	text8
  2170   002378                     __ptext8:
  2171                           	callstack 0
  2172   002378                     ___xxtofl:
  2173                           	callstack 26
  2174                           
  2175                           ; BSR set to: 0
  2176                           ;incstack = 0
  2177                           ;___xxtofl@sign stored from wreg
  2178   002378  6E0C               	movwf	___xxtofl@sign^0,c
  2179   00237A  500C               	movf	___xxtofl@sign^0,w,c
  2180   00237C  B4D8               	btfsc	status,2,c
  2181   00237E  EFC3  F011         	goto	u5191
  2182   002382  EFC5  F011         	goto	u5190
  2183   002386                     u5191:
  2184   002386  EFE7  F011         	goto	l2097
  2185   00238A                     u5190:
  2186   00238A  BE07               	btfsc	(___xxtofl@val+3)^0,7,c
  2187   00238C  EFCC  F011         	goto	u5200
  2188   002390  EFCA  F011         	goto	u5201
  2189   002394                     u5201:
  2190   002394  EFE7  F011         	goto	l2097
  2191   002398                     u5200:
  2192   002398  C004  F008         	movff	___xxtofl@val,??___xxtofl
  2193   00239C  C005  F009         	movff	___xxtofl@val+1,??___xxtofl+1
  2194   0023A0  C006  F00A         	movff	___xxtofl@val+2,??___xxtofl+2
  2195   0023A4  C007  F00B         	movff	___xxtofl@val+3,??___xxtofl+3
  2196   0023A8  1E08               	comf	??___xxtofl^0,f,c
  2197   0023AA  1E09               	comf	(??___xxtofl+1)^0,f,c
  2198   0023AC  1E0A               	comf	(??___xxtofl+2)^0,f,c
  2199   0023AE  1E0B               	comf	(??___xxtofl+3)^0,f,c
  2200   0023B0  2A08               	incf	??___xxtofl^0,f,c
  2201   0023B2  0E00               	movlw	0
  2202   0023B4  2209               	addwfc	(??___xxtofl+1)^0,f,c
  2203   0023B6  220A               	addwfc	(??___xxtofl+2)^0,f,c
  2204   0023B8  220B               	addwfc	(??___xxtofl+3)^0,f,c
  2205   0023BA  C008  F00E         	movff	??___xxtofl,___xxtofl@arg
  2206   0023BE  C009  F00F         	movff	??___xxtofl+1,___xxtofl@arg+1
  2207   0023C2  C00A  F010         	movff	??___xxtofl+2,___xxtofl@arg+2
  2208   0023C6  C00B  F011         	movff	??___xxtofl+3,___xxtofl@arg+3
  2209   0023CA  EFEF  F011         	goto	l5864
  2210   0023CE                     l2097:
  2211   0023CE  C004  F00E         	movff	___xxtofl@val,___xxtofl@arg
  2212   0023D2  C005  F00F         	movff	___xxtofl@val+1,___xxtofl@arg+1
  2213   0023D6  C006  F010         	movff	___xxtofl@val+2,___xxtofl@arg+2
  2214   0023DA  C007  F011         	movff	___xxtofl@val+3,___xxtofl@arg+3
  2215   0023DE                     l5864:
  2216   0023DE  5004               	movf	___xxtofl@val^0,w,c
  2217   0023E0  1005               	iorwf	(___xxtofl@val+1)^0,w,c
  2218   0023E2  1006               	iorwf	(___xxtofl@val+2)^0,w,c
  2219   0023E4  1007               	iorwf	(___xxtofl@val+3)^0,w,c
  2220   0023E6  A4D8               	btfss	status,2,c
  2221   0023E8  EFF8  F011         	goto	u5211
  2222   0023EC  EFFA  F011         	goto	u5210
  2223   0023F0                     u5211:
  2224   0023F0  EF04  F012         	goto	l5870
  2225   0023F4                     u5210:
  2226   0023F4  0E00               	movlw	0
  2227   0023F6  6E04               	movwf	?___xxtofl^0,c
  2228   0023F8  0E00               	movlw	0
  2229   0023FA  6E05               	movwf	(?___xxtofl+1)^0,c
  2230   0023FC  0E00               	movlw	0
  2231   0023FE  6E06               	movwf	(?___xxtofl+2)^0,c
  2232   002400  0E00               	movlw	0
  2233   002402  6E07               	movwf	(?___xxtofl+3)^0,c
  2234   002404  EF95  F012         	goto	l2100
  2235   002408                     l5870:
  2236   002408  0E96               	movlw	150
  2237   00240A  6E0D               	movwf	___xxtofl@exp^0,c
  2238   00240C  EF0E  F012         	goto	l5874
  2239   002410                     l5872:
  2240   002410  2A0D               	incf	___xxtofl@exp^0,f,c
  2241   002412  90D8               	bcf	status,0,c
  2242   002414  3211               	rrcf	(___xxtofl@arg+3)^0,f,c
  2243   002416  3210               	rrcf	(___xxtofl@arg+2)^0,f,c
  2244   002418  320F               	rrcf	(___xxtofl@arg+1)^0,f,c
  2245   00241A  320E               	rrcf	___xxtofl@arg^0,f,c
  2246   00241C                     l5874:
  2247   00241C  0E00               	movlw	0
  2248   00241E  140E               	andwf	___xxtofl@arg^0,w,c
  2249   002420  6E08               	movwf	??___xxtofl^0,c
  2250   002422  0E00               	movlw	0
  2251   002424  140F               	andwf	(___xxtofl@arg+1)^0,w,c
  2252   002426  6E09               	movwf	(??___xxtofl+1)^0,c
  2253   002428  0E00               	movlw	0
  2254   00242A  1410               	andwf	(___xxtofl@arg+2)^0,w,c
  2255   00242C  6E0A               	movwf	(??___xxtofl+2)^0,c
  2256   00242E  0EFE               	movlw	254
  2257   002430  1411               	andwf	(___xxtofl@arg+3)^0,w,c
  2258   002432  6E0B               	movwf	(??___xxtofl+3)^0,c
  2259   002434  5008               	movf	??___xxtofl^0,w,c
  2260   002436  1009               	iorwf	(??___xxtofl+1)^0,w,c
  2261   002438  100A               	iorwf	(??___xxtofl+2)^0,w,c
  2262   00243A  100B               	iorwf	(??___xxtofl+3)^0,w,c
  2263   00243C  A4D8               	btfss	status,2,c
  2264   00243E  EF23  F012         	goto	u5221
  2265   002442  EF25  F012         	goto	u5220
  2266   002446                     u5221:
  2267   002446  EF08  F012         	goto	l5872
  2268   00244A                     u5220:
  2269   00244A  EF33  F012         	goto	l2104
  2270   00244E                     l5876:
  2271   00244E  2A0D               	incf	___xxtofl@exp^0,f,c
  2272   002450  0E01               	movlw	1
  2273   002452  260E               	addwf	___xxtofl@arg^0,f,c
  2274   002454  0E00               	movlw	0
  2275   002456  220F               	addwfc	(___xxtofl@arg+1)^0,f,c
  2276   002458  2210               	addwfc	(___xxtofl@arg+2)^0,f,c
  2277   00245A  2211               	addwfc	(___xxtofl@arg+3)^0,f,c
  2278   00245C  90D8               	bcf	status,0,c
  2279   00245E  3211               	rrcf	(___xxtofl@arg+3)^0,f,c
  2280   002460  3210               	rrcf	(___xxtofl@arg+2)^0,f,c
  2281   002462  320F               	rrcf	(___xxtofl@arg+1)^0,f,c
  2282   002464  320E               	rrcf	___xxtofl@arg^0,f,c
  2283   002466                     l2104:
  2284   002466  0E00               	movlw	0
  2285   002468  140E               	andwf	___xxtofl@arg^0,w,c
  2286   00246A  6E08               	movwf	??___xxtofl^0,c
  2287   00246C  0E00               	movlw	0
  2288   00246E  140F               	andwf	(___xxtofl@arg+1)^0,w,c
  2289   002470  6E09               	movwf	(??___xxtofl+1)^0,c
  2290   002472  0E00               	movlw	0
  2291   002474  1410               	andwf	(___xxtofl@arg+2)^0,w,c
  2292   002476  6E0A               	movwf	(??___xxtofl+2)^0,c
  2293   002478  0EFF               	movlw	255
  2294   00247A  1411               	andwf	(___xxtofl@arg+3)^0,w,c
  2295   00247C  6E0B               	movwf	(??___xxtofl+3)^0,c
  2296   00247E  5008               	movf	??___xxtofl^0,w,c
  2297   002480  1009               	iorwf	(??___xxtofl+1)^0,w,c
  2298   002482  100A               	iorwf	(??___xxtofl+2)^0,w,c
  2299   002484  100B               	iorwf	(??___xxtofl+3)^0,w,c
  2300   002486  A4D8               	btfss	status,2,c
  2301   002488  EF48  F012         	goto	u5231
  2302   00248C  EF4A  F012         	goto	u5230
  2303   002490                     u5231:
  2304   002490  EF27  F012         	goto	l5876
  2305   002494                     u5230:
  2306   002494  EF52  F012         	goto	l5884
  2307   002498                     l5882:
  2308   002498  060D               	decf	___xxtofl@exp^0,f,c
  2309   00249A  90D8               	bcf	status,0,c
  2310   00249C  360E               	rlcf	___xxtofl@arg^0,f,c
  2311   00249E  360F               	rlcf	(___xxtofl@arg+1)^0,f,c
  2312   0024A0  3610               	rlcf	(___xxtofl@arg+2)^0,f,c
  2313   0024A2  3611               	rlcf	(___xxtofl@arg+3)^0,f,c
  2314   0024A4                     l5884:
  2315   0024A4  BE10               	btfsc	(___xxtofl@arg+2)^0,7,c
  2316   0024A6  EF57  F012         	goto	u5241
  2317   0024AA  EF59  F012         	goto	u5240
  2318   0024AE                     u5241:
  2319   0024AE  EF61  F012         	goto	l2111
  2320   0024B2                     u5240:
  2321   0024B2  0E02               	movlw	2
  2322   0024B4  600D               	cpfslt	___xxtofl@exp^0,c
  2323   0024B6  EF5F  F012         	goto	u5251
  2324   0024BA  EF61  F012         	goto	u5250
  2325   0024BE                     u5251:
  2326   0024BE  EF4C  F012         	goto	l5882
  2327   0024C2                     u5250:
  2328   0024C2                     l2111:
  2329   0024C2  B00D               	btfsc	___xxtofl@exp^0,0,c
  2330   0024C4  EF66  F012         	goto	u5261
  2331   0024C8  EF68  F012         	goto	u5260
  2332   0024CC                     u5261:
  2333   0024CC  EF69  F012         	goto	l5890
  2334   0024D0                     u5260:
  2335   0024D0  9E10               	bcf	(___xxtofl@arg+2)^0,7,c
  2336   0024D2                     l5890:
  2337   0024D2  90D8               	bcf	status,0,c
  2338   0024D4  320D               	rrcf	___xxtofl@exp^0,f,c
  2339   0024D6  C00D  F008         	movff	___xxtofl@exp,??___xxtofl
  2340   0024DA  6A09               	clrf	(??___xxtofl+1)^0,c
  2341   0024DC  6A0A               	clrf	(??___xxtofl+2)^0,c
  2342   0024DE  6A0B               	clrf	(??___xxtofl+3)^0,c
  2343   0024E0  C008  F00B         	movff	??___xxtofl,??___xxtofl+3
  2344   0024E4  6A0A               	clrf	(??___xxtofl+2)^0,c
  2345   0024E6  6A09               	clrf	(??___xxtofl+1)^0,c
  2346   0024E8  6A08               	clrf	??___xxtofl^0,c
  2347   0024EA  5008               	movf	??___xxtofl^0,w,c
  2348   0024EC  120E               	iorwf	___xxtofl@arg^0,f,c
  2349   0024EE  5009               	movf	(??___xxtofl+1)^0,w,c
  2350   0024F0  120F               	iorwf	(___xxtofl@arg+1)^0,f,c
  2351   0024F2  500A               	movf	(??___xxtofl+2)^0,w,c
  2352   0024F4  1210               	iorwf	(___xxtofl@arg+2)^0,f,c
  2353   0024F6  500B               	movf	(??___xxtofl+3)^0,w,c
  2354   0024F8  1211               	iorwf	(___xxtofl@arg+3)^0,f,c
  2355   0024FA  500C               	movf	___xxtofl@sign^0,w,c
  2356   0024FC  B4D8               	btfsc	status,2,c
  2357   0024FE  EF83  F012         	goto	u5271
  2358   002502  EF85  F012         	goto	u5270
  2359   002506                     u5271:
  2360   002506  EF8D  F012         	goto	l5900
  2361   00250A                     u5270:
  2362   00250A  BE07               	btfsc	(___xxtofl@val+3)^0,7,c
  2363   00250C  EF8C  F012         	goto	u5280
  2364   002510  EF8A  F012         	goto	u5281
  2365   002514                     u5281:
  2366   002514  EF8D  F012         	goto	l5900
  2367   002518                     u5280:
  2368   002518  8E11               	bsf	(___xxtofl@arg+3)^0,7,c
  2369   00251A                     l5900:
  2370   00251A  C00E  F004         	movff	___xxtofl@arg,?___xxtofl
  2371   00251E  C00F  F005         	movff	___xxtofl@arg+1,?___xxtofl+1
  2372   002522  C010  F006         	movff	___xxtofl@arg+2,?___xxtofl+2
  2373   002526  C011  F007         	movff	___xxtofl@arg+3,?___xxtofl+3
  2374   00252A                     l2100:
  2375   00252A  0012               	return		;funcret
  2376   00252C                     __end_of___xxtofl:
  2377                           	callstack 0
  2378                           
  2379 ;; *************** function ___fltol *****************
  2380 ;; Defined at:
  2381 ;;		line 43 in file "E:\Program Files\Microchip\xc8\v2.41\pic\sources\c99\common\fltol.c"
  2382 ;; Parameters:    Size  Location     Type
  2383 ;;  f1              4   83[COMRAM] unsigned char 
  2384 ;; Auto vars:     Size  Location     Type
  2385 ;;  exp1            1   92[COMRAM] unsigned char 
  2386 ;;  sign1           1   91[COMRAM] unsigned char 
  2387 ;; Return value:  Size  Location     Type
  2388 ;;                  4   83[COMRAM] long 
  2389 ;; Registers used:
  2390 ;;		wreg, status,2, status,0
  2391 ;; Tracked objects:
  2392 ;;		On entry : 0/0
  2393 ;;		On exit  : 0/0
  2394 ;;		Unchanged: 0/0
  2395 ;; Data sizes:     COMRAM   BANK0   BANK1   BANK2   BANK3   BANK4   BANK5   BANK6   BANK7   BANK8   BANK9  BANK10  BANK1
      +1  BANK12  BANK13  BANK14  BANK15
  2396 ;;      Params:         4       0       0       0       0       0       0       0       0       0       0       0       
      +0       0       0       0       0
  2397 ;;      Locals:         2       0       0       0       0       0       0       0       0       0       0       0       
      +0       0       0       0       0
  2398 ;;      Temps:          4       0       0       0       0       0       0       0       0       0       0       0       
      +0       0       0       0       0
  2399 ;;      Totals:        10       0       0       0       0       0       0       0       0       0       0       0       
      +0       0       0       0       0
  2400 ;;Total ram usage:       10 bytes
  2401 ;; Hardware stack levels used: 1
  2402 ;; Hardware stack levels required when called: 3
  2403 ;; This function calls:
  2404 ;;		Nothing
  2405 ;; This function is called by:
  2406 ;;		_i2c_int
  2407 ;;		_ccp2_int
  2408 ;;		_ccp2_pwm_set_duty
  2409 ;;		_buadrate_calculation
  2410 ;; This function uses a non-reentrant model
  2411 ;;
  2412                           
  2413                           	psect	text9
  2414   002644                     __ptext9:
  2415                           	callstack 0
  2416   002644                     ___fltol:
  2417                           	callstack 26
  2418   002644  3456               	rlcf	(___fltol@f1+2)^0,w,c
  2419   002646  3457               	rlcf	(___fltol@f1+3)^0,w,c
  2420   002648  6E5D               	movwf	___fltol@exp1^0,c
  2421   00264A  505D               	movf	___fltol@exp1^0,w,c
  2422   00264C  A4D8               	btfss	status,2,c
  2423   00264E  EF2B  F013         	goto	u5121
  2424   002652  EF2D  F013         	goto	u5120
  2425   002656                     u5121:
  2426   002656  EF37  F013         	goto	l5820
  2427   00265A                     u5120:
  2428   00265A                     l5816:
  2429   00265A  0E00               	movlw	0
  2430   00265C  6E54               	movwf	?___fltol^0,c
  2431   00265E  0E00               	movlw	0
  2432   002660  6E55               	movwf	(?___fltol+1)^0,c
  2433   002662  0E00               	movlw	0
  2434   002664  6E56               	movwf	(?___fltol+2)^0,c
  2435   002666  0E00               	movlw	0
  2436   002668  6E57               	movwf	(?___fltol+3)^0,c
  2437   00266A  EFA4  F013         	goto	l1739
  2438   00266E                     l5820:
  2439   00266E  C054  F058         	movff	___fltol@f1,??___fltol
  2440   002672  C055  F059         	movff	___fltol@f1+1,??___fltol+1
  2441   002676  C056  F05A         	movff	___fltol@f1+2,??___fltol+2
  2442   00267A  C057  F05B         	movff	___fltol@f1+3,??___fltol+3
  2443   00267E  0E20               	movlw	32
  2444   002680  EF47  F013         	goto	u5130
  2445   002684                     u5135:
  2446   002684  90D8               	bcf	status,0,c
  2447   002686  325B               	rrcf	(??___fltol+3)^0,f,c
  2448   002688  325A               	rrcf	(??___fltol+2)^0,f,c
  2449   00268A  3259               	rrcf	(??___fltol+1)^0,f,c
  2450   00268C  3258               	rrcf	??___fltol^0,f,c
  2451   00268E                     u5130:
  2452   00268E  2EE8               	decfsz	wreg,f,c
  2453   002690  EF42  F013         	goto	u5135
  2454   002694  5058               	movf	??___fltol^0,w,c
  2455   002696  6E5C               	movwf	___fltol@sign1^0,c
  2456   002698  8E56               	bsf	(___fltol@f1+2)^0,7,c
  2457   00269A  0EFF               	movlw	255
  2458   00269C  1654               	andwf	___fltol@f1^0,f,c
  2459   00269E  0EFF               	movlw	255
  2460   0026A0  1655               	andwf	(___fltol@f1+1)^0,f,c
  2461   0026A2  0EFF               	movlw	255
  2462   0026A4  1656               	andwf	(___fltol@f1+2)^0,f,c
  2463   0026A6  0E00               	movlw	0
  2464   0026A8  1657               	andwf	(___fltol@f1+3)^0,f,c
  2465   0026AA  0E96               	movlw	150
  2466   0026AC  5E5D               	subwf	___fltol@exp1^0,f,c
  2467   0026AE  BE5D               	btfsc	___fltol@exp1^0,7,c
  2468   0026B0  EF5E  F013         	goto	u5140
  2469   0026B4  EF5C  F013         	goto	u5141
  2470   0026B8                     u5141:
  2471   0026B8  EF74  F013         	goto	l5840
  2472   0026BC                     u5140:
  2473   0026BC  505D               	movf	___fltol@exp1^0,w,c
  2474   0026BE  0A80               	xorlw	128
  2475   0026C0  0F97               	addlw	151
  2476   0026C2  B0D8               	btfsc	status,0,c
  2477   0026C4  EF66  F013         	goto	u5151
  2478   0026C8  EF68  F013         	goto	u5150
  2479   0026CC                     u5151:
  2480   0026CC  EF6A  F013         	goto	l5836
  2481   0026D0                     u5150:
  2482   0026D0  EF2D  F013         	goto	l5816
  2483   0026D4                     l5836:
  2484   0026D4  90D8               	bcf	status,0,c
  2485   0026D6  3257               	rrcf	(___fltol@f1+3)^0,f,c
  2486   0026D8  3256               	rrcf	(___fltol@f1+2)^0,f,c
  2487   0026DA  3255               	rrcf	(___fltol@f1+1)^0,f,c
  2488   0026DC  3254               	rrcf	___fltol@f1^0,f,c
  2489   0026DE  3E5D               	incfsz	___fltol@exp1^0,f,c
  2490   0026E0  EF6A  F013         	goto	l5836
  2491   0026E4  EF8C  F013         	goto	l5850
  2492   0026E8                     l5840:
  2493   0026E8  0E1F               	movlw	31
  2494   0026EA  645D               	cpfsgt	___fltol@exp1^0,c
  2495   0026EC  EF7A  F013         	goto	u5161
  2496   0026F0  EF7C  F013         	goto	u5160
  2497   0026F4                     u5161:
  2498   0026F4  EF84  F013         	goto	l5848
  2499   0026F8                     u5160:
  2500   0026F8  EF2D  F013         	goto	l5816
  2501   0026FC                     l5846:
  2502   0026FC  90D8               	bcf	status,0,c
  2503   0026FE  3654               	rlcf	___fltol@f1^0,f,c
  2504   002700  3655               	rlcf	(___fltol@f1+1)^0,f,c
  2505   002702  3656               	rlcf	(___fltol@f1+2)^0,f,c
  2506   002704  3657               	rlcf	(___fltol@f1+3)^0,f,c
  2507   002706  065D               	decf	___fltol@exp1^0,f,c
  2508   002708                     l5848:
  2509   002708  505D               	movf	___fltol@exp1^0,w,c
  2510   00270A  A4D8               	btfss	status,2,c
  2511   00270C  EF8A  F013         	goto	u5171
  2512   002710  EF8C  F013         	goto	u5170
  2513   002714                     u5171:
  2514   002714  EF7E  F013         	goto	l5846
  2515   002718                     u5170:
  2516   002718                     l5850:
  2517   002718  505C               	movf	___fltol@sign1^0,w,c
  2518   00271A  B4D8               	btfsc	status,2,c
  2519   00271C  EF92  F013         	goto	u5181
  2520   002720  EF94  F013         	goto	u5180
  2521   002724                     u5181:
  2522   002724  EF9C  F013         	goto	l5854
  2523   002728                     u5180:
  2524   002728  1E57               	comf	(___fltol@f1+3)^0,f,c
  2525   00272A  1E56               	comf	(___fltol@f1+2)^0,f,c
  2526   00272C  1E55               	comf	(___fltol@f1+1)^0,f,c
  2527   00272E  6C54               	negf	___fltol@f1^0,c
  2528   002730  0E00               	movlw	0
  2529   002732  2255               	addwfc	(___fltol@f1+1)^0,f,c
  2530   002734  2256               	addwfc	(___fltol@f1+2)^0,f,c
  2531   002736  2257               	addwfc	(___fltol@f1+3)^0,f,c
  2532   002738                     l5854:
  2533   002738  C054  F054         	movff	___fltol@f1,?___fltol
  2534   00273C  C055  F055         	movff	___fltol@f1+1,?___fltol+1
  2535   002740  C056  F056         	movff	___fltol@f1+2,?___fltol+2
  2536   002744  C057  F057         	movff	___fltol@f1+3,?___fltol+3
  2537   002748                     l1739:
  2538   002748  0012               	return		;funcret
  2539   00274A                     __end_of___fltol:
  2540                           	callstack 0
  2541                           
  2542 ;; *************** function ___flmul *****************
  2543 ;; Defined at:
  2544 ;;		line 8 in file "E:\Program Files\Microchip\xc8\v2.41\pic\sources\c99\common\sprcmul.c"
  2545 ;; Parameters:    Size  Location     Type
  2546 ;;  b               4   17[COMRAM] long 
  2547 ;;  a               4   21[COMRAM] long 
  2548 ;; Auto vars:     Size  Location     Type
  2549 ;;  prod            4   36[COMRAM] struct .
  2550 ;;  grs             4   30[COMRAM] unsigned long 
  2551 ;;  temp            2   40[COMRAM] struct .
  2552 ;;  bexp            1   35[COMRAM] unsigned char 
  2553 ;;  aexp            1   34[COMRAM] unsigned char 
  2554 ;;  sign            1   29[COMRAM] unsigned char 
  2555 ;; Return value:  Size  Location     Type
  2556 ;;                  4   17[COMRAM] unsigned char 
  2557 ;; Registers used:
  2558 ;;		wreg, status,2, status,0, prodl, prodh
  2559 ;; Tracked objects:
  2560 ;;		On entry : 0/0
  2561 ;;		On exit  : 0/0
  2562 ;;		Unchanged: 0/0
  2563 ;; Data sizes:     COMRAM   BANK0   BANK1   BANK2   BANK3   BANK4   BANK5   BANK6   BANK7   BANK8   BANK9  BANK10  BANK1
      +1  BANK12  BANK13  BANK14  BANK15
  2564 ;;      Params:         8       0       0       0       0       0       0       0       0       0       0       0       
      +0       0       0       0       0
  2565 ;;      Locals:        13       0       0       0       0       0       0       0       0       0       0       0       
      +0       0       0       0       0
  2566 ;;      Temps:          4       0       0       0       0       0       0       0       0       0       0       0       
      +0       0       0       0       0
  2567 ;;      Totals:        25       0       0       0       0       0       0       0       0       0       0       0       
      +0       0       0       0       0
  2568 ;;Total ram usage:       25 bytes
  2569 ;; Hardware stack levels used: 1
  2570 ;; Hardware stack levels required when called: 3
  2571 ;; This function calls:
  2572 ;;		Nothing
  2573 ;; This function is called by:
  2574 ;;		_i2c_int
  2575 ;;		_ccp2_int
  2576 ;;		_ccp2_pwm_set_duty
  2577 ;; This function uses a non-reentrant model
  2578 ;;
  2579                           
  2580                           	psect	text10
  2581   0014C6                     __ptext10:
  2582                           	callstack 0
  2583   0014C6                     ___flmul:
  2584                           	callstack 26
  2585   0014C6  5015               	movf	(___flmul@b+3)^0,w,c
  2586   0014C8  0B80               	andlw	128
  2587   0014CA  6E1E               	movwf	___flmul@sign^0,c
  2588   0014CC  5015               	movf	(___flmul@b+3)^0,w,c
  2589   0014CE  2415               	addwf	(___flmul@b+3)^0,w,c
  2590   0014D0  6E24               	movwf	___flmul@bexp^0,c
  2591   0014D2  AE14               	btfss	(___flmul@b+2)^0,7,c
  2592   0014D4  EF6E  F00A         	goto	u4931
  2593   0014D8  EF70  F00A         	goto	u4930
  2594   0014DC                     u4931:
  2595   0014DC  EF71  F00A         	goto	l5690
  2596   0014E0                     u4930:
  2597   0014E0  8024               	bsf	___flmul@bexp^0,0,c
  2598   0014E2                     l5690:
  2599   0014E2  5024               	movf	___flmul@bexp^0,w,c
  2600   0014E4  B4D8               	btfsc	status,2,c
  2601   0014E6  EF77  F00A         	goto	u4941
  2602   0014EA  EF79  F00A         	goto	u4940
  2603   0014EE                     u4941:
  2604   0014EE  EF8C  F00A         	goto	l5698
  2605   0014F2                     u4940:
  2606   0014F2  2824               	incf	___flmul@bexp^0,w,c
  2607   0014F4  A4D8               	btfss	status,2,c
  2608   0014F6  EF7F  F00A         	goto	u4951
  2609   0014FA  EF81  F00A         	goto	u4950
  2610   0014FE                     u4951:
  2611   0014FE  EF89  F00A         	goto	l5696
  2612   001502                     u4950:
  2613   001502  0E00               	movlw	0
  2614   001504  6E12               	movwf	___flmul@b^0,c
  2615   001506  0E00               	movlw	0
  2616   001508  6E13               	movwf	(___flmul@b+1)^0,c
  2617   00150A  0E00               	movlw	0
  2618   00150C  6E14               	movwf	(___flmul@b+2)^0,c
  2619   00150E  0E00               	movlw	0
  2620   001510  6E15               	movwf	(___flmul@b+3)^0,c
  2621   001512                     l5696:
  2622   001512  8E14               	bsf	(___flmul@b+2)^0,7,c
  2623   001514  EF94  F00A         	goto	l5700
  2624   001518                     l5698:
  2625   001518  0E00               	movlw	0
  2626   00151A  6E12               	movwf	___flmul@b^0,c
  2627   00151C  0E00               	movlw	0
  2628   00151E  6E13               	movwf	(___flmul@b+1)^0,c
  2629   001520  0E00               	movlw	0
  2630   001522  6E14               	movwf	(___flmul@b+2)^0,c
  2631   001524  0E00               	movlw	0
  2632   001526  6E15               	movwf	(___flmul@b+3)^0,c
  2633   001528                     l5700:
  2634   001528  5019               	movf	(___flmul@a+3)^0,w,c
  2635   00152A  0B80               	andlw	128
  2636   00152C  1A1E               	xorwf	___flmul@sign^0,f,c
  2637   00152E  5019               	movf	(___flmul@a+3)^0,w,c
  2638   001530  2419               	addwf	(___flmul@a+3)^0,w,c
  2639   001532  6E23               	movwf	___flmul@aexp^0,c
  2640   001534  AE18               	btfss	(___flmul@a+2)^0,7,c
  2641   001536  EF9F  F00A         	goto	u4961
  2642   00153A  EFA1  F00A         	goto	u4960
  2643   00153E                     u4961:
  2644   00153E  EFA2  F00A         	goto	l5708
  2645   001542                     u4960:
  2646   001542  8023               	bsf	___flmul@aexp^0,0,c
  2647   001544                     l5708:
  2648   001544  5023               	movf	___flmul@aexp^0,w,c
  2649   001546  B4D8               	btfsc	status,2,c
  2650   001548  EFA8  F00A         	goto	u4971
  2651   00154C  EFAA  F00A         	goto	u4970
  2652   001550                     u4971:
  2653   001550  EFBD  F00A         	goto	l5716
  2654   001554                     u4970:
  2655   001554  2823               	incf	___flmul@aexp^0,w,c
  2656   001556  A4D8               	btfss	status,2,c
  2657   001558  EFB0  F00A         	goto	u4981
  2658   00155C  EFB2  F00A         	goto	u4980
  2659   001560                     u4981:
  2660   001560  EFBA  F00A         	goto	l5714
  2661   001564                     u4980:
  2662   001564  0E00               	movlw	0
  2663   001566  6E16               	movwf	___flmul@a^0,c
  2664   001568  0E00               	movlw	0
  2665   00156A  6E17               	movwf	(___flmul@a+1)^0,c
  2666   00156C  0E00               	movlw	0
  2667   00156E  6E18               	movwf	(___flmul@a+2)^0,c
  2668   001570  0E00               	movlw	0
  2669   001572  6E19               	movwf	(___flmul@a+3)^0,c
  2670   001574                     l5714:
  2671   001574  8E18               	bsf	(___flmul@a+2)^0,7,c
  2672   001576  EFC5  F00A         	goto	l2056
  2673   00157A                     l5716:
  2674   00157A  0E00               	movlw	0
  2675   00157C  6E16               	movwf	___flmul@a^0,c
  2676   00157E  0E00               	movlw	0
  2677   001580  6E17               	movwf	(___flmul@a+1)^0,c
  2678   001582  0E00               	movlw	0
  2679   001584  6E18               	movwf	(___flmul@a+2)^0,c
  2680   001586  0E00               	movlw	0
  2681   001588  6E19               	movwf	(___flmul@a+3)^0,c
  2682   00158A                     l2056:
  2683   00158A  5023               	movf	___flmul@aexp^0,w,c
  2684   00158C  B4D8               	btfsc	status,2,c
  2685   00158E  EFCB  F00A         	goto	u4991
  2686   001592  EFCD  F00A         	goto	u4990
  2687   001596                     u4991:
  2688   001596  EFD5  F00A         	goto	l5720
  2689   00159A                     u4990:
  2690   00159A  5024               	movf	___flmul@bexp^0,w,c
  2691   00159C  A4D8               	btfss	status,2,c
  2692   00159E  EFD3  F00A         	goto	u5001
  2693   0015A2  EFD5  F00A         	goto	u5000
  2694   0015A6                     u5001:
  2695   0015A6  EFDF  F00A         	goto	l5724
  2696   0015AA                     u5000:
  2697   0015AA                     l5720:
  2698   0015AA  0E00               	movlw	0
  2699   0015AC  6E12               	movwf	?___flmul^0,c
  2700   0015AE  0E00               	movlw	0
  2701   0015B0  6E13               	movwf	(?___flmul+1)^0,c
  2702   0015B2  0E00               	movlw	0
  2703   0015B4  6E14               	movwf	(?___flmul+2)^0,c
  2704   0015B6  0E00               	movlw	0
  2705   0015B8  6E15               	movwf	(?___flmul+3)^0,c
  2706   0015BA  EF77  F00C         	goto	l2060
  2707   0015BE                     l5724:
  2708   0015BE  5018               	movf	(___flmul@a+2)^0,w,c
  2709   0015C0  0212               	mulwf	___flmul@b^0,c
  2710   0015C2  CFF3 F029          	movff	prodl,___flmul@temp
  2711   0015C6  CFF4 F02A          	movff	prodh,___flmul@temp+1
  2712   0015CA  5029               	movf	___flmul@temp^0,w,c
  2713   0015CC  6E1F               	movwf	___flmul@grs^0,c
  2714   0015CE  6A20               	clrf	(___flmul@grs+1)^0,c
  2715   0015D0  6A21               	clrf	(___flmul@grs+2)^0,c
  2716   0015D2  6A22               	clrf	(___flmul@grs+3)^0,c
  2717   0015D4  502A               	movf	(___flmul@temp+1)^0,w,c
  2718   0015D6  6E25               	movwf	___flmul@prod^0,c
  2719   0015D8  6A26               	clrf	(___flmul@prod+1)^0,c
  2720   0015DA  6A27               	clrf	(___flmul@prod+2)^0,c
  2721   0015DC  6A28               	clrf	(___flmul@prod+3)^0,c
  2722   0015DE  5017               	movf	(___flmul@a+1)^0,w,c
  2723   0015E0  0213               	mulwf	(___flmul@b+1)^0,c
  2724   0015E2  CFF3 F029          	movff	prodl,___flmul@temp
  2725   0015E6  CFF4 F02A          	movff	prodh,___flmul@temp+1
  2726   0015EA  5029               	movf	___flmul@temp^0,w,c
  2727   0015EC  261F               	addwf	___flmul@grs^0,f,c
  2728   0015EE  0E00               	movlw	0
  2729   0015F0  2220               	addwfc	(___flmul@grs+1)^0,f,c
  2730   0015F2  2221               	addwfc	(___flmul@grs+2)^0,f,c
  2731   0015F4  2222               	addwfc	(___flmul@grs+3)^0,f,c
  2732   0015F6  502A               	movf	(___flmul@temp+1)^0,w,c
  2733   0015F8  2625               	addwf	___flmul@prod^0,f,c
  2734   0015FA  0E00               	movlw	0
  2735   0015FC  2226               	addwfc	(___flmul@prod+1)^0,f,c
  2736   0015FE  2227               	addwfc	(___flmul@prod+2)^0,f,c
  2737   001600  2228               	addwfc	(___flmul@prod+3)^0,f,c
  2738   001602  5016               	movf	___flmul@a^0,w,c
  2739   001604  0214               	mulwf	(___flmul@b+2)^0,c
  2740   001606  CFF3 F029          	movff	prodl,___flmul@temp
  2741   00160A  CFF4 F02A          	movff	prodh,___flmul@temp+1
  2742   00160E  5029               	movf	___flmul@temp^0,w,c
  2743   001610  261F               	addwf	___flmul@grs^0,f,c
  2744   001612  0E00               	movlw	0
  2745   001614  2220               	addwfc	(___flmul@grs+1)^0,f,c
  2746   001616  2221               	addwfc	(___flmul@grs+2)^0,f,c
  2747   001618  2222               	addwfc	(___flmul@grs+3)^0,f,c
  2748   00161A  502A               	movf	(___flmul@temp+1)^0,w,c
  2749   00161C  2625               	addwf	___flmul@prod^0,f,c
  2750   00161E  0E00               	movlw	0
  2751   001620  2226               	addwfc	(___flmul@prod+1)^0,f,c
  2752   001622  2227               	addwfc	(___flmul@prod+2)^0,f,c
  2753   001624  2228               	addwfc	(___flmul@prod+3)^0,f,c
  2754   001626  C021  F022         	movff	___flmul@grs+2,___flmul@grs+3
  2755   00162A  C020  F021         	movff	___flmul@grs+1,___flmul@grs+2
  2756   00162E  C01F  F020         	movff	___flmul@grs,___flmul@grs+1
  2757   001632  6A1F               	clrf	___flmul@grs^0,c
  2758   001634  5016               	movf	___flmul@a^0,w,c
  2759   001636  0213               	mulwf	(___flmul@b+1)^0,c
  2760   001638  CFF3 F029          	movff	prodl,___flmul@temp
  2761   00163C  CFF4 F02A          	movff	prodh,___flmul@temp+1
  2762   001640  5029               	movf	___flmul@temp^0,w,c
  2763   001642  261F               	addwf	___flmul@grs^0,f,c
  2764   001644  502A               	movf	(___flmul@temp+1)^0,w,c
  2765   001646  2220               	addwfc	(___flmul@grs+1)^0,f,c
  2766   001648  0E00               	movlw	0
  2767   00164A  2221               	addwfc	(___flmul@grs+2)^0,f,c
  2768   00164C  0E00               	movlw	0
  2769   00164E  2222               	addwfc	(___flmul@grs+3)^0,f,c
  2770   001650  5017               	movf	(___flmul@a+1)^0,w,c
  2771   001652  0212               	mulwf	___flmul@b^0,c
  2772   001654  CFF3 F029          	movff	prodl,___flmul@temp
  2773   001658  CFF4 F02A          	movff	prodh,___flmul@temp+1
  2774   00165C  5029               	movf	___flmul@temp^0,w,c
  2775   00165E  261F               	addwf	___flmul@grs^0,f,c
  2776   001660  502A               	movf	(___flmul@temp+1)^0,w,c
  2777   001662  2220               	addwfc	(___flmul@grs+1)^0,f,c
  2778   001664  0E00               	movlw	0
  2779   001666  2221               	addwfc	(___flmul@grs+2)^0,f,c
  2780   001668  0E00               	movlw	0
  2781   00166A  2222               	addwfc	(___flmul@grs+3)^0,f,c
  2782   00166C  C021  F022         	movff	___flmul@grs+2,___flmul@grs+3
  2783   001670  C020  F021         	movff	___flmul@grs+1,___flmul@grs+2
  2784   001674  C01F  F020         	movff	___flmul@grs,___flmul@grs+1
  2785   001678  6A1F               	clrf	___flmul@grs^0,c
  2786   00167A  5016               	movf	___flmul@a^0,w,c
  2787   00167C  0212               	mulwf	___flmul@b^0,c
  2788   00167E  CFF3 F029          	movff	prodl,___flmul@temp
  2789   001682  CFF4 F02A          	movff	prodh,___flmul@temp+1
  2790   001686  5029               	movf	___flmul@temp^0,w,c
  2791   001688  261F               	addwf	___flmul@grs^0,f,c
  2792   00168A  502A               	movf	(___flmul@temp+1)^0,w,c
  2793   00168C  2220               	addwfc	(___flmul@grs+1)^0,f,c
  2794   00168E  0E00               	movlw	0
  2795   001690  2221               	addwfc	(___flmul@grs+2)^0,f,c
  2796   001692  0E00               	movlw	0
  2797   001694  2222               	addwfc	(___flmul@grs+3)^0,f,c
  2798   001696  5018               	movf	(___flmul@a+2)^0,w,c
  2799   001698  0213               	mulwf	(___flmul@b+1)^0,c
  2800   00169A  CFF3 F029          	movff	prodl,___flmul@temp
  2801   00169E  CFF4 F02A          	movff	prodh,___flmul@temp+1
  2802   0016A2  5029               	movf	___flmul@temp^0,w,c
  2803   0016A4  2625               	addwf	___flmul@prod^0,f,c
  2804   0016A6  502A               	movf	(___flmul@temp+1)^0,w,c
  2805   0016A8  2226               	addwfc	(___flmul@prod+1)^0,f,c
  2806   0016AA  0E00               	movlw	0
  2807   0016AC  2227               	addwfc	(___flmul@prod+2)^0,f,c
  2808   0016AE  0E00               	movlw	0
  2809   0016B0  2228               	addwfc	(___flmul@prod+3)^0,f,c
  2810   0016B2  5017               	movf	(___flmul@a+1)^0,w,c
  2811   0016B4  0214               	mulwf	(___flmul@b+2)^0,c
  2812   0016B6  CFF3 F029          	movff	prodl,___flmul@temp
  2813   0016BA  CFF4 F02A          	movff	prodh,___flmul@temp+1
  2814   0016BE  5029               	movf	___flmul@temp^0,w,c
  2815   0016C0  2625               	addwf	___flmul@prod^0,f,c
  2816   0016C2  502A               	movf	(___flmul@temp+1)^0,w,c
  2817   0016C4  2226               	addwfc	(___flmul@prod+1)^0,f,c
  2818   0016C6  0E00               	movlw	0
  2819   0016C8  2227               	addwfc	(___flmul@prod+2)^0,f,c
  2820   0016CA  0E00               	movlw	0
  2821   0016CC  2228               	addwfc	(___flmul@prod+3)^0,f,c
  2822   0016CE  5018               	movf	(___flmul@a+2)^0,w,c
  2823   0016D0  0214               	mulwf	(___flmul@b+2)^0,c
  2824   0016D2  CFF3 F029          	movff	prodl,___flmul@temp
  2825   0016D6  CFF4 F02A          	movff	prodh,___flmul@temp+1
  2826   0016DA  5029               	movf	___flmul@temp^0,w,c
  2827   0016DC  6E1A               	movwf	??___flmul^0,c
  2828   0016DE  502A               	movf	(___flmul@temp+1)^0,w,c
  2829   0016E0  6E1B               	movwf	(??___flmul+1)^0,c
  2830   0016E2  6A1C               	clrf	(??___flmul+2)^0,c
  2831   0016E4  6A1D               	clrf	(??___flmul+3)^0,c
  2832   0016E6  C01C  F01D         	movff	??___flmul+2,??___flmul+3
  2833   0016EA  C01B  F01C         	movff	??___flmul+1,??___flmul+2
  2834   0016EE  C01A  F01B         	movff	??___flmul,??___flmul+1
  2835   0016F2  6A1A               	clrf	??___flmul^0,c
  2836   0016F4  501A               	movf	??___flmul^0,w,c
  2837   0016F6  2625               	addwf	___flmul@prod^0,f,c
  2838   0016F8  501B               	movf	(??___flmul+1)^0,w,c
  2839   0016FA  2226               	addwfc	(___flmul@prod+1)^0,f,c
  2840   0016FC  501C               	movf	(??___flmul+2)^0,w,c
  2841   0016FE  2227               	addwfc	(___flmul@prod+2)^0,f,c
  2842   001700  501D               	movf	(??___flmul+3)^0,w,c
  2843   001702  2228               	addwfc	(___flmul@prod+3)^0,f,c
  2844   001704  C01F  F01A         	movff	___flmul@grs,??___flmul
  2845   001708  C020  F01B         	movff	___flmul@grs+1,??___flmul+1
  2846   00170C  C021  F01C         	movff	___flmul@grs+2,??___flmul+2
  2847   001710  C022  F01D         	movff	___flmul@grs+3,??___flmul+3
  2848   001714  0E19               	movlw	25
  2849   001716  EF92  F00B         	goto	u5010
  2850   00171A                     u5015:
  2851   00171A  90D8               	bcf	status,0,c
  2852   00171C  321D               	rrcf	(??___flmul+3)^0,f,c
  2853   00171E  321C               	rrcf	(??___flmul+2)^0,f,c
  2854   001720  321B               	rrcf	(??___flmul+1)^0,f,c
  2855   001722  321A               	rrcf	??___flmul^0,f,c
  2856   001724                     u5010:
  2857   001724  2EE8               	decfsz	wreg,f,c
  2858   001726  EF8D  F00B         	goto	u5015
  2859   00172A  501A               	movf	??___flmul^0,w,c
  2860   00172C  2625               	addwf	___flmul@prod^0,f,c
  2861   00172E  501B               	movf	(??___flmul+1)^0,w,c
  2862   001730  2226               	addwfc	(___flmul@prod+1)^0,f,c
  2863   001732  501C               	movf	(??___flmul+2)^0,w,c
  2864   001734  2227               	addwfc	(___flmul@prod+2)^0,f,c
  2865   001736  501D               	movf	(??___flmul+3)^0,w,c
  2866   001738  2228               	addwfc	(___flmul@prod+3)^0,f,c
  2867   00173A  C021  F022         	movff	___flmul@grs+2,___flmul@grs+3
  2868   00173E  C020  F021         	movff	___flmul@grs+1,___flmul@grs+2
  2869   001742  C01F  F020         	movff	___flmul@grs,___flmul@grs+1
  2870   001746  6A1F               	clrf	___flmul@grs^0,c
  2871   001748  5023               	movf	___flmul@aexp^0,w,c
  2872   00174A  C024  F01A         	movff	___flmul@bexp,??___flmul
  2873   00174E  6A1B               	clrf	(??___flmul+1)^0,c
  2874   001750  261A               	addwf	??___flmul^0,f,c
  2875   001752  0E00               	movlw	0
  2876   001754  221B               	addwfc	(??___flmul+1)^0,f,c
  2877   001756  0E82               	movlw	130
  2878   001758  241A               	addwf	??___flmul^0,w,c
  2879   00175A  6E29               	movwf	___flmul@temp^0,c
  2880   00175C  0EFF               	movlw	255
  2881   00175E  201B               	addwfc	(??___flmul+1)^0,w,c
  2882   001760  6E2A               	movwf	(___flmul@temp+1)^0,c
  2883   001762  EFC8  F00B         	goto	l5772
  2884   001766                     l5766:
  2885   001766  90D8               	bcf	status,0,c
  2886   001768  3625               	rlcf	___flmul@prod^0,f,c
  2887   00176A  3626               	rlcf	(___flmul@prod+1)^0,f,c
  2888   00176C  3627               	rlcf	(___flmul@prod+2)^0,f,c
  2889   00176E  3628               	rlcf	(___flmul@prod+3)^0,f,c
  2890   001770  AE22               	btfss	(___flmul@grs+3)^0,7,c
  2891   001772  EFBD  F00B         	goto	u5021
  2892   001776  EFBF  F00B         	goto	u5020
  2893   00177A                     u5021:
  2894   00177A  EFC0  F00B         	goto	l2063
  2895   00177E                     u5020:
  2896   00177E  8025               	bsf	___flmul@prod^0,0,c
  2897   001780                     l2063:
  2898   001780  90D8               	bcf	status,0,c
  2899   001782  361F               	rlcf	___flmul@grs^0,f,c
  2900   001784  3620               	rlcf	(___flmul@grs+1)^0,f,c
  2901   001786  3621               	rlcf	(___flmul@grs+2)^0,f,c
  2902   001788  3622               	rlcf	(___flmul@grs+3)^0,f,c
  2903   00178A  0629               	decf	___flmul@temp^0,f,c
  2904   00178C  A0D8               	btfss	status,0,c
  2905   00178E  062A               	decf	(___flmul@temp+1)^0,f,c
  2906   001790                     l5772:
  2907   001790  AE27               	btfss	(___flmul@prod+2)^0,7,c
  2908   001792  EFCD  F00B         	goto	u5031
  2909   001796  EFCF  F00B         	goto	u5030
  2910   00179A                     u5031:
  2911   00179A  EFB3  F00B         	goto	l5766
  2912   00179E                     u5030:
  2913   00179E  0E00               	movlw	0
  2914   0017A0  6E23               	movwf	___flmul@aexp^0,c
  2915   0017A2  AE22               	btfss	(___flmul@grs+3)^0,7,c
  2916   0017A4  EFD6  F00B         	goto	u5041
  2917   0017A8  EFD8  F00B         	goto	u5040
  2918   0017AC                     u5041:
  2919   0017AC  EFFC  F00B         	goto	l2065
  2920   0017B0                     u5040:
  2921   0017B0  0EFF               	movlw	255
  2922   0017B2  141F               	andwf	___flmul@grs^0,w,c
  2923   0017B4  6E1A               	movwf	??___flmul^0,c
  2924   0017B6  0EFF               	movlw	255
  2925   0017B8  1420               	andwf	(___flmul@grs+1)^0,w,c
  2926   0017BA  6E1B               	movwf	(??___flmul+1)^0,c
  2927   0017BC  0EFF               	movlw	255
  2928   0017BE  1421               	andwf	(___flmul@grs+2)^0,w,c
  2929   0017C0  6E1C               	movwf	(??___flmul+2)^0,c
  2930   0017C2  0E7F               	movlw	127
  2931   0017C4  1422               	andwf	(___flmul@grs+3)^0,w,c
  2932   0017C6  6E1D               	movwf	(??___flmul+3)^0,c
  2933   0017C8  501A               	movf	??___flmul^0,w,c
  2934   0017CA  101B               	iorwf	(??___flmul+1)^0,w,c
  2935   0017CC  101C               	iorwf	(??___flmul+2)^0,w,c
  2936   0017CE  101D               	iorwf	(??___flmul+3)^0,w,c
  2937   0017D0  B4D8               	btfsc	status,2,c
  2938   0017D2  EFED  F00B         	goto	u5051
  2939   0017D6  EFEF  F00B         	goto	u5050
  2940   0017DA                     u5051:
  2941   0017DA  EFF3  F00B         	goto	l2066
  2942   0017DE                     u5050:
  2943   0017DE                     l5780:
  2944   0017DE  0E01               	movlw	1
  2945   0017E0  6E23               	movwf	___flmul@aexp^0,c
  2946   0017E2  EFFC  F00B         	goto	l2065
  2947   0017E6                     l2066:
  2948   0017E6  A025               	btfss	___flmul@prod^0,0,c
  2949   0017E8  EFF8  F00B         	goto	u5061
  2950   0017EC  EFFA  F00B         	goto	u5060
  2951   0017F0                     u5061:
  2952   0017F0  EFFC  F00B         	goto	l2065
  2953   0017F4                     u5060:
  2954   0017F4  EFEF  F00B         	goto	l5780
  2955   0017F8                     l2065:
  2956   0017F8  5023               	movf	___flmul@aexp^0,w,c
  2957   0017FA  B4D8               	btfsc	status,2,c
  2958   0017FC  EF02  F00C         	goto	u5071
  2959   001800  EF04  F00C         	goto	u5070
  2960   001804                     u5071:
  2961   001804  EF28  F00C         	goto	l5792
  2962   001808                     u5070:
  2963   001808  0E01               	movlw	1
  2964   00180A  2625               	addwf	___flmul@prod^0,f,c
  2965   00180C  0E00               	movlw	0
  2966   00180E  2226               	addwfc	(___flmul@prod+1)^0,f,c
  2967   001810  2227               	addwfc	(___flmul@prod+2)^0,f,c
  2968   001812  2228               	addwfc	(___flmul@prod+3)^0,f,c
  2969   001814  A028               	btfss	(___flmul@prod+3)^0,0,c
  2970   001816  EF0F  F00C         	goto	u5081
  2971   00181A  EF11  F00C         	goto	u5080
  2972   00181E                     u5081:
  2973   00181E  EF28  F00C         	goto	l5792
  2974   001822                     u5080:
  2975   001822  C025  F01A         	movff	___flmul@prod,??___flmul
  2976   001826  C026  F01B         	movff	___flmul@prod+1,??___flmul+1
  2977   00182A  C027  F01C         	movff	___flmul@prod+2,??___flmul+2
  2978   00182E  C028  F01D         	movff	___flmul@prod+3,??___flmul+3
  2979   001832  341D               	rlcf	(??___flmul+3)^0,w,c
  2980   001834  321D               	rrcf	(??___flmul+3)^0,f,c
  2981   001836  321C               	rrcf	(??___flmul+2)^0,f,c
  2982   001838  321B               	rrcf	(??___flmul+1)^0,f,c
  2983   00183A  321A               	rrcf	??___flmul^0,f,c
  2984   00183C  C01A  F025         	movff	??___flmul,___flmul@prod
  2985   001840  C01B  F026         	movff	??___flmul+1,___flmul@prod+1
  2986   001844  C01C  F027         	movff	??___flmul+2,___flmul@prod+2
  2987   001848  C01D  F028         	movff	??___flmul+3,___flmul@prod+3
  2988   00184C  4A29               	infsnz	___flmul@temp^0,f,c
  2989   00184E  2A2A               	incf	(___flmul@temp+1)^0,f,c
  2990   001850                     l5792:
  2991   001850  BE2A               	btfsc	(___flmul@temp+1)^0,7,c
  2992   001852  EF33  F00C         	goto	u5091
  2993   001856  502A               	movf	(___flmul@temp+1)^0,w,c
  2994   001858  E108               	bnz	u5090
  2995   00185A  2829               	incf	___flmul@temp^0,w,c
  2996   00185C  A0D8               	btfss	status,0,c
  2997   00185E  EF33  F00C         	goto	u5091
  2998   001862  EF35  F00C         	goto	u5090
  2999   001866                     u5091:
  3000   001866  EF3F  F00C         	goto	l5796
  3001   00186A                     u5090:
  3002   00186A  0E00               	movlw	0
  3003   00186C  6E25               	movwf	___flmul@prod^0,c
  3004   00186E  0E00               	movlw	0
  3005   001870  6E26               	movwf	(___flmul@prod+1)^0,c
  3006   001872  0E80               	movlw	128
  3007   001874  6E27               	movwf	(___flmul@prod+2)^0,c
  3008   001876  0E7F               	movlw	127
  3009   001878  6E28               	movwf	(___flmul@prod+3)^0,c
  3010   00187A  EF6D  F00C         	goto	l5808
  3011   00187E                     l5796:
  3012   00187E  BE2A               	btfsc	(___flmul@temp+1)^0,7,c
  3013   001880  EF4C  F00C         	goto	u5100
  3014   001884  502A               	movf	(___flmul@temp+1)^0,w,c
  3015   001886  E106               	bnz	u5101
  3016   001888  0429               	decf	___flmul@temp^0,w,c
  3017   00188A  B0D8               	btfsc	status,0,c
  3018   00188C  EF4A  F00C         	goto	u5101
  3019   001890  EF4C  F00C         	goto	u5100
  3020   001894                     u5101:
  3021   001894  EF58  F00C         	goto	l2073
  3022   001898                     u5100:
  3023   001898  0E00               	movlw	0
  3024   00189A  6E25               	movwf	___flmul@prod^0,c
  3025   00189C  0E00               	movlw	0
  3026   00189E  6E26               	movwf	(___flmul@prod+1)^0,c
  3027   0018A0  0E00               	movlw	0
  3028   0018A2  6E27               	movwf	(___flmul@prod+2)^0,c
  3029   0018A4  0E00               	movlw	0
  3030   0018A6  6E28               	movwf	(___flmul@prod+3)^0,c
  3031   0018A8  0E00               	movlw	0
  3032   0018AA  6E1E               	movwf	___flmul@sign^0,c
  3033   0018AC  EF6D  F00C         	goto	l5808
  3034   0018B0                     l2073:
  3035   0018B0  C029  F024         	movff	___flmul@temp,___flmul@bexp
  3036   0018B4  0EFF               	movlw	255
  3037   0018B6  1625               	andwf	___flmul@prod^0,f,c
  3038   0018B8  0EFF               	movlw	255
  3039   0018BA  1626               	andwf	(___flmul@prod+1)^0,f,c
  3040   0018BC  0E7F               	movlw	127
  3041   0018BE  1627               	andwf	(___flmul@prod+2)^0,f,c
  3042   0018C0  0E00               	movlw	0
  3043   0018C2  1628               	andwf	(___flmul@prod+3)^0,f,c
  3044   0018C4  A024               	btfss	___flmul@bexp^0,0,c
  3045   0018C6  EF67  F00C         	goto	u5111
  3046   0018CA  EF69  F00C         	goto	u5110
  3047   0018CE                     u5111:
  3048   0018CE  EF6A  F00C         	goto	l5806
  3049   0018D2                     u5110:
  3050   0018D2  8E27               	bsf	(___flmul@prod+2)^0,7,c
  3051   0018D4                     l5806:
  3052   0018D4  90D8               	bcf	status,0,c
  3053   0018D6  3024               	rrcf	___flmul@bexp^0,w,c
  3054   0018D8  6E28               	movwf	(___flmul@prod+3)^0,c
  3055   0018DA                     l5808:
  3056   0018DA  501E               	movf	___flmul@sign^0,w,c
  3057   0018DC  1228               	iorwf	(___flmul@prod+3)^0,f,c
  3058   0018DE  C025  F012         	movff	___flmul@prod,?___flmul
  3059   0018E2  C026  F013         	movff	___flmul@prod+1,?___flmul+1
  3060   0018E6  C027  F014         	movff	___flmul@prod+2,?___flmul+2
  3061   0018EA  C028  F015         	movff	___flmul@prod+3,?___flmul+3
  3062   0018EE                     l2060:
  3063   0018EE  0012               	return		;funcret
  3064   0018F0                     __end_of___flmul:
  3065                           	callstack 0
  3066                           
  3067 ;; *************** function ___fldiv *****************
  3068 ;; Defined at:
  3069 ;;		line 11 in file "E:\Program Files\Microchip\xc8\v2.41\pic\sources\c99\common\sprcdiv.c"
  3070 ;; Parameters:    Size  Location     Type
  3071 ;;  b               4   42[COMRAM] unsigned char 
  3072 ;;  a               4   46[COMRAM] unsigned char 
  3073 ;; Auto vars:     Size  Location     Type
  3074 ;;  grs             4   61[COMRAM] unsigned long 
  3075 ;;  rem             4   54[COMRAM] unsigned long 
  3076 ;;  new_exp         2   59[COMRAM] short 
  3077 ;;  aexp            1   66[COMRAM] unsigned char 
  3078 ;;  bexp            1   65[COMRAM] unsigned char 
  3079 ;;  sign            1   58[COMRAM] unsigned char 
  3080 ;; Return value:  Size  Location     Type
  3081 ;;                  4   42[COMRAM] unsigned char 
  3082 ;; Registers used:
  3083 ;;		wreg, status,2, status,0
  3084 ;; Tracked objects:
  3085 ;;		On entry : 0/0
  3086 ;;		On exit  : 0/0
  3087 ;;		Unchanged: 0/0
  3088 ;; Data sizes:     COMRAM   BANK0   BANK1   BANK2   BANK3   BANK4   BANK5   BANK6   BANK7   BANK8   BANK9  BANK10  BANK1
      +1  BANK12  BANK13  BANK14  BANK15
  3089 ;;      Params:         8       0       0       0       0       0       0       0       0       0       0       0       
      +0       0       0       0       0
  3090 ;;      Locals:        13       0       0       0       0       0       0       0       0       0       0       0       
      +0       0       0       0       0
  3091 ;;      Temps:          4       0       0       0       0       0       0       0       0       0       0       0       
      +0       0       0       0       0
  3092 ;;      Totals:        25       0       0       0       0       0       0       0       0       0       0       0       
      +0       0       0       0       0
  3093 ;;Total ram usage:       25 bytes
  3094 ;; Hardware stack levels used: 1
  3095 ;; Hardware stack levels required when called: 3
  3096 ;; This function calls:
  3097 ;;		Nothing
  3098 ;; This function is called by:
  3099 ;;		_i2c_int
  3100 ;;		_ccp2_int
  3101 ;;		_ccp2_pwm_set_duty
  3102 ;;		_buadrate_calculation
  3103 ;; This function uses a non-reentrant model
  3104 ;;
  3105                           
  3106                           	psect	text11
  3107   001CE6                     __ptext11:
  3108                           	callstack 0
  3109   001CE6                     ___fldiv:
  3110                           	callstack 26
  3111   001CE6  502E               	movf	(___fldiv@b+3)^0,w,c
  3112   001CE8  0B80               	andlw	128
  3113   001CEA  6E3B               	movwf	___fldiv@sign^0,c
  3114   001CEC  502E               	movf	(___fldiv@b+3)^0,w,c
  3115   001CEE  242E               	addwf	(___fldiv@b+3)^0,w,c
  3116   001CF0  6E42               	movwf	___fldiv@bexp^0,c
  3117   001CF2  AE2D               	btfss	(___fldiv@b+2)^0,7,c
  3118   001CF4  EF7E  F00E         	goto	u4701
  3119   001CF8  EF80  F00E         	goto	u4700
  3120   001CFC                     u4701:
  3121   001CFC  EF81  F00E         	goto	l5552
  3122   001D00                     u4700:
  3123   001D00  8042               	bsf	___fldiv@bexp^0,0,c
  3124   001D02                     l5552:
  3125   001D02  5042               	movf	___fldiv@bexp^0,w,c
  3126   001D04  B4D8               	btfsc	status,2,c
  3127   001D06  EF87  F00E         	goto	u4711
  3128   001D0A  EF89  F00E         	goto	u4710
  3129   001D0E                     u4711:
  3130   001D0E  EF9E  F00E         	goto	l5562
  3131   001D12                     u4710:
  3132   001D12  2842               	incf	___fldiv@bexp^0,w,c
  3133   001D14  A4D8               	btfss	status,2,c
  3134   001D16  EF8F  F00E         	goto	u4721
  3135   001D1A  EF91  F00E         	goto	u4720
  3136   001D1E                     u4721:
  3137   001D1E  EF99  F00E         	goto	l5558
  3138   001D22                     u4720:
  3139   001D22  0E00               	movlw	0
  3140   001D24  6E2B               	movwf	___fldiv@b^0,c
  3141   001D26  0E00               	movlw	0
  3142   001D28  6E2C               	movwf	(___fldiv@b+1)^0,c
  3143   001D2A  0E00               	movlw	0
  3144   001D2C  6E2D               	movwf	(___fldiv@b+2)^0,c
  3145   001D2E  0E00               	movlw	0
  3146   001D30  6E2E               	movwf	(___fldiv@b+3)^0,c
  3147   001D32                     l5558:
  3148   001D32  8E2D               	bsf	(___fldiv@b+2)^0,7,c
  3149   001D34  0E00               	movlw	0
  3150   001D36  6E2E               	movwf	(___fldiv@b+3)^0,c
  3151   001D38  EFA6  F00E         	goto	l5564
  3152   001D3C                     l5562:
  3153   001D3C  0E00               	movlw	0
  3154   001D3E  6E2B               	movwf	___fldiv@b^0,c
  3155   001D40  0E00               	movlw	0
  3156   001D42  6E2C               	movwf	(___fldiv@b+1)^0,c
  3157   001D44  0E00               	movlw	0
  3158   001D46  6E2D               	movwf	(___fldiv@b+2)^0,c
  3159   001D48  0E00               	movlw	0
  3160   001D4A  6E2E               	movwf	(___fldiv@b+3)^0,c
  3161   001D4C                     l5564:
  3162   001D4C  5032               	movf	(___fldiv@a+3)^0,w,c
  3163   001D4E  0B80               	andlw	128
  3164   001D50  1A3B               	xorwf	___fldiv@sign^0,f,c
  3165   001D52  5032               	movf	(___fldiv@a+3)^0,w,c
  3166   001D54  2432               	addwf	(___fldiv@a+3)^0,w,c
  3167   001D56  6E43               	movwf	___fldiv@aexp^0,c
  3168   001D58  AE31               	btfss	(___fldiv@a+2)^0,7,c
  3169   001D5A  EFB1  F00E         	goto	u4731
  3170   001D5E  EFB3  F00E         	goto	u4730
  3171   001D62                     u4731:
  3172   001D62  EFB4  F00E         	goto	l5572
  3173   001D66                     u4730:
  3174   001D66  8043               	bsf	___fldiv@aexp^0,0,c
  3175   001D68                     l5572:
  3176   001D68  5043               	movf	___fldiv@aexp^0,w,c
  3177   001D6A  B4D8               	btfsc	status,2,c
  3178   001D6C  EFBA  F00E         	goto	u4741
  3179   001D70  EFBC  F00E         	goto	u4740
  3180   001D74                     u4741:
  3181   001D74  EFD1  F00E         	goto	l5582
  3182   001D78                     u4740:
  3183   001D78  2843               	incf	___fldiv@aexp^0,w,c
  3184   001D7A  A4D8               	btfss	status,2,c
  3185   001D7C  EFC2  F00E         	goto	u4751
  3186   001D80  EFC4  F00E         	goto	u4750
  3187   001D84                     u4751:
  3188   001D84  EFCC  F00E         	goto	l5578
  3189   001D88                     u4750:
  3190   001D88  0E00               	movlw	0
  3191   001D8A  6E2F               	movwf	___fldiv@a^0,c
  3192   001D8C  0E00               	movlw	0
  3193   001D8E  6E30               	movwf	(___fldiv@a+1)^0,c
  3194   001D90  0E00               	movlw	0
  3195   001D92  6E31               	movwf	(___fldiv@a+2)^0,c
  3196   001D94  0E00               	movlw	0
  3197   001D96  6E32               	movwf	(___fldiv@a+3)^0,c
  3198   001D98                     l5578:
  3199   001D98  8E31               	bsf	(___fldiv@a+2)^0,7,c
  3200   001D9A  0E00               	movlw	0
  3201   001D9C  6E32               	movwf	(___fldiv@a+3)^0,c
  3202   001D9E  EFD9  F00E         	goto	l5584
  3203   001DA2                     l5582:
  3204   001DA2  0E00               	movlw	0
  3205   001DA4  6E2F               	movwf	___fldiv@a^0,c
  3206   001DA6  0E00               	movlw	0
  3207   001DA8  6E30               	movwf	(___fldiv@a+1)^0,c
  3208   001DAA  0E00               	movlw	0
  3209   001DAC  6E31               	movwf	(___fldiv@a+2)^0,c
  3210   001DAE  0E00               	movlw	0
  3211   001DB0  6E32               	movwf	(___fldiv@a+3)^0,c
  3212   001DB2                     l5584:
  3213   001DB2  502F               	movf	___fldiv@a^0,w,c
  3214   001DB4  1030               	iorwf	(___fldiv@a+1)^0,w,c
  3215   001DB6  1031               	iorwf	(___fldiv@a+2)^0,w,c
  3216   001DB8  1032               	iorwf	(___fldiv@a+3)^0,w,c
  3217   001DBA  A4D8               	btfss	status,2,c
  3218   001DBC  EFE2  F00E         	goto	u4761
  3219   001DC0  EFE4  F00E         	goto	u4760
  3220   001DC4                     u4761:
  3221   001DC4  EFFC  F00E         	goto	l5596
  3222   001DC8                     u4760:
  3223   001DC8  0E00               	movlw	0
  3224   001DCA  6E2B               	movwf	___fldiv@b^0,c
  3225   001DCC  0E00               	movlw	0
  3226   001DCE  6E2C               	movwf	(___fldiv@b+1)^0,c
  3227   001DD0  0E00               	movlw	0
  3228   001DD2  6E2D               	movwf	(___fldiv@b+2)^0,c
  3229   001DD4  0E00               	movlw	0
  3230   001DD6  6E2E               	movwf	(___fldiv@b+3)^0,c
  3231   001DD8  0E80               	movlw	128
  3232   001DDA  122D               	iorwf	(___fldiv@b+2)^0,f,c
  3233   001DDC  0E7F               	movlw	127
  3234   001DDE  122E               	iorwf	(___fldiv@b+3)^0,f,c
  3235   001DE0                     l5590:
  3236   001DE0  503B               	movf	___fldiv@sign^0,w,c
  3237   001DE2  122E               	iorwf	(___fldiv@b+3)^0,f,c
  3238   001DE4  C02B  F02B         	movff	___fldiv@b,?___fldiv
  3239   001DE8  C02C  F02C         	movff	___fldiv@b+1,?___fldiv+1
  3240   001DEC  C02D  F02D         	movff	___fldiv@b+2,?___fldiv+2
  3241   001DF0  C02E  F02E         	movff	___fldiv@b+3,?___fldiv+3
  3242   001DF4  EF3F  F010         	goto	l2024
  3243   001DF8                     l5596:
  3244   001DF8  5042               	movf	___fldiv@bexp^0,w,c
  3245   001DFA  A4D8               	btfss	status,2,c
  3246   001DFC  EF02  F00F         	goto	u4771
  3247   001E00  EF04  F00F         	goto	u4770
  3248   001E04                     u4771:
  3249   001E04  EF0E  F00F         	goto	l5604
  3250   001E08                     u4770:
  3251   001E08  0E00               	movlw	0
  3252   001E0A  6E2B               	movwf	?___fldiv^0,c
  3253   001E0C  0E00               	movlw	0
  3254   001E0E  6E2C               	movwf	(?___fldiv+1)^0,c
  3255   001E10  0E00               	movlw	0
  3256   001E12  6E2D               	movwf	(?___fldiv+2)^0,c
  3257   001E14  0E00               	movlw	0
  3258   001E16  6E2E               	movwf	(?___fldiv+3)^0,c
  3259   001E18  EF3F  F010         	goto	l2024
  3260   001E1C                     l5604:
  3261   001E1C  5043               	movf	___fldiv@aexp^0,w,c
  3262   001E1E  C042  F033         	movff	___fldiv@bexp,??___fldiv
  3263   001E22  6A34               	clrf	(??___fldiv+1)^0,c
  3264   001E24  5E33               	subwf	??___fldiv^0,f,c
  3265   001E26  0E00               	movlw	0
  3266   001E28  5A34               	subwfb	(??___fldiv+1)^0,f,c
  3267   001E2A  0E7F               	movlw	127
  3268   001E2C  2433               	addwf	??___fldiv^0,w,c
  3269   001E2E  6E3C               	movwf	___fldiv@new_exp^0,c
  3270   001E30  0E00               	movlw	0
  3271   001E32  2034               	addwfc	(??___fldiv+1)^0,w,c
  3272   001E34  6E3D               	movwf	(___fldiv@new_exp+1)^0,c
  3273   001E36  C02B  F037         	movff	___fldiv@b,___fldiv@rem
  3274   001E3A  C02C  F038         	movff	___fldiv@b+1,___fldiv@rem+1
  3275   001E3E  C02D  F039         	movff	___fldiv@b+2,___fldiv@rem+2
  3276   001E42  C02E  F03A         	movff	___fldiv@b+3,___fldiv@rem+3
  3277   001E46  0E00               	movlw	0
  3278   001E48  6E2B               	movwf	___fldiv@b^0,c
  3279   001E4A  0E00               	movlw	0
  3280   001E4C  6E2C               	movwf	(___fldiv@b+1)^0,c
  3281   001E4E  0E00               	movlw	0
  3282   001E50  6E2D               	movwf	(___fldiv@b+2)^0,c
  3283   001E52  0E00               	movlw	0
  3284   001E54  6E2E               	movwf	(___fldiv@b+3)^0,c
  3285   001E56  0E00               	movlw	0
  3286   001E58  6E3E               	movwf	___fldiv@grs^0,c
  3287   001E5A  0E00               	movlw	0
  3288   001E5C  6E3F               	movwf	(___fldiv@grs+1)^0,c
  3289   001E5E  0E00               	movlw	0
  3290   001E60  6E40               	movwf	(___fldiv@grs+2)^0,c
  3291   001E62  0E00               	movlw	0
  3292   001E64  6E41               	movwf	(___fldiv@grs+3)^0,c
  3293   001E66  0E00               	movlw	0
  3294   001E68  6E43               	movwf	___fldiv@aexp^0,c
  3295   001E6A  EF6F  F00F         	goto	l2026
  3296   001E6E                     l5614:
  3297   001E6E  5043               	movf	___fldiv@aexp^0,w,c
  3298   001E70  B4D8               	btfsc	status,2,c
  3299   001E72  EF3D  F00F         	goto	u4781
  3300   001E76  EF3F  F00F         	goto	u4780
  3301   001E7A                     u4781:
  3302   001E7A  EF56  F00F         	goto	l5622
  3303   001E7E                     u4780:
  3304   001E7E  90D8               	bcf	status,0,c
  3305   001E80  3637               	rlcf	___fldiv@rem^0,f,c
  3306   001E82  3638               	rlcf	(___fldiv@rem+1)^0,f,c
  3307   001E84  3639               	rlcf	(___fldiv@rem+2)^0,f,c
  3308   001E86  363A               	rlcf	(___fldiv@rem+3)^0,f,c
  3309   001E88  90D8               	bcf	status,0,c
  3310   001E8A  362B               	rlcf	___fldiv@b^0,f,c
  3311   001E8C  362C               	rlcf	(___fldiv@b+1)^0,f,c
  3312   001E8E  362D               	rlcf	(___fldiv@b+2)^0,f,c
  3313   001E90  362E               	rlcf	(___fldiv@b+3)^0,f,c
  3314   001E92  AE41               	btfss	(___fldiv@grs+3)^0,7,c
  3315   001E94  EF4E  F00F         	goto	u4791
  3316   001E98  EF50  F00F         	goto	u4790
  3317   001E9C                     u4791:
  3318   001E9C  EF51  F00F         	goto	l2029
  3319   001EA0                     u4790:
  3320   001EA0  802B               	bsf	___fldiv@b^0,0,c
  3321   001EA2                     l2029:
  3322   001EA2  90D8               	bcf	status,0,c
  3323   001EA4  363E               	rlcf	___fldiv@grs^0,f,c
  3324   001EA6  363F               	rlcf	(___fldiv@grs+1)^0,f,c
  3325   001EA8  3640               	rlcf	(___fldiv@grs+2)^0,f,c
  3326   001EAA  3641               	rlcf	(___fldiv@grs+3)^0,f,c
  3327   001EAC                     l5622:
  3328   001EAC  502F               	movf	___fldiv@a^0,w,c
  3329   001EAE  5C37               	subwf	___fldiv@rem^0,w,c
  3330   001EB0  5030               	movf	(___fldiv@a+1)^0,w,c
  3331   001EB2  5838               	subwfb	(___fldiv@rem+1)^0,w,c
  3332   001EB4  5031               	movf	(___fldiv@a+2)^0,w,c
  3333   001EB6  5839               	subwfb	(___fldiv@rem+2)^0,w,c
  3334   001EB8  5032               	movf	(___fldiv@a+3)^0,w,c
  3335   001EBA  583A               	subwfb	(___fldiv@rem+3)^0,w,c
  3336   001EBC  A0D8               	btfss	status,0,c
  3337   001EBE  EF63  F00F         	goto	u4801
  3338   001EC2  EF65  F00F         	goto	u4800
  3339   001EC6                     u4801:
  3340   001EC6  EF6E  F00F         	goto	l5628
  3341   001ECA                     u4800:
  3342   001ECA  8C41               	bsf	(___fldiv@grs+3)^0,6,c
  3343   001ECC  502F               	movf	___fldiv@a^0,w,c
  3344   001ECE  5E37               	subwf	___fldiv@rem^0,f,c
  3345   001ED0  5030               	movf	(___fldiv@a+1)^0,w,c
  3346   001ED2  5A38               	subwfb	(___fldiv@rem+1)^0,f,c
  3347   001ED4  5031               	movf	(___fldiv@a+2)^0,w,c
  3348   001ED6  5A39               	subwfb	(___fldiv@rem+2)^0,f,c
  3349   001ED8  5032               	movf	(___fldiv@a+3)^0,w,c
  3350   001EDA  5A3A               	subwfb	(___fldiv@rem+3)^0,f,c
  3351   001EDC                     l5628:
  3352   001EDC  2A43               	incf	___fldiv@aexp^0,f,c
  3353   001EDE                     l2026:
  3354   001EDE  0E19               	movlw	25
  3355   001EE0  6443               	cpfsgt	___fldiv@aexp^0,c
  3356   001EE2  EF75  F00F         	goto	u4811
  3357   001EE6  EF77  F00F         	goto	u4810
  3358   001EEA                     u4811:
  3359   001EEA  EF37  F00F         	goto	l5614
  3360   001EEE                     u4810:
  3361   001EEE  5037               	movf	___fldiv@rem^0,w,c
  3362   001EF0  1038               	iorwf	(___fldiv@rem+1)^0,w,c
  3363   001EF2  1039               	iorwf	(___fldiv@rem+2)^0,w,c
  3364   001EF4  103A               	iorwf	(___fldiv@rem+3)^0,w,c
  3365   001EF6  B4D8               	btfsc	status,2,c
  3366   001EF8  EF80  F00F         	goto	u4821
  3367   001EFC  EF82  F00F         	goto	u4820
  3368   001F00                     u4821:
  3369   001F00  EF9A  F00F         	goto	l5640
  3370   001F04                     u4820:
  3371   001F04  803E               	bsf	___fldiv@grs^0,0,c
  3372   001F06  EF9A  F00F         	goto	l5640
  3373   001F0A                     l5634:
  3374   001F0A  90D8               	bcf	status,0,c
  3375   001F0C  362B               	rlcf	___fldiv@b^0,f,c
  3376   001F0E  362C               	rlcf	(___fldiv@b+1)^0,f,c
  3377   001F10  362D               	rlcf	(___fldiv@b+2)^0,f,c
  3378   001F12  362E               	rlcf	(___fldiv@b+3)^0,f,c
  3379   001F14  AE41               	btfss	(___fldiv@grs+3)^0,7,c
  3380   001F16  EF8F  F00F         	goto	u4831
  3381   001F1A  EF91  F00F         	goto	u4830
  3382   001F1E                     u4831:
  3383   001F1E  EF92  F00F         	goto	l2035
  3384   001F22                     u4830:
  3385   001F22  802B               	bsf	___fldiv@b^0,0,c
  3386   001F24                     l2035:
  3387   001F24  90D8               	bcf	status,0,c
  3388   001F26  363E               	rlcf	___fldiv@grs^0,f,c
  3389   001F28  363F               	rlcf	(___fldiv@grs+1)^0,f,c
  3390   001F2A  3640               	rlcf	(___fldiv@grs+2)^0,f,c
  3391   001F2C  3641               	rlcf	(___fldiv@grs+3)^0,f,c
  3392   001F2E  063C               	decf	___fldiv@new_exp^0,f,c
  3393   001F30  A0D8               	btfss	status,0,c
  3394   001F32  063D               	decf	(___fldiv@new_exp+1)^0,f,c
  3395   001F34                     l5640:
  3396   001F34  AE2D               	btfss	(___fldiv@b+2)^0,7,c
  3397   001F36  EF9F  F00F         	goto	u4841
  3398   001F3A  EFA1  F00F         	goto	u4840
  3399   001F3E                     u4841:
  3400   001F3E  EF85  F00F         	goto	l5634
  3401   001F42                     u4840:
  3402   001F42  0E00               	movlw	0
  3403   001F44  6E43               	movwf	___fldiv@aexp^0,c
  3404   001F46  AE41               	btfss	(___fldiv@grs+3)^0,7,c
  3405   001F48  EFA8  F00F         	goto	u4851
  3406   001F4C  EFAA  F00F         	goto	u4850
  3407   001F50                     u4851:
  3408   001F50  EFCE  F00F         	goto	l2037
  3409   001F54                     u4850:
  3410   001F54  0EFF               	movlw	255
  3411   001F56  143E               	andwf	___fldiv@grs^0,w,c
  3412   001F58  6E33               	movwf	??___fldiv^0,c
  3413   001F5A  0EFF               	movlw	255
  3414   001F5C  143F               	andwf	(___fldiv@grs+1)^0,w,c
  3415   001F5E  6E34               	movwf	(??___fldiv+1)^0,c
  3416   001F60  0EFF               	movlw	255
  3417   001F62  1440               	andwf	(___fldiv@grs+2)^0,w,c
  3418   001F64  6E35               	movwf	(??___fldiv+2)^0,c
  3419   001F66  0E7F               	movlw	127
  3420   001F68  1441               	andwf	(___fldiv@grs+3)^0,w,c
  3421   001F6A  6E36               	movwf	(??___fldiv+3)^0,c
  3422   001F6C  5033               	movf	??___fldiv^0,w,c
  3423   001F6E  1034               	iorwf	(??___fldiv+1)^0,w,c
  3424   001F70  1035               	iorwf	(??___fldiv+2)^0,w,c
  3425   001F72  1036               	iorwf	(??___fldiv+3)^0,w,c
  3426   001F74  B4D8               	btfsc	status,2,c
  3427   001F76  EFBF  F00F         	goto	u4861
  3428   001F7A  EFC1  F00F         	goto	u4860
  3429   001F7E                     u4861:
  3430   001F7E  EFC5  F00F         	goto	l2038
  3431   001F82                     u4860:
  3432   001F82                     l5648:
  3433   001F82  0E01               	movlw	1
  3434   001F84  6E43               	movwf	___fldiv@aexp^0,c
  3435   001F86  EFCE  F00F         	goto	l2037
  3436   001F8A                     l2038:
  3437   001F8A  A02B               	btfss	___fldiv@b^0,0,c
  3438   001F8C  EFCA  F00F         	goto	u4871
  3439   001F90  EFCC  F00F         	goto	u4870
  3440   001F94                     u4871:
  3441   001F94  EFCE  F00F         	goto	l2037
  3442   001F98                     u4870:
  3443   001F98  EFC1  F00F         	goto	l5648
  3444   001F9C                     l2037:
  3445   001F9C  5043               	movf	___fldiv@aexp^0,w,c
  3446   001F9E  B4D8               	btfsc	status,2,c
  3447   001FA0  EFD4  F00F         	goto	u4881
  3448   001FA4  EFD6  F00F         	goto	u4880
  3449   001FA8                     u4881:
  3450   001FA8  EFFA  F00F         	goto	l5660
  3451   001FAC                     u4880:
  3452   001FAC  0E01               	movlw	1
  3453   001FAE  262B               	addwf	___fldiv@b^0,f,c
  3454   001FB0  0E00               	movlw	0
  3455   001FB2  222C               	addwfc	(___fldiv@b+1)^0,f,c
  3456   001FB4  222D               	addwfc	(___fldiv@b+2)^0,f,c
  3457   001FB6  222E               	addwfc	(___fldiv@b+3)^0,f,c
  3458   001FB8  A02E               	btfss	(___fldiv@b+3)^0,0,c
  3459   001FBA  EFE1  F00F         	goto	u4891
  3460   001FBE  EFE3  F00F         	goto	u4890
  3461   001FC2                     u4891:
  3462   001FC2  EFFA  F00F         	goto	l5660
  3463   001FC6                     u4890:
  3464   001FC6  C02B  F033         	movff	___fldiv@b,??___fldiv
  3465   001FCA  C02C  F034         	movff	___fldiv@b+1,??___fldiv+1
  3466   001FCE  C02D  F035         	movff	___fldiv@b+2,??___fldiv+2
  3467   001FD2  C02E  F036         	movff	___fldiv@b+3,??___fldiv+3
  3468   001FD6  3436               	rlcf	(??___fldiv+3)^0,w,c
  3469   001FD8  3236               	rrcf	(??___fldiv+3)^0,f,c
  3470   001FDA  3235               	rrcf	(??___fldiv+2)^0,f,c
  3471   001FDC  3234               	rrcf	(??___fldiv+1)^0,f,c
  3472   001FDE  3233               	rrcf	??___fldiv^0,f,c
  3473   001FE0  C033  F02B         	movff	??___fldiv,___fldiv@b
  3474   001FE4  C034  F02C         	movff	??___fldiv+1,___fldiv@b+1
  3475   001FE8  C035  F02D         	movff	??___fldiv+2,___fldiv@b+2
  3476   001FEC  C036  F02E         	movff	??___fldiv+3,___fldiv@b+3
  3477   001FF0  4A3C               	infsnz	___fldiv@new_exp^0,f,c
  3478   001FF2  2A3D               	incf	(___fldiv@new_exp+1)^0,f,c
  3479   001FF4                     l5660:
  3480   001FF4  BE3D               	btfsc	(___fldiv@new_exp+1)^0,7,c
  3481   001FF6  EF05  F010         	goto	u4901
  3482   001FFA  503D               	movf	(___fldiv@new_exp+1)^0,w,c
  3483   001FFC  E108               	bnz	u4900
  3484   001FFE  283C               	incf	___fldiv@new_exp^0,w,c
  3485   002000  A0D8               	btfss	status,0,c
  3486   002002  EF05  F010         	goto	u4901
  3487   002006  EF07  F010         	goto	u4900
  3488   00200A                     u4901:
  3489   00200A  EF12  F010         	goto	l5664
  3490   00200E                     u4900:
  3491   00200E  0E00               	movlw	0
  3492   002010  6E3D               	movwf	(___fldiv@new_exp+1)^0,c
  3493   002012  683C               	setf	___fldiv@new_exp^0,c
  3494   002014  0E00               	movlw	0
  3495   002016  6E2B               	movwf	___fldiv@b^0,c
  3496   002018  0E00               	movlw	0
  3497   00201A  6E2C               	movwf	(___fldiv@b+1)^0,c
  3498   00201C  0E00               	movlw	0
  3499   00201E  6E2D               	movwf	(___fldiv@b+2)^0,c
  3500   002020  0E00               	movlw	0
  3501   002022  6E2E               	movwf	(___fldiv@b+3)^0,c
  3502   002024                     l5664:
  3503   002024  BE3D               	btfsc	(___fldiv@new_exp+1)^0,7,c
  3504   002026  EF1F  F010         	goto	u4910
  3505   00202A  503D               	movf	(___fldiv@new_exp+1)^0,w,c
  3506   00202C  E106               	bnz	u4911
  3507   00202E  043C               	decf	___fldiv@new_exp^0,w,c
  3508   002030  B0D8               	btfsc	status,0,c
  3509   002032  EF1D  F010         	goto	u4911
  3510   002036  EF1F  F010         	goto	u4910
  3511   00203A                     u4911:
  3512   00203A  EF2D  F010         	goto	l5668
  3513   00203E                     u4910:
  3514   00203E  0E00               	movlw	0
  3515   002040  6E3D               	movwf	(___fldiv@new_exp+1)^0,c
  3516   002042  0E00               	movlw	0
  3517   002044  6E3C               	movwf	___fldiv@new_exp^0,c
  3518   002046  0E00               	movlw	0
  3519   002048  6E2B               	movwf	___fldiv@b^0,c
  3520   00204A  0E00               	movlw	0
  3521   00204C  6E2C               	movwf	(___fldiv@b+1)^0,c
  3522   00204E  0E00               	movlw	0
  3523   002050  6E2D               	movwf	(___fldiv@b+2)^0,c
  3524   002052  0E00               	movlw	0
  3525   002054  6E2E               	movwf	(___fldiv@b+3)^0,c
  3526   002056  0E00               	movlw	0
  3527   002058  6E3B               	movwf	___fldiv@sign^0,c
  3528   00205A                     l5668:
  3529   00205A  C03C  F042         	movff	___fldiv@new_exp,___fldiv@bexp
  3530   00205E  A042               	btfss	___fldiv@bexp^0,0,c
  3531   002060  EF34  F010         	goto	u4921
  3532   002064  EF36  F010         	goto	u4920
  3533   002068                     u4921:
  3534   002068  EF39  F010         	goto	l5674
  3535   00206C                     u4920:
  3536   00206C  8E2D               	bsf	(___fldiv@b+2)^0,7,c
  3537   00206E  EF3A  F010         	goto	l5676
  3538   002072                     l5674:
  3539   002072  9E2D               	bcf	(___fldiv@b+2)^0,7,c
  3540   002074                     l5676:
  3541   002074  90D8               	bcf	status,0,c
  3542   002076  3042               	rrcf	___fldiv@bexp^0,w,c
  3543   002078  6E2E               	movwf	(___fldiv@b+3)^0,c
  3544   00207A  EFF0  F00E         	goto	l5590
  3545   00207E                     l2024:
  3546   00207E  0012               	return		;funcret
  3547   002080                     __end_of___fldiv:
  3548                           	callstack 0
  3549                           
  3550 ;; *************** function ___fladd *****************
  3551 ;; Defined at:
  3552 ;;		line 10 in file "E:\Program Files\Microchip\xc8\v2.41\pic\sources\c99\common\sprcadd.c"
  3553 ;; Parameters:    Size  Location     Type
  3554 ;;  b               4   67[COMRAM] unsigned char 
  3555 ;;  a               4   71[COMRAM] unsigned char 
  3556 ;; Auto vars:     Size  Location     Type
  3557 ;;  grs             1   82[COMRAM] unsigned char 
  3558 ;;  bexp            1   81[COMRAM] unsigned char 
  3559 ;;  aexp            1   80[COMRAM] unsigned char 
  3560 ;;  signs           1   79[COMRAM] unsigned char 
  3561 ;; Return value:  Size  Location     Type
  3562 ;;                  4   67[COMRAM] unsigned char 
  3563 ;; Registers used:
  3564 ;;		wreg, status,2, status,0
  3565 ;; Tracked objects:
  3566 ;;		On entry : 0/0
  3567 ;;		On exit  : 0/0
  3568 ;;		Unchanged: 0/0
  3569 ;; Data sizes:     COMRAM   BANK0   BANK1   BANK2   BANK3   BANK4   BANK5   BANK6   BANK7   BANK8   BANK9  BANK10  BANK1
      +1  BANK12  BANK13  BANK14  BANK15
  3570 ;;      Params:         8       0       0       0       0       0       0       0       0       0       0       0       
      +0       0       0       0       0
  3571 ;;      Locals:         4       0       0       0       0       0       0       0       0       0       0       0       
      +0       0       0       0       0
  3572 ;;      Temps:          4       0       0       0       0       0       0       0       0       0       0       0       
      +0       0       0       0       0
  3573 ;;      Totals:        16       0       0       0       0       0       0       0       0       0       0       0       
      +0       0       0       0       0
  3574 ;;Total ram usage:       16 bytes
  3575 ;; Hardware stack levels used: 1
  3576 ;; Hardware stack levels required when called: 3
  3577 ;; This function calls:
  3578 ;;		Nothing
  3579 ;; This function is called by:
  3580 ;;		_i2c_int
  3581 ;;		_ccp2_int
  3582 ;;		_buadrate_calculation
  3583 ;; This function uses a non-reentrant model
  3584 ;;
  3585                           
  3586                           	psect	text12
  3587   001006                     __ptext12:
  3588                           	callstack 0
  3589   001006                     ___fladd:
  3590                           	callstack 26
  3591   001006  5047               	movf	(___fladd@b+3)^0,w,c
  3592   001008  0B80               	andlw	128
  3593   00100A  6E50               	movwf	___fladd@signs^0,c
  3594   00100C  5047               	movf	(___fladd@b+3)^0,w,c
  3595   00100E  2447               	addwf	(___fladd@b+3)^0,w,c
  3596   001010  6E52               	movwf	___fladd@bexp^0,c
  3597   001012  AE46               	btfss	(___fladd@b+2)^0,7,c
  3598   001014  EF0E  F008         	goto	u4311
  3599   001018  EF10  F008         	goto	u4310
  3600   00101C                     u4311:
  3601   00101C  EF11  F008         	goto	l5350
  3602   001020                     u4310:
  3603   001020  8052               	bsf	___fladd@bexp^0,0,c
  3604   001022                     l5350:
  3605   001022  5052               	movf	___fladd@bexp^0,w,c
  3606   001024  B4D8               	btfsc	status,2,c
  3607   001026  EF17  F008         	goto	u4321
  3608   00102A  EF19  F008         	goto	u4320
  3609   00102E                     u4321:
  3610   00102E  EF2E  F008         	goto	l5360
  3611   001032                     u4320:
  3612   001032  2852               	incf	___fladd@bexp^0,w,c
  3613   001034  A4D8               	btfss	status,2,c
  3614   001036  EF1F  F008         	goto	u4331
  3615   00103A  EF21  F008         	goto	u4330
  3616   00103E                     u4331:
  3617   00103E  EF29  F008         	goto	l5356
  3618   001042                     u4330:
  3619   001042  0E00               	movlw	0
  3620   001044  6E44               	movwf	___fladd@b^0,c
  3621   001046  0E00               	movlw	0
  3622   001048  6E45               	movwf	(___fladd@b+1)^0,c
  3623   00104A  0E00               	movlw	0
  3624   00104C  6E46               	movwf	(___fladd@b+2)^0,c
  3625   00104E  0E00               	movlw	0
  3626   001050  6E47               	movwf	(___fladd@b+3)^0,c
  3627   001052                     l5356:
  3628   001052  8E46               	bsf	(___fladd@b+2)^0,7,c
  3629   001054  0E00               	movlw	0
  3630   001056  6E47               	movwf	(___fladd@b+3)^0,c
  3631   001058  EF36  F008         	goto	l5362
  3632   00105C                     l5360:
  3633   00105C  0E00               	movlw	0
  3634   00105E  6E44               	movwf	___fladd@b^0,c
  3635   001060  0E00               	movlw	0
  3636   001062  6E45               	movwf	(___fladd@b+1)^0,c
  3637   001064  0E00               	movlw	0
  3638   001066  6E46               	movwf	(___fladd@b+2)^0,c
  3639   001068  0E00               	movlw	0
  3640   00106A  6E47               	movwf	(___fladd@b+3)^0,c
  3641   00106C                     l5362:
  3642   00106C  504B               	movf	(___fladd@a+3)^0,w,c
  3643   00106E  0B80               	andlw	128
  3644   001070  6E51               	movwf	___fladd@aexp^0,c
  3645   001072  5050               	movf	___fladd@signs^0,w,c
  3646   001074  1851               	xorwf	___fladd@aexp^0,w,c
  3647   001076  B4D8               	btfsc	status,2,c
  3648   001078  EF40  F008         	goto	u4341
  3649   00107C  EF42  F008         	goto	u4340
  3650   001080                     u4341:
  3651   001080  EF43  F008         	goto	l5368
  3652   001084                     u4340:
  3653   001084  8C50               	bsf	___fladd@signs^0,6,c
  3654   001086                     l5368:
  3655   001086  504B               	movf	(___fladd@a+3)^0,w,c
  3656   001088  244B               	addwf	(___fladd@a+3)^0,w,c
  3657   00108A  6E51               	movwf	___fladd@aexp^0,c
  3658   00108C  AE4A               	btfss	(___fladd@a+2)^0,7,c
  3659   00108E  EF4B  F008         	goto	u4351
  3660   001092  EF4D  F008         	goto	u4350
  3661   001096                     u4351:
  3662   001096  EF4E  F008         	goto	l5374
  3663   00109A                     u4350:
  3664   00109A  8051               	bsf	___fladd@aexp^0,0,c
  3665   00109C                     l5374:
  3666   00109C  5051               	movf	___fladd@aexp^0,w,c
  3667   00109E  B4D8               	btfsc	status,2,c
  3668   0010A0  EF54  F008         	goto	u4361
  3669   0010A4  EF56  F008         	goto	u4360
  3670   0010A8                     u4361:
  3671   0010A8  EF6B  F008         	goto	l5384
  3672   0010AC                     u4360:
  3673   0010AC  2851               	incf	___fladd@aexp^0,w,c
  3674   0010AE  A4D8               	btfss	status,2,c
  3675   0010B0  EF5C  F008         	goto	u4371
  3676   0010B4  EF5E  F008         	goto	u4370
  3677   0010B8                     u4371:
  3678   0010B8  EF66  F008         	goto	l5380
  3679   0010BC                     u4370:
  3680   0010BC  0E00               	movlw	0
  3681   0010BE  6E48               	movwf	___fladd@a^0,c
  3682   0010C0  0E00               	movlw	0
  3683   0010C2  6E49               	movwf	(___fladd@a+1)^0,c
  3684   0010C4  0E00               	movlw	0
  3685   0010C6  6E4A               	movwf	(___fladd@a+2)^0,c
  3686   0010C8  0E00               	movlw	0
  3687   0010CA  6E4B               	movwf	(___fladd@a+3)^0,c
  3688   0010CC                     l5380:
  3689   0010CC  8E4A               	bsf	(___fladd@a+2)^0,7,c
  3690   0010CE  0E00               	movlw	0
  3691   0010D0  6E4B               	movwf	(___fladd@a+3)^0,c
  3692   0010D2  EF73  F008         	goto	l5386
  3693   0010D6                     l5384:
  3694   0010D6  0E00               	movlw	0
  3695   0010D8  6E48               	movwf	___fladd@a^0,c
  3696   0010DA  0E00               	movlw	0
  3697   0010DC  6E49               	movwf	(___fladd@a+1)^0,c
  3698   0010DE  0E00               	movlw	0
  3699   0010E0  6E4A               	movwf	(___fladd@a+2)^0,c
  3700   0010E2  0E00               	movlw	0
  3701   0010E4  6E4B               	movwf	(___fladd@a+3)^0,c
  3702   0010E6                     l5386:
  3703   0010E6  5052               	movf	___fladd@bexp^0,w,c
  3704   0010E8  5C51               	subwf	___fladd@aexp^0,w,c
  3705   0010EA  B0D8               	btfsc	status,0,c
  3706   0010EC  EF7A  F008         	goto	u4381
  3707   0010F0  EF7C  F008         	goto	u4380
  3708   0010F4                     u4381:
  3709   0010F4  EFA3  F008         	goto	l5422
  3710   0010F8                     u4380:
  3711   0010F8  AC50               	btfss	___fladd@signs^0,6,c
  3712   0010FA  EF81  F008         	goto	u4391
  3713   0010FE  EF83  F008         	goto	u4390
  3714   001102                     u4391:
  3715   001102  EF85  F008         	goto	l5392
  3716   001106                     u4390:
  3717   001106  0E80               	movlw	128
  3718   001108  1A50               	xorwf	___fladd@signs^0,f,c
  3719   00110A                     l5392:
  3720   00110A  C052  F053         	movff	___fladd@bexp,___fladd@grs
  3721   00110E  C051  F052         	movff	___fladd@aexp,___fladd@bexp
  3722   001112  C053  F051         	movff	___fladd@grs,___fladd@aexp
  3723   001116  C044  F053         	movff	___fladd@b,___fladd@grs
  3724   00111A  C048  F044         	movff	___fladd@a,___fladd@b
  3725   00111E  C053  F048         	movff	___fladd@grs,___fladd@a
  3726   001122  C045  F053         	movff	___fladd@b+1,___fladd@grs
  3727   001126  C049  F045         	movff	___fladd@a+1,___fladd@b+1
  3728   00112A  C053  F049         	movff	___fladd@grs,___fladd@a+1
  3729   00112E  C046  F053         	movff	___fladd@b+2,___fladd@grs
  3730   001132  C04A  F046         	movff	___fladd@a+2,___fladd@b+2
  3731   001136  C053  F04A         	movff	___fladd@grs,___fladd@a+2
  3732   00113A  C047  F053         	movff	___fladd@b+3,___fladd@grs
  3733   00113E  C04B  F047         	movff	___fladd@a+3,___fladd@b+3
  3734   001142  C053  F04B         	movff	___fladd@grs,___fladd@a+3
  3735   001146                     l5422:
  3736   001146  0E00               	movlw	0
  3737   001148  6E53               	movwf	___fladd@grs^0,c
  3738   00114A  5052               	movf	___fladd@bexp^0,w,c
  3739   00114C  C051  F04C         	movff	___fladd@aexp,??___fladd
  3740   001150  6A4D               	clrf	(??___fladd+1)^0,c
  3741   001152  5E4C               	subwf	??___fladd^0,f,c
  3742   001154  0E00               	movlw	0
  3743   001156  5A4D               	subwfb	(??___fladd+1)^0,f,c
  3744   001158  BE4D               	btfsc	(??___fladd+1)^0,7,c
  3745   00115A  EFB8  F008         	goto	u4401
  3746   00115E  504D               	movf	(??___fladd+1)^0,w,c
  3747   001160  E109               	bnz	u4400
  3748   001162  0E1A               	movlw	26
  3749   001164  5C4C               	subwf	??___fladd^0,w,c
  3750   001166  A0D8               	btfss	status,0,c
  3751   001168  EFB8  F008         	goto	u4401
  3752   00116C  EFBA  F008         	goto	u4400
  3753   001170                     u4401:
  3754   001170  EFF1  F008         	goto	l1971
  3755   001174                     u4400:
  3756   001174  5044               	movf	___fladd@b^0,w,c
  3757   001176  1045               	iorwf	(___fladd@b+1)^0,w,c
  3758   001178  1046               	iorwf	(___fladd@b+2)^0,w,c
  3759   00117A  1047               	iorwf	(___fladd@b+3)^0,w,c
  3760   00117C  A4D8               	btfss	status,2,c
  3761   00117E  EFC3  F008         	goto	u4411
  3762   001182  EFC6  F008         	goto	u4410
  3763   001186                     u4411:
  3764   001186  0E01               	movlw	1
  3765   001188  EFC7  F008         	goto	u4420
  3766   00118C                     u4410:
  3767   00118C  0E00               	movlw	0
  3768   00118E                     u4420:
  3769   00118E  6E53               	movwf	___fladd@grs^0,c
  3770   001190  0E00               	movlw	0
  3771   001192  6E44               	movwf	___fladd@b^0,c
  3772   001194  0E00               	movlw	0
  3773   001196  6E45               	movwf	(___fladd@b+1)^0,c
  3774   001198  0E00               	movlw	0
  3775   00119A  6E46               	movwf	(___fladd@b+2)^0,c
  3776   00119C  0E00               	movlw	0
  3777   00119E  6E47               	movwf	(___fladd@b+3)^0,c
  3778   0011A0  C051  F052         	movff	___fladd@aexp,___fladd@bexp
  3779   0011A4  EFFA  F008         	goto	l1970
  3780   0011A8                     l1972:
  3781   0011A8  A053               	btfss	___fladd@grs^0,0,c
  3782   0011AA  EFD9  F008         	goto	u4431
  3783   0011AE  EFDB  F008         	goto	u4430
  3784   0011B2                     u4431:
  3785   0011B2  EFE1  F008         	goto	l5434
  3786   0011B6                     u4430:
  3787   0011B6  90D8               	bcf	status,0,c
  3788   0011B8  3053               	rrcf	___fladd@grs^0,w,c
  3789   0011BA  0901               	iorlw	1
  3790   0011BC  6E53               	movwf	___fladd@grs^0,c
  3791   0011BE  EFE3  F008         	goto	l5436
  3792   0011C2                     l5434:
  3793   0011C2  90D8               	bcf	status,0,c
  3794   0011C4  3253               	rrcf	___fladd@grs^0,f,c
  3795   0011C6                     l5436:
  3796   0011C6  A044               	btfss	___fladd@b^0,0,c
  3797   0011C8  EFE8  F008         	goto	u4441
  3798   0011CC  EFEA  F008         	goto	u4440
  3799   0011D0                     u4441:
  3800   0011D0  EFEB  F008         	goto	l5440
  3801   0011D4                     u4440:
  3802   0011D4  8E53               	bsf	___fladd@grs^0,7,c
  3803   0011D6                     l5440:
  3804   0011D6  3447               	rlcf	(___fladd@b+3)^0,w,c
  3805   0011D8  3247               	rrcf	(___fladd@b+3)^0,f,c
  3806   0011DA  3246               	rrcf	(___fladd@b+2)^0,f,c
  3807   0011DC  3245               	rrcf	(___fladd@b+1)^0,f,c
  3808   0011DE  3244               	rrcf	___fladd@b^0,f,c
  3809   0011E0  2A52               	incf	___fladd@bexp^0,f,c
  3810   0011E2                     l1971:
  3811   0011E2  5051               	movf	___fladd@aexp^0,w,c
  3812   0011E4  5C52               	subwf	___fladd@bexp^0,w,c
  3813   0011E6  A0D8               	btfss	status,0,c
  3814   0011E8  EFF8  F008         	goto	u4451
  3815   0011EC  EFFA  F008         	goto	u4450
  3816   0011F0                     u4451:
  3817   0011F0  EFD4  F008         	goto	l1972
  3818   0011F4                     u4450:
  3819   0011F4                     l1970:
  3820   0011F4  BC50               	btfsc	___fladd@signs^0,6,c
  3821   0011F6  EFFF  F008         	goto	u4461
  3822   0011FA  EF01  F009         	goto	u4460
  3823   0011FE                     u4461:
  3824   0011FE  EF41  F009         	goto	l5468
  3825   001202                     u4460:
  3826   001202  5052               	movf	___fladd@bexp^0,w,c
  3827   001204  A4D8               	btfss	status,2,c
  3828   001206  EF07  F009         	goto	u4471
  3829   00120A  EF09  F009         	goto	u4470
  3830   00120E                     u4471:
  3831   00120E  EF13  F009         	goto	l5450
  3832   001212                     u4470:
  3833   001212  0E00               	movlw	0
  3834   001214  6E44               	movwf	?___fladd^0,c
  3835   001216  0E00               	movlw	0
  3836   001218  6E45               	movwf	(?___fladd+1)^0,c
  3837   00121A  0E00               	movlw	0
  3838   00121C  6E46               	movwf	(?___fladd+2)^0,c
  3839   00121E  0E00               	movlw	0
  3840   001220  6E47               	movwf	(?___fladd+3)^0,c
  3841   001222  EF62  F00A         	goto	l1979
  3842   001226                     l5450:
  3843   001226  5048               	movf	___fladd@a^0,w,c
  3844   001228  2644               	addwf	___fladd@b^0,f,c
  3845   00122A  5049               	movf	(___fladd@a+1)^0,w,c
  3846   00122C  2245               	addwfc	(___fladd@b+1)^0,f,c
  3847   00122E  504A               	movf	(___fladd@a+2)^0,w,c
  3848   001230  2246               	addwfc	(___fladd@b+2)^0,f,c
  3849   001232  504B               	movf	(___fladd@a+3)^0,w,c
  3850   001234  2247               	addwfc	(___fladd@b+3)^0,f,c
  3851   001236  A047               	btfss	(___fladd@b+3)^0,0,c
  3852   001238  EF20  F009         	goto	u4481
  3853   00123C  EF22  F009         	goto	u4480
  3854   001240                     u4481:
  3855   001240  EFCE  F009         	goto	l5504
  3856   001244                     u4480:
  3857   001244  A053               	btfss	___fladd@grs^0,0,c
  3858   001246  EF27  F009         	goto	u4491
  3859   00124A  EF29  F009         	goto	u4490
  3860   00124E                     u4491:
  3861   00124E  EF2F  F009         	goto	l5458
  3862   001252                     u4490:
  3863   001252  90D8               	bcf	status,0,c
  3864   001254  3053               	rrcf	___fladd@grs^0,w,c
  3865   001256  0901               	iorlw	1
  3866   001258  6E53               	movwf	___fladd@grs^0,c
  3867   00125A  EF31  F009         	goto	l5460
  3868   00125E                     l5458:
  3869   00125E  90D8               	bcf	status,0,c
  3870   001260  3253               	rrcf	___fladd@grs^0,f,c
  3871   001262                     l5460:
  3872   001262  A044               	btfss	___fladd@b^0,0,c
  3873   001264  EF36  F009         	goto	u4501
  3874   001268  EF38  F009         	goto	u4500
  3875   00126C                     u4501:
  3876   00126C  EF39  F009         	goto	l5464
  3877   001270                     u4500:
  3878   001270  8E53               	bsf	___fladd@grs^0,7,c
  3879   001272                     l5464:
  3880   001272  3447               	rlcf	(___fladd@b+3)^0,w,c
  3881   001274  3247               	rrcf	(___fladd@b+3)^0,f,c
  3882   001276  3246               	rrcf	(___fladd@b+2)^0,f,c
  3883   001278  3245               	rrcf	(___fladd@b+1)^0,f,c
  3884   00127A  3244               	rrcf	___fladd@b^0,f,c
  3885   00127C  2A52               	incf	___fladd@bexp^0,f,c
  3886   00127E  EFCE  F009         	goto	l5504
  3887   001282                     l5468:
  3888   001282  5048               	movf	___fladd@a^0,w,c
  3889   001284  5C44               	subwf	___fladd@b^0,w,c
  3890   001286  5049               	movf	(___fladd@a+1)^0,w,c
  3891   001288  5845               	subwfb	(___fladd@b+1)^0,w,c
  3892   00128A  504A               	movf	(___fladd@a+2)^0,w,c
  3893   00128C  5846               	subwfb	(___fladd@b+2)^0,w,c
  3894   00128E  5047               	movf	(___fladd@b+3)^0,w,c
  3895   001290  0A80               	xorlw	128
  3896   001292  6E4C               	movwf	??___fladd^0,c
  3897   001294  504B               	movf	(___fladd@a+3)^0,w,c
  3898   001296  0A80               	xorlw	128
  3899   001298  584C               	subwfb	??___fladd^0,w,c
  3900   00129A  B0D8               	btfsc	status,0,c
  3901   00129C  EF52  F009         	goto	u4511
  3902   0012A0  EF54  F009         	goto	u4510
  3903   0012A4                     u4511:
  3904   0012A4  EF7F  F009         	goto	l5478
  3905   0012A8                     u4510:
  3906   0012A8  5044               	movf	___fladd@b^0,w,c
  3907   0012AA  5C48               	subwf	___fladd@a^0,w,c
  3908   0012AC  6E4C               	movwf	??___fladd^0,c
  3909   0012AE  5045               	movf	(___fladd@b+1)^0,w,c
  3910   0012B0  5849               	subwfb	(___fladd@a+1)^0,w,c
  3911   0012B2  6E4D               	movwf	(??___fladd+1)^0,c
  3912   0012B4  5046               	movf	(___fladd@b+2)^0,w,c
  3913   0012B6  584A               	subwfb	(___fladd@a+2)^0,w,c
  3914   0012B8  6E4E               	movwf	(??___fladd+2)^0,c
  3915   0012BA  5047               	movf	(___fladd@b+3)^0,w,c
  3916   0012BC  584B               	subwfb	(___fladd@a+3)^0,w,c
  3917   0012BE  6E4F               	movwf	(??___fladd+3)^0,c
  3918   0012C0  0EFF               	movlw	255
  3919   0012C2  244C               	addwf	??___fladd^0,w,c
  3920   0012C4  6E44               	movwf	___fladd@b^0,c
  3921   0012C6  0EFF               	movlw	255
  3922   0012C8  204D               	addwfc	(??___fladd+1)^0,w,c
  3923   0012CA  6E45               	movwf	(___fladd@b+1)^0,c
  3924   0012CC  0EFF               	movlw	255
  3925   0012CE  204E               	addwfc	(??___fladd+2)^0,w,c
  3926   0012D0  6E46               	movwf	(___fladd@b+2)^0,c
  3927   0012D2  0EFF               	movlw	255
  3928   0012D4  204F               	addwfc	(??___fladd+3)^0,w,c
  3929   0012D6  6E47               	movwf	(___fladd@b+3)^0,c
  3930   0012D8  0E80               	movlw	128
  3931   0012DA  1A50               	xorwf	___fladd@signs^0,f,c
  3932   0012DC  6C53               	negf	___fladd@grs^0,c
  3933   0012DE  5053               	movf	___fladd@grs^0,w,c
  3934   0012E0  A4D8               	btfss	status,2,c
  3935   0012E2  EF75  F009         	goto	u4521
  3936   0012E6  EF77  F009         	goto	u4520
  3937   0012EA                     u4521:
  3938   0012EA  EF87  F009         	goto	l1987
  3939   0012EE                     u4520:
  3940   0012EE  0E01               	movlw	1
  3941   0012F0  2644               	addwf	___fladd@b^0,f,c
  3942   0012F2  0E00               	movlw	0
  3943   0012F4  2245               	addwfc	(___fladd@b+1)^0,f,c
  3944   0012F6  2246               	addwfc	(___fladd@b+2)^0,f,c
  3945   0012F8  2247               	addwfc	(___fladd@b+3)^0,f,c
  3946   0012FA  EF87  F009         	goto	l1987
  3947   0012FE                     l5478:
  3948   0012FE  5048               	movf	___fladd@a^0,w,c
  3949   001300  5E44               	subwf	___fladd@b^0,f,c
  3950   001302  5049               	movf	(___fladd@a+1)^0,w,c
  3951   001304  5A45               	subwfb	(___fladd@b+1)^0,f,c
  3952   001306  504A               	movf	(___fladd@a+2)^0,w,c
  3953   001308  5A46               	subwfb	(___fladd@b+2)^0,f,c
  3954   00130A  504B               	movf	(___fladd@a+3)^0,w,c
  3955   00130C  5A47               	subwfb	(___fladd@b+3)^0,f,c
  3956   00130E                     l1987:
  3957   00130E  5044               	movf	___fladd@b^0,w,c
  3958   001310  1045               	iorwf	(___fladd@b+1)^0,w,c
  3959   001312  1046               	iorwf	(___fladd@b+2)^0,w,c
  3960   001314  1047               	iorwf	(___fladd@b+3)^0,w,c
  3961   001316  A4D8               	btfss	status,2,c
  3962   001318  EF90  F009         	goto	u4531
  3963   00131C  EF92  F009         	goto	u4530
  3964   001320                     u4531:
  3965   001320  EFC7  F009         	goto	l5502
  3966   001324                     u4530:
  3967   001324  5053               	movf	___fladd@grs^0,w,c
  3968   001326  A4D8               	btfss	status,2,c
  3969   001328  EF98  F009         	goto	u4541
  3970   00132C  EF9A  F009         	goto	u4540
  3971   001330                     u4541:
  3972   001330  EFC7  F009         	goto	l5502
  3973   001334                     u4540:
  3974   001334  0E00               	movlw	0
  3975   001336  6E44               	movwf	?___fladd^0,c
  3976   001338  0E00               	movlw	0
  3977   00133A  6E45               	movwf	(?___fladd+1)^0,c
  3978   00133C  0E00               	movlw	0
  3979   00133E  6E46               	movwf	(?___fladd+2)^0,c
  3980   001340  0E00               	movlw	0
  3981   001342  6E47               	movwf	(?___fladd+3)^0,c
  3982   001344  EF62  F00A         	goto	l1979
  3983   001348                     l5486:
  3984   001348  90D8               	bcf	status,0,c
  3985   00134A  3644               	rlcf	___fladd@b^0,f,c
  3986   00134C  3645               	rlcf	(___fladd@b+1)^0,f,c
  3987   00134E  3646               	rlcf	(___fladd@b+2)^0,f,c
  3988   001350  3647               	rlcf	(___fladd@b+3)^0,f,c
  3989   001352  AE53               	btfss	___fladd@grs^0,7,c
  3990   001354  EFAE  F009         	goto	u4551
  3991   001358  EFB0  F009         	goto	u4550
  3992   00135C                     u4551:
  3993   00135C  EFB1  F009         	goto	l5492
  3994   001360                     u4550:
  3995   001360  8044               	bsf	___fladd@b^0,0,c
  3996   001362                     l5492:
  3997   001362  A053               	btfss	___fladd@grs^0,0,c
  3998   001364  EFB6  F009         	goto	u4561
  3999   001368  EFB8  F009         	goto	u4560
  4000   00136C                     u4561:
  4001   00136C  EFBC  F009         	goto	l5496
  4002   001370                     u4560:
  4003   001370  80D8               	bsf	status,0,c
  4004   001372  3653               	rlcf	___fladd@grs^0,f,c
  4005   001374  EFBE  F009         	goto	l5498
  4006   001378                     l5496:
  4007   001378  90D8               	bcf	status,0,c
  4008   00137A  3653               	rlcf	___fladd@grs^0,f,c
  4009   00137C                     l5498:
  4010   00137C  5052               	movf	___fladd@bexp^0,w,c
  4011   00137E  B4D8               	btfsc	status,2,c
  4012   001380  EFC4  F009         	goto	u4571
  4013   001384  EFC6  F009         	goto	u4570
  4014   001388                     u4571:
  4015   001388  EFC7  F009         	goto	l5502
  4016   00138C                     u4570:
  4017   00138C  0652               	decf	___fladd@bexp^0,f,c
  4018   00138E                     l5502:
  4019   00138E  AE46               	btfss	(___fladd@b+2)^0,7,c
  4020   001390  EFCC  F009         	goto	u4581
  4021   001394  EFCE  F009         	goto	u4580
  4022   001398                     u4581:
  4023   001398  EFA4  F009         	goto	l5486
  4024   00139C                     u4580:
  4025   00139C                     l5504:
  4026   00139C  0E00               	movlw	0
  4027   00139E  6E51               	movwf	___fladd@aexp^0,c
  4028   0013A0  AE53               	btfss	___fladd@grs^0,7,c
  4029   0013A2  EFD5  F009         	goto	u4591
  4030   0013A6  EFD7  F009         	goto	u4590
  4031   0013AA                     u4591:
  4032   0013AA  EFEF  F009         	goto	l1996
  4033   0013AE                     u4590:
  4034   0013AE  C053  F04C         	movff	___fladd@grs,??___fladd
  4035   0013B2  0E7F               	movlw	127
  4036   0013B4  164C               	andwf	??___fladd^0,f,c
  4037   0013B6  B4D8               	btfsc	status,2,c
  4038   0013B8  EFE0  F009         	goto	u4601
  4039   0013BC  EFE2  F009         	goto	u4600
  4040   0013C0                     u4601:
  4041   0013C0  EFE6  F009         	goto	l1997
  4042   0013C4                     u4600:
  4043   0013C4                     l5510:
  4044   0013C4  0E01               	movlw	1
  4045   0013C6  6E51               	movwf	___fladd@aexp^0,c
  4046   0013C8  EFEF  F009         	goto	l1996
  4047   0013CC                     l1997:
  4048   0013CC  A044               	btfss	___fladd@b^0,0,c
  4049   0013CE  EFEB  F009         	goto	u4611
  4050   0013D2  EFED  F009         	goto	u4610
  4051   0013D6                     u4611:
  4052   0013D6  EFEF  F009         	goto	l1996
  4053   0013DA                     u4610:
  4054   0013DA  EFE2  F009         	goto	l5510
  4055   0013DE                     l1996:
  4056   0013DE  5051               	movf	___fladd@aexp^0,w,c
  4057   0013E0  B4D8               	btfsc	status,2,c
  4058   0013E2  EFF5  F009         	goto	u4621
  4059   0013E6  EFF7  F009         	goto	u4620
  4060   0013EA                     u4621:
  4061   0013EA  EF22  F00A         	goto	l5522
  4062   0013EE                     u4620:
  4063   0013EE  0E01               	movlw	1
  4064   0013F0  2644               	addwf	___fladd@b^0,f,c
  4065   0013F2  0E00               	movlw	0
  4066   0013F4  2245               	addwfc	(___fladd@b+1)^0,f,c
  4067   0013F6  2246               	addwfc	(___fladd@b+2)^0,f,c
  4068   0013F8  2247               	addwfc	(___fladd@b+3)^0,f,c
  4069   0013FA  A047               	btfss	(___fladd@b+3)^0,0,c
  4070   0013FC  EF02  F00A         	goto	u4631
  4071   001400  EF04  F00A         	goto	u4630
  4072   001404                     u4631:
  4073   001404  EF22  F00A         	goto	l5522
  4074   001408                     u4630:
  4075   001408  C044  F04C         	movff	___fladd@b,??___fladd
  4076   00140C  C045  F04D         	movff	___fladd@b+1,??___fladd+1
  4077   001410  C046  F04E         	movff	___fladd@b+2,??___fladd+2
  4078   001414  C047  F04F         	movff	___fladd@b+3,??___fladd+3
  4079   001418  344F               	rlcf	(??___fladd+3)^0,w,c
  4080   00141A  324F               	rrcf	(??___fladd+3)^0,f,c
  4081   00141C  324E               	rrcf	(??___fladd+2)^0,f,c
  4082   00141E  324D               	rrcf	(??___fladd+1)^0,f,c
  4083   001420  324C               	rrcf	??___fladd^0,f,c
  4084   001422  C04C  F044         	movff	??___fladd,___fladd@b
  4085   001426  C04D  F045         	movff	??___fladd+1,___fladd@b+1
  4086   00142A  C04E  F046         	movff	??___fladd+2,___fladd@b+2
  4087   00142E  C04F  F047         	movff	??___fladd+3,___fladd@b+3
  4088   001432  2852               	incf	___fladd@bexp^0,w,c
  4089   001434  B4D8               	btfsc	status,2,c
  4090   001436  EF1F  F00A         	goto	u4641
  4091   00143A  EF21  F00A         	goto	u4640
  4092   00143E                     u4641:
  4093   00143E  EF22  F00A         	goto	l5522
  4094   001442                     u4640:
  4095   001442  2A52               	incf	___fladd@bexp^0,f,c
  4096   001444                     l5522:
  4097   001444  2852               	incf	___fladd@bexp^0,w,c
  4098   001446  B4D8               	btfsc	status,2,c
  4099   001448  EF28  F00A         	goto	u4651
  4100   00144C  EF2A  F00A         	goto	u4650
  4101   001450                     u4651:
  4102   001450  EF32  F00A         	goto	l5526
  4103   001454                     u4650:
  4104   001454  5052               	movf	___fladd@bexp^0,w,c
  4105   001456  A4D8               	btfss	status,2,c
  4106   001458  EF30  F00A         	goto	u4661
  4107   00145C  EF32  F00A         	goto	u4660
  4108   001460                     u4661:
  4109   001460  EF44  F00A         	goto	l5530
  4110   001464                     u4660:
  4111   001464                     l5526:
  4112   001464  0E00               	movlw	0
  4113   001466  6E44               	movwf	___fladd@b^0,c
  4114   001468  0E00               	movlw	0
  4115   00146A  6E45               	movwf	(___fladd@b+1)^0,c
  4116   00146C  0E00               	movlw	0
  4117   00146E  6E46               	movwf	(___fladd@b+2)^0,c
  4118   001470  0E00               	movlw	0
  4119   001472  6E47               	movwf	(___fladd@b+3)^0,c
  4120   001474  5052               	movf	___fladd@bexp^0,w,c
  4121   001476  A4D8               	btfss	status,2,c
  4122   001478  EF40  F00A         	goto	u4671
  4123   00147C  EF42  F00A         	goto	u4670
  4124   001480                     u4671:
  4125   001480  EF44  F00A         	goto	l5530
  4126   001484                     u4670:
  4127   001484  0E00               	movlw	0
  4128   001486  6E50               	movwf	___fladd@signs^0,c
  4129   001488                     l5530:
  4130   001488  A052               	btfss	___fladd@bexp^0,0,c
  4131   00148A  EF49  F00A         	goto	u4681
  4132   00148E  EF4B  F00A         	goto	u4680
  4133   001492                     u4681:
  4134   001492  EF4E  F00A         	goto	l5534
  4135   001496                     u4680:
  4136   001496  8E46               	bsf	(___fladd@b+2)^0,7,c
  4137   001498  EF4F  F00A         	goto	l5536
  4138   00149C                     l5534:
  4139   00149C  9E46               	bcf	(___fladd@b+2)^0,7,c
  4140   00149E                     l5536:
  4141   00149E  90D8               	bcf	status,0,c
  4142   0014A0  3052               	rrcf	___fladd@bexp^0,w,c
  4143   0014A2  6E47               	movwf	(___fladd@b+3)^0,c
  4144   0014A4  AE50               	btfss	___fladd@signs^0,7,c
  4145   0014A6  EF57  F00A         	goto	u4691
  4146   0014AA  EF59  F00A         	goto	u4690
  4147   0014AE                     u4691:
  4148   0014AE  EF5A  F00A         	goto	l5542
  4149   0014B2                     u4690:
  4150   0014B2  8E47               	bsf	(___fladd@b+3)^0,7,c
  4151   0014B4                     l5542:
  4152   0014B4  C044  F044         	movff	___fladd@b,?___fladd
  4153   0014B8  C045  F045         	movff	___fladd@b+1,?___fladd+1
  4154   0014BC  C046  F046         	movff	___fladd@b+2,?___fladd+2
  4155   0014C0  C047  F047         	movff	___fladd@b+3,?___fladd+3
  4156   0014C4                     l1979:
  4157   0014C4  0012               	return		;funcret
  4158   0014C6                     __end_of___fladd:
  4159                           	callstack 0
  4160                           
  4161 ;; *************** function _InterruptManagmentHigh *****************
  4162 ;; Defined at:
  4163 ;;		line 69 in file "MCAL_Layer/Interrupt/Interrupt_managment.c"
  4164 ;; Parameters:    Size  Location     Type
  4165 ;;		None
  4166 ;; Auto vars:     Size  Location     Type
  4167 ;;		None
  4168 ;; Return value:  Size  Location     Type
  4169 ;;                  1    wreg      void 
  4170 ;; Registers used:
  4171 ;;		wreg, status,2, status,0, pcl, pclath, pclatu, tosl, cstack
  4172 ;; Tracked objects:
  4173 ;;		On entry : 0/0
  4174 ;;		On exit  : 0/0
  4175 ;;		Unchanged: 0/0
  4176 ;; Data sizes:     COMRAM   BANK0   BANK1   BANK2   BANK3   BANK4   BANK5   BANK6   BANK7   BANK8   BANK9  BANK10  BANK1
      +1  BANK12  BANK13  BANK14  BANK15
  4177 ;;      Params:         0       0       0       0       0       0       0       0       0       0       0       0       
      +0       0       0       0       0
  4178 ;;      Locals:         0       0       0       0       0       0       0       0       0       0       0       0       
      +0       0       0       0       0
  4179 ;;      Temps:          2       0       0       0       0       0       0       0       0       0       0       0       
      +0       0       0       0       0
  4180 ;;      Totals:         2       0       0       0       0       0       0       0       0       0       0       0       
      +0       0       0       0       0
  4181 ;;Total ram usage:        2 bytes
  4182 ;; Hardware stack levels used: 1
  4183 ;; Hardware stack levels required when called: 2
  4184 ;; This function calls:
  4185 ;;		_ADC_ISR
  4186 ;;		_CCP1_ISR
  4187 ;;		_CCP2_ISR
  4188 ;;		_EUSART_RX_ISR
  4189 ;;		_EUSART_TX_ISR
  4190 ;;		_INT0_ISR
  4191 ;;		_INT1_ISR
  4192 ;;		_INT2_ISR
  4193 ;;		_MSSP_BC_ISR
  4194 ;;		_MSSP_ISR
  4195 ;;		_RB4_ISR
  4196 ;;		_RB5_ISR
  4197 ;;		_RB6_ISR
  4198 ;;		_RB7_ISR
  4199 ;;		_TIMER0_ISR
  4200 ;;		_TIMER1_ISR
  4201 ;;		_TIMER2_ISR
  4202 ;;		_TIMER3_ISR
  4203 ;; This function is called by:
  4204 ;;		Interrupt level 2
  4205 ;; This function uses a non-reentrant model
  4206 ;;
  4207                           
  4208                           	psect	intcode
  4209   000008                     __pintcode:
  4210                           	callstack 0
  4211   000008                     _InterruptManagmentHigh:
  4212                           	callstack 25
  4213                           
  4214                           ;incstack = 0
  4215   000008  827B               	bsf	int$flags,1,c	;set compiler interrupt flag (level 2)
  4216   00000A  ED78  F00C         	call	int_func,f	;refresh shadow registers
  4217                           
  4218                           	psect	intcode_body
  4219   0018F0                     __pintcode_body:
  4220                           	callstack 25
  4221   0018F0                     int_func:
  4222                           	callstack 25
  4223   0018F0  0006               	pop		; remove dummy address from shadow register refresh
  4224   0018F2  CFFA F002          	movff	pclath,??_InterruptManagmentHigh
  4225   0018F6  CFFB F003          	movff	pclatu,??_InterruptManagmentHigh+1
  4226   0018FA                     
  4227                           ;MCAL_Layer/Interrupt/Interrupt_managment.c: 76: if(INTCONbits.INT0IE==1 && INTCONbits.I
      +                          NT0IF==1){
  4228   0018FA  A8F2               	btfss	242,4,c	;volatile
  4229   0018FC  EF82  F00C         	goto	i2u669_41
  4230   001900  EF84  F00C         	goto	i2u669_40
  4231   001904                     i2u669_41:
  4232   001904  EF8D  F00C         	goto	i2l7246
  4233   001908                     i2u669_40:
  4234   001908  A2F2               	btfss	242,1,c	;volatile
  4235   00190A  EF89  F00C         	goto	i2u670_41
  4236   00190E  EF8B  F00C         	goto	i2u670_40
  4237   001912                     i2u670_41:
  4238   001912  EF8D  F00C         	goto	i2l7246
  4239   001916                     i2u670_40:
  4240   001916                     
  4241                           ;MCAL_Layer/Interrupt/Interrupt_managment.c: 77:         INT0_ISR();
  4242   001916  EC09  F016         	call	_INT0_ISR	;wreg free
  4243   00191A                     i2l7246:
  4244                           
  4245                           ;MCAL_Layer/Interrupt/Interrupt_managment.c: 79:      if(INTCON3bits.INT1IE==1 && INTCON
      +                          3bits.INT1IF==1){
  4246   00191A  A6F0               	btfss	240,3,c	;volatile
  4247   00191C  EF92  F00C         	goto	i2u671_41
  4248   001920  EF94  F00C         	goto	i2u671_40
  4249   001924                     i2u671_41:
  4250   001924  EF9D  F00C         	goto	i2l7252
  4251   001928                     i2u671_40:
  4252   001928  A0F0               	btfss	240,0,c	;volatile
  4253   00192A  EF99  F00C         	goto	i2u672_41
  4254   00192E  EF9B  F00C         	goto	i2u672_40
  4255   001932                     i2u672_41:
  4256   001932  EF9D  F00C         	goto	i2l7252
  4257   001936                     i2u672_40:
  4258   001936                     
  4259                           ;MCAL_Layer/Interrupt/Interrupt_managment.c: 80:         INT1_ISR();
  4260   001936  EC07  F016         	call	_INT1_ISR	;wreg free
  4261   00193A                     i2l7252:
  4262                           
  4263                           ;MCAL_Layer/Interrupt/Interrupt_managment.c: 82:      if(INTCON3bits.INT2IE==1 && INTCON
      +                          3bits.INT2IF==1){
  4264   00193A  A8F0               	btfss	240,4,c	;volatile
  4265   00193C  EFA2  F00C         	goto	i2u673_41
  4266   001940  EFA4  F00C         	goto	i2u673_40
  4267   001944                     i2u673_41:
  4268   001944  EFAD  F00C         	goto	i2l7258
  4269   001948                     i2u673_40:
  4270   001948  A2F0               	btfss	240,1,c	;volatile
  4271   00194A  EFA9  F00C         	goto	i2u674_41
  4272   00194E  EFAB  F00C         	goto	i2u674_40
  4273   001952                     i2u674_41:
  4274   001952  EFAD  F00C         	goto	i2l7258
  4275   001956                     i2u674_40:
  4276   001956                     
  4277                           ;MCAL_Layer/Interrupt/Interrupt_managment.c: 83:     INT2_ISR();
  4278   001956  EC05  F016         	call	_INT2_ISR	;wreg free
  4279   00195A                     i2l7258:
  4280                           
  4281                           ;MCAL_Layer/Interrupt/Interrupt_managment.c: 86:     if((INTCONbits.RBIE==1 && INTCONbit
      +                          s.RBIF==1)&& (PORTBbits.RB4==1)&&(flage_4==1)){
  4282   00195A  A6F2               	btfss	242,3,c	;volatile
  4283   00195C  EFB2  F00C         	goto	i2u675_41
  4284   001960  EFB4  F00C         	goto	i2u675_40
  4285   001964                     i2u675_41:
  4286   001964  EFCF  F00C         	goto	i2l7270
  4287   001968                     i2u675_40:
  4288   001968  A0F2               	btfss	242,0,c	;volatile
  4289   00196A  EFB9  F00C         	goto	i2u676_41
  4290   00196E  EFBB  F00C         	goto	i2u676_40
  4291   001972                     i2u676_41:
  4292   001972  EFCF  F00C         	goto	i2l7270
  4293   001976                     i2u676_40:
  4294   001976  A881               	btfss	129,4,c	;volatile
  4295   001978  EFC0  F00C         	goto	i2u677_41
  4296   00197C  EFC2  F00C         	goto	i2u677_40
  4297   001980                     i2u677_41:
  4298   001980  EFCF  F00C         	goto	i2l7270
  4299   001984                     i2u677_40:
  4300   001984  0479               	decf	_flage_4^0,w,c	;volatile
  4301   001986  A4D8               	btfss	status,2,c
  4302   001988  EFC8  F00C         	goto	i2u678_41
  4303   00198C  EFCA  F00C         	goto	i2u678_40
  4304   001990                     i2u678_41:
  4305   001990  EFCF  F00C         	goto	i2l7270
  4306   001994                     i2u678_40:
  4307   001994                     
  4308                           ;MCAL_Layer/Interrupt/Interrupt_managment.c: 87:         flage_4=0;
  4309   001994  0E00               	movlw	0
  4310   001996  6E79               	movwf	_flage_4^0,c	;volatile
  4311   001998                     
  4312                           ;MCAL_Layer/Interrupt/Interrupt_managment.c: 88:     RB4_ISR(1);
  4313   001998  0E01               	movlw	1
  4314   00199A  ECD5  F015         	call	_RB4_ISR
  4315   00199E                     i2l7270:
  4316                           
  4317                           ;MCAL_Layer/Interrupt/Interrupt_managment.c: 90:     if((INTCONbits.RBIE==1 && INTCONbit
      +                          s.RBIF==1)&& (PORTBbits.RB4==0)&&(flage_4==0)){
  4318   00199E  A6F2               	btfss	242,3,c	;volatile
  4319   0019A0  EFD4  F00C         	goto	i2u679_41
  4320   0019A4  EFD6  F00C         	goto	i2u679_40
  4321   0019A8                     i2u679_41:
  4322   0019A8  EFF1  F00C         	goto	i2l7282
  4323   0019AC                     i2u679_40:
  4324   0019AC  A0F2               	btfss	242,0,c	;volatile
  4325   0019AE  EFDB  F00C         	goto	i2u680_41
  4326   0019B2  EFDD  F00C         	goto	i2u680_40
  4327   0019B6                     i2u680_41:
  4328   0019B6  EFF1  F00C         	goto	i2l7282
  4329   0019BA                     i2u680_40:
  4330   0019BA  B881               	btfsc	129,4,c	;volatile
  4331   0019BC  EFE2  F00C         	goto	i2u681_41
  4332   0019C0  EFE4  F00C         	goto	i2u681_40
  4333   0019C4                     i2u681_41:
  4334   0019C4  EFF1  F00C         	goto	i2l7282
  4335   0019C8                     i2u681_40:
  4336   0019C8  5079               	movf	_flage_4^0,w,c	;volatile
  4337   0019CA  A4D8               	btfss	status,2,c
  4338   0019CC  EFEA  F00C         	goto	i2u682_41
  4339   0019D0  EFEC  F00C         	goto	i2u682_40
  4340   0019D4                     i2u682_41:
  4341   0019D4  EFF1  F00C         	goto	i2l7282
  4342   0019D8                     i2u682_40:
  4343   0019D8                     
  4344                           ;MCAL_Layer/Interrupt/Interrupt_managment.c: 91:         flage_4=1;
  4345   0019D8  0E01               	movlw	1
  4346   0019DA  6E79               	movwf	_flage_4^0,c	;volatile
  4347   0019DC                     
  4348                           ;MCAL_Layer/Interrupt/Interrupt_managment.c: 92:     RB4_ISR(0);
  4349   0019DC  0E00               	movlw	0
  4350   0019DE  ECD5  F015         	call	_RB4_ISR
  4351   0019E2                     i2l7282:
  4352                           
  4353                           ;MCAL_Layer/Interrupt/Interrupt_managment.c: 95:     if((INTCONbits.RBIE==1 && INTCONbit
      +                          s.RBIF==1)&& (PORTBbits.RB5==1)&&(flage_5==1)){
  4354   0019E2  A6F2               	btfss	242,3,c	;volatile
  4355   0019E4  EFF6  F00C         	goto	i2u683_41
  4356   0019E8  EFF8  F00C         	goto	i2u683_40
  4357   0019EC                     i2u683_41:
  4358   0019EC  EF13  F00D         	goto	i2l7294
  4359   0019F0                     i2u683_40:
  4360   0019F0  A0F2               	btfss	242,0,c	;volatile
  4361   0019F2  EFFD  F00C         	goto	i2u684_41
  4362   0019F6  EFFF  F00C         	goto	i2u684_40
  4363   0019FA                     i2u684_41:
  4364   0019FA  EF13  F00D         	goto	i2l7294
  4365   0019FE                     i2u684_40:
  4366   0019FE  AA81               	btfss	129,5,c	;volatile
  4367   001A00  EF04  F00D         	goto	i2u685_41
  4368   001A04  EF06  F00D         	goto	i2u685_40
  4369   001A08                     i2u685_41:
  4370   001A08  EF13  F00D         	goto	i2l7294
  4371   001A0C                     i2u685_40:
  4372   001A0C  0478               	decf	_flage_5^0,w,c	;volatile
  4373   001A0E  A4D8               	btfss	status,2,c
  4374   001A10  EF0C  F00D         	goto	i2u686_41
  4375   001A14  EF0E  F00D         	goto	i2u686_40
  4376   001A18                     i2u686_41:
  4377   001A18  EF13  F00D         	goto	i2l7294
  4378   001A1C                     i2u686_40:
  4379   001A1C                     
  4380                           ;MCAL_Layer/Interrupt/Interrupt_managment.c: 96:         flage_5=0;
  4381   001A1C  0E00               	movlw	0
  4382   001A1E  6E78               	movwf	_flage_5^0,c	;volatile
  4383   001A20                     
  4384                           ;MCAL_Layer/Interrupt/Interrupt_managment.c: 97:     RB5_ISR(1);
  4385   001A20  0E01               	movlw	1
  4386   001A22  ECC8  F015         	call	_RB5_ISR
  4387   001A26                     i2l7294:
  4388                           
  4389                           ;MCAL_Layer/Interrupt/Interrupt_managment.c: 99:     if((INTCONbits.RBIE==1 && INTCONbit
      +                          s.RBIF==1)&& (PORTBbits.RB5==0)&&(flage_5==0)){
  4390   001A26  A6F2               	btfss	242,3,c	;volatile
  4391   001A28  EF18  F00D         	goto	i2u687_41
  4392   001A2C  EF1A  F00D         	goto	i2u687_40
  4393   001A30                     i2u687_41:
  4394   001A30  EF35  F00D         	goto	i2l7306
  4395   001A34                     i2u687_40:
  4396   001A34  A0F2               	btfss	242,0,c	;volatile
  4397   001A36  EF1F  F00D         	goto	i2u688_41
  4398   001A3A  EF21  F00D         	goto	i2u688_40
  4399   001A3E                     i2u688_41:
  4400   001A3E  EF35  F00D         	goto	i2l7306
  4401   001A42                     i2u688_40:
  4402   001A42  BA81               	btfsc	129,5,c	;volatile
  4403   001A44  EF26  F00D         	goto	i2u689_41
  4404   001A48  EF28  F00D         	goto	i2u689_40
  4405   001A4C                     i2u689_41:
  4406   001A4C  EF35  F00D         	goto	i2l7306
  4407   001A50                     i2u689_40:
  4408   001A50  5078               	movf	_flage_5^0,w,c	;volatile
  4409   001A52  A4D8               	btfss	status,2,c
  4410   001A54  EF2E  F00D         	goto	i2u690_41
  4411   001A58  EF30  F00D         	goto	i2u690_40
  4412   001A5C                     i2u690_41:
  4413   001A5C  EF35  F00D         	goto	i2l7306
  4414   001A60                     i2u690_40:
  4415   001A60                     
  4416                           ;MCAL_Layer/Interrupt/Interrupt_managment.c: 100:         flage_5=1;
  4417   001A60  0E01               	movlw	1
  4418   001A62  6E78               	movwf	_flage_5^0,c	;volatile
  4419   001A64                     
  4420                           ;MCAL_Layer/Interrupt/Interrupt_managment.c: 101:     RB5_ISR(0);
  4421   001A64  0E00               	movlw	0
  4422   001A66  ECC8  F015         	call	_RB5_ISR
  4423   001A6A                     i2l7306:
  4424                           
  4425                           ;MCAL_Layer/Interrupt/Interrupt_managment.c: 104: if((INTCONbits.RBIE==1 && INTCONbits.R
      +                          BIF==1)&& (PORTBbits.RB6==1)&&(flage_6==1)){
  4426   001A6A  A6F2               	btfss	242,3,c	;volatile
  4427   001A6C  EF3A  F00D         	goto	i2u691_41
  4428   001A70  EF3C  F00D         	goto	i2u691_40
  4429   001A74                     i2u691_41:
  4430   001A74  EF57  F00D         	goto	i2l7318
  4431   001A78                     i2u691_40:
  4432   001A78  A0F2               	btfss	242,0,c	;volatile
  4433   001A7A  EF41  F00D         	goto	i2u692_41
  4434   001A7E  EF43  F00D         	goto	i2u692_40
  4435   001A82                     i2u692_41:
  4436   001A82  EF57  F00D         	goto	i2l7318
  4437   001A86                     i2u692_40:
  4438   001A86  AC81               	btfss	129,6,c	;volatile
  4439   001A88  EF48  F00D         	goto	i2u693_41
  4440   001A8C  EF4A  F00D         	goto	i2u693_40
  4441   001A90                     i2u693_41:
  4442   001A90  EF57  F00D         	goto	i2l7318
  4443   001A94                     i2u693_40:
  4444   001A94  0477               	decf	_flage_6^0,w,c	;volatile
  4445   001A96  A4D8               	btfss	status,2,c
  4446   001A98  EF50  F00D         	goto	i2u694_41
  4447   001A9C  EF52  F00D         	goto	i2u694_40
  4448   001AA0                     i2u694_41:
  4449   001AA0  EF57  F00D         	goto	i2l7318
  4450   001AA4                     i2u694_40:
  4451   001AA4                     
  4452                           ;MCAL_Layer/Interrupt/Interrupt_managment.c: 105:         flage_6=0;
  4453   001AA4  0E00               	movlw	0
  4454   001AA6  6E77               	movwf	_flage_6^0,c	;volatile
  4455   001AA8                     
  4456                           ;MCAL_Layer/Interrupt/Interrupt_managment.c: 106:     RB6_ISR(1);
  4457   001AA8  0E01               	movlw	1
  4458   001AAA  ECBB  F015         	call	_RB6_ISR
  4459   001AAE                     i2l7318:
  4460                           
  4461                           ;MCAL_Layer/Interrupt/Interrupt_managment.c: 108:     if((INTCONbits.RBIE==1 && INTCONbi
      +                          ts.RBIF==1)&& (PORTBbits.RB6==0)&&(flage_6==0)){
  4462   001AAE  A6F2               	btfss	242,3,c	;volatile
  4463   001AB0  EF5C  F00D         	goto	i2u695_41
  4464   001AB4  EF5E  F00D         	goto	i2u695_40
  4465   001AB8                     i2u695_41:
  4466   001AB8  EF79  F00D         	goto	i2l7330
  4467   001ABC                     i2u695_40:
  4468   001ABC  A0F2               	btfss	242,0,c	;volatile
  4469   001ABE  EF63  F00D         	goto	i2u696_41
  4470   001AC2  EF65  F00D         	goto	i2u696_40
  4471   001AC6                     i2u696_41:
  4472   001AC6  EF79  F00D         	goto	i2l7330
  4473   001ACA                     i2u696_40:
  4474   001ACA  BC81               	btfsc	129,6,c	;volatile
  4475   001ACC  EF6A  F00D         	goto	i2u697_41
  4476   001AD0  EF6C  F00D         	goto	i2u697_40
  4477   001AD4                     i2u697_41:
  4478   001AD4  EF79  F00D         	goto	i2l7330
  4479   001AD8                     i2u697_40:
  4480   001AD8  5077               	movf	_flage_6^0,w,c	;volatile
  4481   001ADA  A4D8               	btfss	status,2,c
  4482   001ADC  EF72  F00D         	goto	i2u698_41
  4483   001AE0  EF74  F00D         	goto	i2u698_40
  4484   001AE4                     i2u698_41:
  4485   001AE4  EF79  F00D         	goto	i2l7330
  4486   001AE8                     i2u698_40:
  4487   001AE8                     
  4488                           ;MCAL_Layer/Interrupt/Interrupt_managment.c: 109:         flage_6=1;
  4489   001AE8  0E01               	movlw	1
  4490   001AEA  6E77               	movwf	_flage_6^0,c	;volatile
  4491   001AEC                     
  4492                           ;MCAL_Layer/Interrupt/Interrupt_managment.c: 110:     RB6_ISR(0);
  4493   001AEC  0E00               	movlw	0
  4494   001AEE  ECBB  F015         	call	_RB6_ISR
  4495   001AF2                     i2l7330:
  4496                           
  4497                           ;MCAL_Layer/Interrupt/Interrupt_managment.c: 113: if((INTCONbits.RBIE==1 && INTCONbits.R
      +                          BIF==1)&& (PORTBbits.RB7==1)&&(flage_7==1)){
  4498   001AF2  A6F2               	btfss	242,3,c	;volatile
  4499   001AF4  EF7E  F00D         	goto	i2u699_41
  4500   001AF8  EF80  F00D         	goto	i2u699_40
  4501   001AFC                     i2u699_41:
  4502   001AFC  EF9B  F00D         	goto	i2l7342
  4503   001B00                     i2u699_40:
  4504   001B00  A0F2               	btfss	242,0,c	;volatile
  4505   001B02  EF85  F00D         	goto	i2u700_41
  4506   001B06  EF87  F00D         	goto	i2u700_40
  4507   001B0A                     i2u700_41:
  4508   001B0A  EF9B  F00D         	goto	i2l7342
  4509   001B0E                     i2u700_40:
  4510   001B0E  AE81               	btfss	129,7,c	;volatile
  4511   001B10  EF8C  F00D         	goto	i2u701_41
  4512   001B14  EF8E  F00D         	goto	i2u701_40
  4513   001B18                     i2u701_41:
  4514   001B18  EF9B  F00D         	goto	i2l7342
  4515   001B1C                     i2u701_40:
  4516   001B1C  0476               	decf	_flage_7^0,w,c	;volatile
  4517   001B1E  A4D8               	btfss	status,2,c
  4518   001B20  EF94  F00D         	goto	i2u702_41
  4519   001B24  EF96  F00D         	goto	i2u702_40
  4520   001B28                     i2u702_41:
  4521   001B28  EF9B  F00D         	goto	i2l7342
  4522   001B2C                     i2u702_40:
  4523   001B2C                     
  4524                           ;MCAL_Layer/Interrupt/Interrupt_managment.c: 114:         flage_7=0;
  4525   001B2C  0E00               	movlw	0
  4526   001B2E  6E76               	movwf	_flage_7^0,c	;volatile
  4527   001B30                     
  4528                           ;MCAL_Layer/Interrupt/Interrupt_managment.c: 115:     RB7_ISR(1);
  4529   001B30  0E01               	movlw	1
  4530   001B32  ECAE  F015         	call	_RB7_ISR
  4531   001B36                     i2l7342:
  4532                           
  4533                           ;MCAL_Layer/Interrupt/Interrupt_managment.c: 117:     if((INTCONbits.RBIE==1 && INTCONbi
      +                          ts.RBIF==1)&& (PORTBbits.RB7==0)&&(flage_7==0)){
  4534   001B36  A6F2               	btfss	242,3,c	;volatile
  4535   001B38  EFA0  F00D         	goto	i2u703_41
  4536   001B3C  EFA2  F00D         	goto	i2u703_40
  4537   001B40                     i2u703_41:
  4538   001B40  EFBD  F00D         	goto	i2l7354
  4539   001B44                     i2u703_40:
  4540   001B44  A0F2               	btfss	242,0,c	;volatile
  4541   001B46  EFA7  F00D         	goto	i2u704_41
  4542   001B4A  EFA9  F00D         	goto	i2u704_40
  4543   001B4E                     i2u704_41:
  4544   001B4E  EFBD  F00D         	goto	i2l7354
  4545   001B52                     i2u704_40:
  4546   001B52  BE81               	btfsc	129,7,c	;volatile
  4547   001B54  EFAE  F00D         	goto	i2u705_41
  4548   001B58  EFB0  F00D         	goto	i2u705_40
  4549   001B5C                     i2u705_41:
  4550   001B5C  EFBD  F00D         	goto	i2l7354
  4551   001B60                     i2u705_40:
  4552   001B60  5076               	movf	_flage_7^0,w,c	;volatile
  4553   001B62  A4D8               	btfss	status,2,c
  4554   001B64  EFB6  F00D         	goto	i2u706_41
  4555   001B68  EFB8  F00D         	goto	i2u706_40
  4556   001B6C                     i2u706_41:
  4557   001B6C  EFBD  F00D         	goto	i2l7354
  4558   001B70                     i2u706_40:
  4559   001B70                     
  4560                           ;MCAL_Layer/Interrupt/Interrupt_managment.c: 118:         flage_7=1;
  4561   001B70  0E01               	movlw	1
  4562   001B72  6E76               	movwf	_flage_7^0,c	;volatile
  4563   001B74                     
  4564                           ;MCAL_Layer/Interrupt/Interrupt_managment.c: 119:     RB7_ISR(0);
  4565   001B74  0E00               	movlw	0
  4566   001B76  ECAE  F015         	call	_RB7_ISR
  4567   001B7A                     i2l7354:
  4568                           
  4569                           ;MCAL_Layer/Interrupt/Interrupt_managment.c: 123:     if((PIE1bits.ADIE==1) && (PIR1bits
      +                          .ADIF==1)){
  4570   001B7A  AC9D               	btfss	157,6,c	;volatile
  4571   001B7C  EFC2  F00D         	goto	i2u707_41
  4572   001B80  EFC4  F00D         	goto	i2u707_40
  4573   001B84                     i2u707_41:
  4574   001B84  EFCD  F00D         	goto	i2l7360
  4575   001B88                     i2u707_40:
  4576   001B88  AC9E               	btfss	158,6,c	;volatile
  4577   001B8A  EFC9  F00D         	goto	i2u708_41
  4578   001B8E  EFCB  F00D         	goto	i2u708_40
  4579   001B92                     i2u708_41:
  4580   001B92  EFCD  F00D         	goto	i2l7360
  4581   001B96                     i2u708_40:
  4582   001B96                     
  4583                           ;MCAL_Layer/Interrupt/Interrupt_managment.c: 124:         ADC_ISR();
  4584   001B96  EC11  F016         	call	_ADC_ISR	;wreg free
  4585   001B9A                     i2l7360:
  4586                           
  4587                           ;MCAL_Layer/Interrupt/Interrupt_managment.c: 129:     if((INTCONbits.TMR0IE==1) && (INTC
      +                          ONbits.TMR0IF==1)){
  4588   001B9A  AAF2               	btfss	242,5,c	;volatile
  4589   001B9C  EFD2  F00D         	goto	i2u709_41
  4590   001BA0  EFD4  F00D         	goto	i2u709_40
  4591   001BA4                     i2u709_41:
  4592   001BA4  EFDD  F00D         	goto	i2l7366
  4593   001BA8                     i2u709_40:
  4594   001BA8  A4F2               	btfss	242,2,c	;volatile
  4595   001BAA  EFD9  F00D         	goto	i2u710_41
  4596   001BAE  EFDB  F00D         	goto	i2u710_40
  4597   001BB2                     i2u710_41:
  4598   001BB2  EFDD  F00D         	goto	i2l7366
  4599   001BB6                     i2u710_40:
  4600   001BB6                     
  4601                           ;MCAL_Layer/Interrupt/Interrupt_managment.c: 130:         TIMER0_ISR();
  4602   001BB6  ECF6  F015         	call	_TIMER0_ISR	;wreg free
  4603   001BBA                     i2l7366:
  4604                           
  4605                           ;MCAL_Layer/Interrupt/Interrupt_managment.c: 135:     if((PIE1bits.TMR1IE==1) && (PIR1bi
      +                          ts.TMR1IF==1)){
  4606   001BBA  A09D               	btfss	157,0,c	;volatile
  4607   001BBC  EFE2  F00D         	goto	i2u711_41
  4608   001BC0  EFE4  F00D         	goto	i2u711_40
  4609   001BC4                     i2u711_41:
  4610   001BC4  EFED  F00D         	goto	i2l7372
  4611   001BC8                     i2u711_40:
  4612   001BC8  A09E               	btfss	158,0,c	;volatile
  4613   001BCA  EFE9  F00D         	goto	i2u712_41
  4614   001BCE  EFEB  F00D         	goto	i2u712_40
  4615   001BD2                     i2u712_41:
  4616   001BD2  EFED  F00D         	goto	i2l7372
  4617   001BD6                     i2u712_40:
  4618   001BD6                     
  4619                           ;MCAL_Layer/Interrupt/Interrupt_managment.c: 136:         TIMER1_ISR();
  4620   001BD6  ECF0  F015         	call	_TIMER1_ISR	;wreg free
  4621   001BDA                     i2l7372:
  4622                           
  4623                           ;MCAL_Layer/Interrupt/Interrupt_managment.c: 141:     if((PIE1bits.TMR2IE==1) && (PIR1bi
      +                          ts.TMR2IF==1)){
  4624   001BDA  A29D               	btfss	157,1,c	;volatile
  4625   001BDC  EFF2  F00D         	goto	i2u713_41
  4626   001BE0  EFF4  F00D         	goto	i2u713_40
  4627   001BE4                     i2u713_41:
  4628   001BE4  EFFD  F00D         	goto	i2l7378
  4629   001BE8                     i2u713_40:
  4630   001BE8  A29E               	btfss	158,1,c	;volatile
  4631   001BEA  EFF9  F00D         	goto	i2u714_41
  4632   001BEE  EFFB  F00D         	goto	i2u714_40
  4633   001BF2                     i2u714_41:
  4634   001BF2  EFFD  F00D         	goto	i2l7378
  4635   001BF6                     i2u714_40:
  4636   001BF6                     
  4637                           ;MCAL_Layer/Interrupt/Interrupt_managment.c: 142:         TIMER2_ISR();
  4638   001BF6  ECFC  F015         	call	_TIMER2_ISR	;wreg free
  4639   001BFA                     i2l7378:
  4640                           
  4641                           ;MCAL_Layer/Interrupt/Interrupt_managment.c: 147:     if((PIE2bits.TMR3IE==1) && (PIR2bi
      +                          ts.TMR3IF==1)){
  4642   001BFA  A2A0               	btfss	160,1,c	;volatile
  4643   001BFC  EF02  F00E         	goto	i2u715_41
  4644   001C00  EF04  F00E         	goto	i2u715_40
  4645   001C04                     i2u715_41:
  4646   001C04  EF0D  F00E         	goto	i2l7384
  4647   001C08                     i2u715_40:
  4648   001C08  A2A1               	btfss	161,1,c	;volatile
  4649   001C0A  EF09  F00E         	goto	i2u716_41
  4650   001C0E  EF0B  F00E         	goto	i2u716_40
  4651   001C12                     i2u716_41:
  4652   001C12  EF0D  F00E         	goto	i2l7384
  4653   001C16                     i2u716_40:
  4654   001C16                     
  4655                           ;MCAL_Layer/Interrupt/Interrupt_managment.c: 148:         TIMER3_ISR();
  4656   001C16  ECEA  F015         	call	_TIMER3_ISR	;wreg free
  4657   001C1A                     i2l7384:
  4658                           
  4659                           ;MCAL_Layer/Interrupt/Interrupt_managment.c: 152:     if((PIE1bits.CCP1IE==1) && (PIR1bi
      +                          ts.CCP1IF==1)){
  4660   001C1A  A49D               	btfss	157,2,c	;volatile
  4661   001C1C  EF12  F00E         	goto	i2u717_41
  4662   001C20  EF14  F00E         	goto	i2u717_40
  4663   001C24                     i2u717_41:
  4664   001C24  EF1D  F00E         	goto	i2l7390
  4665   001C28                     i2u717_40:
  4666   001C28  A49E               	btfss	158,2,c	;volatile
  4667   001C2A  EF19  F00E         	goto	i2u718_41
  4668   001C2E  EF1B  F00E         	goto	i2u718_40
  4669   001C32                     i2u718_41:
  4670   001C32  EF1D  F00E         	goto	i2l7390
  4671   001C36                     i2u718_40:
  4672   001C36                     
  4673                           ;MCAL_Layer/Interrupt/Interrupt_managment.c: 153:         CCP1_ISR();
  4674   001C36  EC0F  F016         	call	_CCP1_ISR	;wreg free
  4675   001C3A                     i2l7390:
  4676                           
  4677                           ;MCAL_Layer/Interrupt/Interrupt_managment.c: 157:     if((PIE2bits.CCP2IE==1) && (PIR2bi
      +                          ts.CCP2IF==1)){
  4678   001C3A  A0A0               	btfss	160,0,c	;volatile
  4679   001C3C  EF22  F00E         	goto	i2u719_41
  4680   001C40  EF24  F00E         	goto	i2u719_40
  4681   001C44                     i2u719_41:
  4682   001C44  EF2D  F00E         	goto	i2l7396
  4683   001C48                     i2u719_40:
  4684   001C48  A0A1               	btfss	161,0,c	;volatile
  4685   001C4A  EF29  F00E         	goto	i2u720_41
  4686   001C4E  EF2B  F00E         	goto	i2u720_40
  4687   001C52                     i2u720_41:
  4688   001C52  EF2D  F00E         	goto	i2l7396
  4689   001C56                     i2u720_40:
  4690   001C56                     
  4691                           ;MCAL_Layer/Interrupt/Interrupt_managment.c: 158:         CCP2_ISR();
  4692   001C56  EC0D  F016         	call	_CCP2_ISR	;wreg free
  4693   001C5A                     i2l7396:
  4694                           
  4695                           ;MCAL_Layer/Interrupt/Interrupt_managment.c: 163:     if((PIE1bits.TXIE==1) && (PIR1bits
      +                          .TXIF==1)){
  4696   001C5A  A89D               	btfss	157,4,c	;volatile
  4697   001C5C  EF32  F00E         	goto	i2u721_41
  4698   001C60  EF34  F00E         	goto	i2u721_40
  4699   001C64                     i2u721_41:
  4700   001C64  EF3D  F00E         	goto	i2l7402
  4701   001C68                     i2u721_40:
  4702   001C68  A89E               	btfss	158,4,c	;volatile
  4703   001C6A  EF39  F00E         	goto	i2u722_41
  4704   001C6E  EF3B  F00E         	goto	i2u722_40
  4705   001C72                     i2u722_41:
  4706   001C72  EF3D  F00E         	goto	i2l7402
  4707   001C76                     i2u722_40:
  4708   001C76                     
  4709                           ;MCAL_Layer/Interrupt/Interrupt_managment.c: 164:         EUSART_TX_ISR();
  4710   001C76  EC0B  F016         	call	_EUSART_TX_ISR	;wreg free
  4711   001C7A                     i2l7402:
  4712                           
  4713                           ;MCAL_Layer/Interrupt/Interrupt_managment.c: 168:     if((PIE1bits.RCIE==1) && (PIR1bits
      +                          .RCIF==1)){
  4714   001C7A  AA9D               	btfss	157,5,c	;volatile
  4715   001C7C  EF42  F00E         	goto	i2u723_41
  4716   001C80  EF44  F00E         	goto	i2u723_40
  4717   001C84                     i2u723_41:
  4718   001C84  EF4D  F00E         	goto	i2l7408
  4719   001C88                     i2u723_40:
  4720   001C88  AA9E               	btfss	158,5,c	;volatile
  4721   001C8A  EF49  F00E         	goto	i2u724_41
  4722   001C8E  EF4B  F00E         	goto	i2u724_40
  4723   001C92                     i2u724_41:
  4724   001C92  EF4D  F00E         	goto	i2l7408
  4725   001C96                     i2u724_40:
  4726   001C96                     
  4727                           ;MCAL_Layer/Interrupt/Interrupt_managment.c: 169:         EUSART_RX_ISR();
  4728   001C96  EC13  F016         	call	_EUSART_RX_ISR	;wreg free
  4729   001C9A                     i2l7408:
  4730                           
  4731                           ;MCAL_Layer/Interrupt/Interrupt_managment.c: 183: if((PIE1bits.SSPIE==1) && (PIR1bits.SS
      +                          PIF==1)){
  4732   001C9A  A69D               	btfss	157,3,c	;volatile
  4733   001C9C  EF52  F00E         	goto	i2u725_41
  4734   001CA0  EF54  F00E         	goto	i2u725_40
  4735   001CA4                     i2u725_41:
  4736   001CA4  EF5D  F00E         	goto	i2l7414
  4737   001CA8                     i2u725_40:
  4738   001CA8  A69E               	btfss	158,3,c	;volatile
  4739   001CAA  EF59  F00E         	goto	i2u726_41
  4740   001CAE  EF5B  F00E         	goto	i2u726_40
  4741   001CB2                     i2u726_41:
  4742   001CB2  EF5D  F00E         	goto	i2l7414
  4743   001CB6                     i2u726_40:
  4744   001CB6                     
  4745                           ;MCAL_Layer/Interrupt/Interrupt_managment.c: 184:       MSSP_ISR();
  4746   001CB6  EC81  F015         	call	_MSSP_ISR	;wreg free
  4747   001CBA                     i2l7414:
  4748                           
  4749                           ;MCAL_Layer/Interrupt/Interrupt_managment.c: 186: if((PIE2bits.BCLIE==1) && (PIR2bits.BC
      +                          LIF==1)){
  4750   001CBA  A6A0               	btfss	160,3,c	;volatile
  4751   001CBC  EF62  F00E         	goto	i2u727_41
  4752   001CC0  EF64  F00E         	goto	i2u727_40
  4753   001CC4                     i2u727_41:
  4754   001CC4  EF6D  F00E         	goto	i2l1034
  4755   001CC8                     i2u727_40:
  4756   001CC8  A6A1               	btfss	161,3,c	;volatile
  4757   001CCA  EF69  F00E         	goto	i2u728_41
  4758   001CCE  EF6B  F00E         	goto	i2u728_40
  4759   001CD2                     i2u728_41:
  4760   001CD2  EF6D  F00E         	goto	i2l1034
  4761   001CD6                     i2u728_40:
  4762   001CD6                     
  4763                           ;MCAL_Layer/Interrupt/Interrupt_managment.c: 187:       MSSP_BC_ISR();
  4764   001CD6  EC03  F016         	call	_MSSP_BC_ISR	;wreg free
  4765   001CDA                     i2l1034:
  4766   001CDA  C003  FFFB         	movff	??_InterruptManagmentHigh+1,pclatu
  4767   001CDE  C002  FFFA         	movff	??_InterruptManagmentHigh,pclath
  4768   001CE2  927B               	bcf	int$flags,1,c	;clear compiler interrupt flag (level 2)
  4769   001CE4  0011               	retfie		f
  4770   001CE6                     __end_of_InterruptManagmentHigh:
  4771                           	callstack 0
  4772                           
  4773 ;; *************** function _TIMER3_ISR *****************
  4774 ;; Defined at:
  4775 ;;		line 109 in file "MCAL_Layer/Timer3/timer3.c"
  4776 ;; Parameters:    Size  Location     Type
  4777 ;;		None
  4778 ;; Auto vars:     Size  Location     Type
  4779 ;;		None
  4780 ;; Return value:  Size  Location     Type
  4781 ;;                  1    wreg      void 
  4782 ;; Registers used:
  4783 ;;		wreg, status,2
  4784 ;; Tracked objects:
  4785 ;;		On entry : 0/0
  4786 ;;		On exit  : 0/0
  4787 ;;		Unchanged: 0/0
  4788 ;; Data sizes:     COMRAM   BANK0   BANK1   BANK2   BANK3   BANK4   BANK5   BANK6   BANK7   BANK8   BANK9  BANK10  BANK1
      +1  BANK12  BANK13  BANK14  BANK15
  4789 ;;      Params:         0       0       0       0       0       0       0       0       0       0       0       0       
      +0       0       0       0       0
  4790 ;;      Locals:         0       0       0       0       0       0       0       0       0       0       0       0       
      +0       0       0       0       0
  4791 ;;      Temps:          0       0       0       0       0       0       0       0       0       0       0       0       
      +0       0       0       0       0
  4792 ;;      Totals:         0       0       0       0       0       0       0       0       0       0       0       0       
      +0       0       0       0       0
  4793 ;;Total ram usage:        0 bytes
  4794 ;; Hardware stack levels used: 1
  4795 ;; This function calls:
  4796 ;;		Nothing
  4797 ;; This function is called by:
  4798 ;;		_InterruptManagmentHigh
  4799 ;; This function uses a non-reentrant model
  4800 ;;
  4801                           
  4802                           	psect	text14
  4803   002BD4                     __ptext14:
  4804                           	callstack 0
  4805   002BD4                     _TIMER3_ISR:
  4806                           	callstack 26
  4807   002BD4                     
  4808                           ;MCAL_Layer/Timer3/timer3.c: 110:     (PIR2bits.TMR3IF=0);
  4809   002BD4  92A1               	bcf	161,1,c	;volatile
  4810   002BD6                     
  4811                           ;MCAL_Layer/Timer3/timer3.c: 111:     TMR3H=timer3_preload>>8;
  4812   002BD6  505F               	movf	(_timer3_preload+1)^0,w,c
  4813   002BD8  6EB3               	movwf	179,c	;volatile
  4814   002BDA                     
  4815                           ;MCAL_Layer/Timer3/timer3.c: 112:             TMR3L =(uint8)timer3_preload;
  4816   002BDA  C05E  FFB2         	movff	_timer3_preload,4018	;volatile
  4817   002BDE  0012               	return		;funcret
  4818   002BE0                     __end_of_TIMER3_ISR:
  4819                           	callstack 0
  4820                           
  4821 ;; *************** function _TIMER2_ISR *****************
  4822 ;; Defined at:
  4823 ;;		line 99 in file "MCAL_Layer/Timer2/timer2.c"
  4824 ;; Parameters:    Size  Location     Type
  4825 ;;		None
  4826 ;; Auto vars:     Size  Location     Type
  4827 ;;		None
  4828 ;; Return value:  Size  Location     Type
  4829 ;;                  1    wreg      void 
  4830 ;; Registers used:
  4831 ;;		None
  4832 ;; Tracked objects:
  4833 ;;		On entry : 0/0
  4834 ;;		On exit  : 0/0
  4835 ;;		Unchanged: 0/0
  4836 ;; Data sizes:     COMRAM   BANK0   BANK1   BANK2   BANK3   BANK4   BANK5   BANK6   BANK7   BANK8   BANK9  BANK10  BANK1
      +1  BANK12  BANK13  BANK14  BANK15
  4837 ;;      Params:         0       0       0       0       0       0       0       0       0       0       0       0       
      +0       0       0       0       0
  4838 ;;      Locals:         0       0       0       0       0       0       0       0       0       0       0       0       
      +0       0       0       0       0
  4839 ;;      Temps:          0       0       0       0       0       0       0       0       0       0       0       0       
      +0       0       0       0       0
  4840 ;;      Totals:         0       0       0       0       0       0       0       0       0       0       0       0       
      +0       0       0       0       0
  4841 ;;Total ram usage:        0 bytes
  4842 ;; Hardware stack levels used: 1
  4843 ;; This function calls:
  4844 ;;		Nothing
  4845 ;; This function is called by:
  4846 ;;		_InterruptManagmentHigh
  4847 ;; This function uses a non-reentrant model
  4848 ;;
  4849                           
  4850                           	psect	text15
  4851   002BF8                     __ptext15:
  4852                           	callstack 0
  4853   002BF8                     _TIMER2_ISR:
  4854                           	callstack 26
  4855   002BF8                     
  4856                           ;MCAL_Layer/Timer2/timer2.c: 100:     (PIR1bits.TMR2IF=0);
  4857   002BF8  929E               	bcf	158,1,c	;volatile
  4858                           
  4859                           ;MCAL_Layer/Timer2/timer2.c: 101:     TMR2=timer2_preload;
  4860   002BFA  C06D  FFCC         	movff	_timer2_preload,4044	;volatile
  4861   002BFE  0012               	return		;funcret
  4862   002C00                     __end_of_TIMER2_ISR:
  4863                           	callstack 0
  4864                           
  4865 ;; *************** function _TIMER1_ISR *****************
  4866 ;; Defined at:
  4867 ;;		line 161 in file "MCAL_Layer/Timer1/timer1.c"
  4868 ;; Parameters:    Size  Location     Type
  4869 ;;		None
  4870 ;; Auto vars:     Size  Location     Type
  4871 ;;		None
  4872 ;; Return value:  Size  Location     Type
  4873 ;;                  1    wreg      void 
  4874 ;; Registers used:
  4875 ;;		wreg, status,2
  4876 ;; Tracked objects:
  4877 ;;		On entry : 0/0
  4878 ;;		On exit  : 0/0
  4879 ;;		Unchanged: 0/0
  4880 ;; Data sizes:     COMRAM   BANK0   BANK1   BANK2   BANK3   BANK4   BANK5   BANK6   BANK7   BANK8   BANK9  BANK10  BANK1
      +1  BANK12  BANK13  BANK14  BANK15
  4881 ;;      Params:         0       0       0       0       0       0       0       0       0       0       0       0       
      +0       0       0       0       0
  4882 ;;      Locals:         0       0       0       0       0       0       0       0       0       0       0       0       
      +0       0       0       0       0
  4883 ;;      Temps:          0       0       0       0       0       0       0       0       0       0       0       0       
      +0       0       0       0       0
  4884 ;;      Totals:         0       0       0       0       0       0       0       0       0       0       0       0       
      +0       0       0       0       0
  4885 ;;Total ram usage:        0 bytes
  4886 ;; Hardware stack levels used: 1
  4887 ;; This function calls:
  4888 ;;		Nothing
  4889 ;; This function is called by:
  4890 ;;		_InterruptManagmentHigh
  4891 ;; This function uses a non-reentrant model
  4892 ;;
  4893                           
  4894                           	psect	text16
  4895   002BE0                     __ptext16:
  4896                           	callstack 0
  4897   002BE0                     _TIMER1_ISR:
  4898                           	callstack 26
  4899   002BE0                     
  4900                           ;MCAL_Layer/Timer1/timer1.c: 162:     (PIR1bits.TMR1IF=0);
  4901   002BE0  909E               	bcf	158,0,c	;volatile
  4902   002BE2                     
  4903                           ;MCAL_Layer/Timer1/timer1.c: 163:     TMR1H=timer1_preload>>8;
  4904   002BE2  5061               	movf	(_timer1_preload+1)^0,w,c
  4905   002BE4  6ECF               	movwf	207,c	;volatile
  4906   002BE6                     
  4907                           ;MCAL_Layer/Timer1/timer1.c: 164:     TMR1L =(uint8)timer1_preload;
  4908   002BE6  C060  FFCE         	movff	_timer1_preload,4046	;volatile
  4909   002BEA  0012               	return		;funcret
  4910   002BEC                     __end_of_TIMER1_ISR:
  4911                           	callstack 0
  4912                           
  4913 ;; *************** function _TIMER0_ISR *****************
  4914 ;; Defined at:
  4915 ;;		line 162 in file "MCAL_Layer/Timer/timer0.c"
  4916 ;; Parameters:    Size  Location     Type
  4917 ;;		None
  4918 ;; Auto vars:     Size  Location     Type
  4919 ;;		None
  4920 ;; Return value:  Size  Location     Type
  4921 ;;                  1    wreg      void 
  4922 ;; Registers used:
  4923 ;;		wreg, status,2
  4924 ;; Tracked objects:
  4925 ;;		On entry : 0/0
  4926 ;;		On exit  : 0/0
  4927 ;;		Unchanged: 0/0
  4928 ;; Data sizes:     COMRAM   BANK0   BANK1   BANK2   BANK3   BANK4   BANK5   BANK6   BANK7   BANK8   BANK9  BANK10  BANK1
      +1  BANK12  BANK13  BANK14  BANK15
  4929 ;;      Params:         0       0       0       0       0       0       0       0       0       0       0       0       
      +0       0       0       0       0
  4930 ;;      Locals:         0       0       0       0       0       0       0       0       0       0       0       0       
      +0       0       0       0       0
  4931 ;;      Temps:          0       0       0       0       0       0       0       0       0       0       0       0       
      +0       0       0       0       0
  4932 ;;      Totals:         0       0       0       0       0       0       0       0       0       0       0       0       
      +0       0       0       0       0
  4933 ;;Total ram usage:        0 bytes
  4934 ;; Hardware stack levels used: 1
  4935 ;; This function calls:
  4936 ;;		Nothing
  4937 ;; This function is called by:
  4938 ;;		_InterruptManagmentHigh
  4939 ;; This function uses a non-reentrant model
  4940 ;;
  4941                           
  4942                           	psect	text17
  4943   002BEC                     __ptext17:
  4944                           	callstack 0
  4945   002BEC                     _TIMER0_ISR:
  4946                           	callstack 26
  4947   002BEC                     
  4948                           ;MCAL_Layer/Timer/timer0.c: 163:     (INTCONbits.TMR0IF=0);
  4949   002BEC  94F2               	bcf	242,2,c	;volatile
  4950   002BEE                     
  4951                           ;MCAL_Layer/Timer/timer0.c: 164:     TMR0H=timer0_preload>>8;
  4952   002BEE  5063               	movf	(_timer0_preload+1)^0,w,c
  4953   002BF0  6ED7               	movwf	215,c	;volatile
  4954   002BF2                     
  4955                           ;MCAL_Layer/Timer/timer0.c: 165:     TMR0L =(uint8)timer0_preload;
  4956   002BF2  C062  FFD6         	movff	_timer0_preload,4054	;volatile
  4957   002BF6  0012               	return		;funcret
  4958   002BF8                     __end_of_TIMER0_ISR:
  4959                           	callstack 0
  4960                           
  4961 ;; *************** function _RB7_ISR *****************
  4962 ;; Defined at:
  4963 ;;		line 434 in file "MCAL_Layer/Interrupt/Interrupt_external.c"
  4964 ;; Parameters:    Size  Location     Type
  4965 ;;  flage           1    wreg     unsigned char 
  4966 ;; Auto vars:     Size  Location     Type
  4967 ;;  flage           1    0[COMRAM] unsigned char 
  4968 ;; Return value:  Size  Location     Type
  4969 ;;                  1    wreg      void 
  4970 ;; Registers used:
  4971 ;;		wreg, status,2, status,0
  4972 ;; Tracked objects:
  4973 ;;		On entry : 0/0
  4974 ;;		On exit  : 0/0
  4975 ;;		Unchanged: 0/0
  4976 ;; Data sizes:     COMRAM   BANK0   BANK1   BANK2   BANK3   BANK4   BANK5   BANK6   BANK7   BANK8   BANK9  BANK10  BANK1
      +1  BANK12  BANK13  BANK14  BANK15
  4977 ;;      Params:         0       0       0       0       0       0       0       0       0       0       0       0       
      +0       0       0       0       0
  4978 ;;      Locals:         1       0       0       0       0       0       0       0       0       0       0       0       
      +0       0       0       0       0
  4979 ;;      Temps:          0       0       0       0       0       0       0       0       0       0       0       0       
      +0       0       0       0       0
  4980 ;;      Totals:         1       0       0       0       0       0       0       0       0       0       0       0       
      +0       0       0       0       0
  4981 ;;Total ram usage:        1 bytes
  4982 ;; Hardware stack levels used: 1
  4983 ;; This function calls:
  4984 ;;		Nothing
  4985 ;; This function is called by:
  4986 ;;		_InterruptManagmentHigh
  4987 ;; This function uses a non-reentrant model
  4988 ;;
  4989                           
  4990                           	psect	text18
  4991   002B5C                     __ptext18:
  4992                           	callstack 0
  4993   002B5C                     _RB7_ISR:
  4994                           	callstack 26
  4995                           
  4996                           ;incstack = 0
  4997                           ;RB7_ISR@flage stored from wreg
  4998   002B5C  6E01               	movwf	RB7_ISR@flage^0,c
  4999   002B5E                     
  5000                           ;MCAL_Layer/Interrupt/Interrupt_external.c: 435:    (INTCONbits.RBIF=0);
  5001   002B5E  90F2               	bcf	242,0,c	;volatile
  5002   002B60                     
  5003                           ;MCAL_Layer/Interrupt/Interrupt_external.c: 436:     if(flage==1){
  5004   002B60  0401               	decf	RB7_ISR@flage^0,w,c
  5005   002B62  A4D8               	btfss	status,2,c
  5006   002B64  EFB6  F015         	goto	i2u559_41
  5007   002B68  EFB8  F015         	goto	i2u559_40
  5008   002B6C                     i2u559_41:
  5009   002B6C  EFBA  F015         	goto	i2l6198
  5010   002B70                     i2u559_40:
  5011   002B70  EFBA  F015         	goto	i2l1213
  5012   002B74                     i2l6198:
  5013   002B74                     i2l1213:
  5014   002B74  0012               	return		;funcret
  5015   002B76                     __end_of_RB7_ISR:
  5016                           	callstack 0
  5017                           
  5018 ;; *************** function _RB6_ISR *****************
  5019 ;; Defined at:
  5020 ;;		line 416 in file "MCAL_Layer/Interrupt/Interrupt_external.c"
  5021 ;; Parameters:    Size  Location     Type
  5022 ;;  flage           1    wreg     unsigned char 
  5023 ;; Auto vars:     Size  Location     Type
  5024 ;;  flage           1    0[COMRAM] unsigned char 
  5025 ;; Return value:  Size  Location     Type
  5026 ;;                  1    wreg      void 
  5027 ;; Registers used:
  5028 ;;		wreg, status,2, status,0
  5029 ;; Tracked objects:
  5030 ;;		On entry : 0/0
  5031 ;;		On exit  : 0/0
  5032 ;;		Unchanged: 0/0
  5033 ;; Data sizes:     COMRAM   BANK0   BANK1   BANK2   BANK3   BANK4   BANK5   BANK6   BANK7   BANK8   BANK9  BANK10  BANK1
      +1  BANK12  BANK13  BANK14  BANK15
  5034 ;;      Params:         0       0       0       0       0       0       0       0       0       0       0       0       
      +0       0       0       0       0
  5035 ;;      Locals:         1       0       0       0       0       0       0       0       0       0       0       0       
      +0       0       0       0       0
  5036 ;;      Temps:          0       0       0       0       0       0       0       0       0       0       0       0       
      +0       0       0       0       0
  5037 ;;      Totals:         1       0       0       0       0       0       0       0       0       0       0       0       
      +0       0       0       0       0
  5038 ;;Total ram usage:        1 bytes
  5039 ;; Hardware stack levels used: 1
  5040 ;; This function calls:
  5041 ;;		Nothing
  5042 ;; This function is called by:
  5043 ;;		_InterruptManagmentHigh
  5044 ;; This function uses a non-reentrant model
  5045 ;;
  5046                           
  5047                           	psect	text19
  5048   002B76                     __ptext19:
  5049                           	callstack 0
  5050   002B76                     _RB6_ISR:
  5051                           	callstack 26
  5052                           
  5053                           ;incstack = 0
  5054                           ;RB6_ISR@flage stored from wreg
  5055   002B76  6E01               	movwf	RB6_ISR@flage^0,c
  5056   002B78                     
  5057                           ;MCAL_Layer/Interrupt/Interrupt_external.c: 417:    (INTCONbits.RBIF=0);
  5058   002B78  90F2               	bcf	242,0,c	;volatile
  5059   002B7A                     
  5060                           ;MCAL_Layer/Interrupt/Interrupt_external.c: 418:     if(flage==1){
  5061   002B7A  0401               	decf	RB6_ISR@flage^0,w,c
  5062   002B7C  A4D8               	btfss	status,2,c
  5063   002B7E  EFC3  F015         	goto	i2u558_41
  5064   002B82  EFC5  F015         	goto	i2u558_40
  5065   002B86                     i2u558_41:
  5066   002B86  EFC7  F015         	goto	i2l6188
  5067   002B8A                     i2u558_40:
  5068   002B8A  EFC7  F015         	goto	i2l1204
  5069   002B8E                     i2l6188:
  5070   002B8E                     i2l1204:
  5071   002B8E  0012               	return		;funcret
  5072   002B90                     __end_of_RB6_ISR:
  5073                           	callstack 0
  5074                           
  5075 ;; *************** function _RB5_ISR *****************
  5076 ;; Defined at:
  5077 ;;		line 398 in file "MCAL_Layer/Interrupt/Interrupt_external.c"
  5078 ;; Parameters:    Size  Location     Type
  5079 ;;  flage           1    wreg     unsigned char 
  5080 ;; Auto vars:     Size  Location     Type
  5081 ;;  flage           1    0[COMRAM] unsigned char 
  5082 ;; Return value:  Size  Location     Type
  5083 ;;                  1    wreg      void 
  5084 ;; Registers used:
  5085 ;;		wreg, status,2, status,0
  5086 ;; Tracked objects:
  5087 ;;		On entry : 0/0
  5088 ;;		On exit  : 0/0
  5089 ;;		Unchanged: 0/0
  5090 ;; Data sizes:     COMRAM   BANK0   BANK1   BANK2   BANK3   BANK4   BANK5   BANK6   BANK7   BANK8   BANK9  BANK10  BANK1
      +1  BANK12  BANK13  BANK14  BANK15
  5091 ;;      Params:         0       0       0       0       0       0       0       0       0       0       0       0       
      +0       0       0       0       0
  5092 ;;      Locals:         1       0       0       0       0       0       0       0       0       0       0       0       
      +0       0       0       0       0
  5093 ;;      Temps:          0       0       0       0       0       0       0       0       0       0       0       0       
      +0       0       0       0       0
  5094 ;;      Totals:         1       0       0       0       0       0       0       0       0       0       0       0       
      +0       0       0       0       0
  5095 ;;Total ram usage:        1 bytes
  5096 ;; Hardware stack levels used: 1
  5097 ;; This function calls:
  5098 ;;		Nothing
  5099 ;; This function is called by:
  5100 ;;		_InterruptManagmentHigh
  5101 ;; This function uses a non-reentrant model
  5102 ;;
  5103                           
  5104                           	psect	text20
  5105   002B90                     __ptext20:
  5106                           	callstack 0
  5107   002B90                     _RB5_ISR:
  5108                           	callstack 26
  5109                           
  5110                           ;incstack = 0
  5111                           ;RB5_ISR@flage stored from wreg
  5112   002B90  6E01               	movwf	RB5_ISR@flage^0,c
  5113   002B92                     
  5114                           ;MCAL_Layer/Interrupt/Interrupt_external.c: 399:    (INTCONbits.RBIF=0);
  5115   002B92  90F2               	bcf	242,0,c	;volatile
  5116   002B94                     
  5117                           ;MCAL_Layer/Interrupt/Interrupt_external.c: 400:     if(flage==1){
  5118   002B94  0401               	decf	RB5_ISR@flage^0,w,c
  5119   002B96  A4D8               	btfss	status,2,c
  5120   002B98  EFD0  F015         	goto	i2u557_41
  5121   002B9C  EFD2  F015         	goto	i2u557_40
  5122   002BA0                     i2u557_41:
  5123   002BA0  EFD4  F015         	goto	i2l6178
  5124   002BA4                     i2u557_40:
  5125   002BA4  EFD4  F015         	goto	i2l1195
  5126   002BA8                     i2l6178:
  5127   002BA8                     i2l1195:
  5128   002BA8  0012               	return		;funcret
  5129   002BAA                     __end_of_RB5_ISR:
  5130                           	callstack 0
  5131                           
  5132 ;; *************** function _RB4_ISR *****************
  5133 ;; Defined at:
  5134 ;;		line 380 in file "MCAL_Layer/Interrupt/Interrupt_external.c"
  5135 ;; Parameters:    Size  Location     Type
  5136 ;;  flage           1    wreg     unsigned char 
  5137 ;; Auto vars:     Size  Location     Type
  5138 ;;  flage           1    0[COMRAM] unsigned char 
  5139 ;; Return value:  Size  Location     Type
  5140 ;;                  1    wreg      void 
  5141 ;; Registers used:
  5142 ;;		wreg, status,2, status,0
  5143 ;; Tracked objects:
  5144 ;;		On entry : 0/0
  5145 ;;		On exit  : 0/0
  5146 ;;		Unchanged: 0/0
  5147 ;; Data sizes:     COMRAM   BANK0   BANK1   BANK2   BANK3   BANK4   BANK5   BANK6   BANK7   BANK8   BANK9  BANK10  BANK1
      +1  BANK12  BANK13  BANK14  BANK15
  5148 ;;      Params:         0       0       0       0       0       0       0       0       0       0       0       0       
      +0       0       0       0       0
  5149 ;;      Locals:         1       0       0       0       0       0       0       0       0       0       0       0       
      +0       0       0       0       0
  5150 ;;      Temps:          0       0       0       0       0       0       0       0       0       0       0       0       
      +0       0       0       0       0
  5151 ;;      Totals:         1       0       0       0       0       0       0       0       0       0       0       0       
      +0       0       0       0       0
  5152 ;;Total ram usage:        1 bytes
  5153 ;; Hardware stack levels used: 1
  5154 ;; This function calls:
  5155 ;;		Nothing
  5156 ;; This function is called by:
  5157 ;;		_InterruptManagmentHigh
  5158 ;; This function uses a non-reentrant model
  5159 ;;
  5160                           
  5161                           	psect	text21
  5162   002BAA                     __ptext21:
  5163                           	callstack 0
  5164   002BAA                     _RB4_ISR:
  5165                           	callstack 26
  5166                           
  5167                           ;incstack = 0
  5168                           ;RB4_ISR@flage stored from wreg
  5169   002BAA  6E01               	movwf	RB4_ISR@flage^0,c
  5170   002BAC                     
  5171                           ;MCAL_Layer/Interrupt/Interrupt_external.c: 381:     (INTCONbits.RBIF=0);
  5172   002BAC  90F2               	bcf	242,0,c	;volatile
  5173   002BAE                     
  5174                           ;MCAL_Layer/Interrupt/Interrupt_external.c: 382:     if(flage==1){
  5175   002BAE  0401               	decf	RB4_ISR@flage^0,w,c
  5176   002BB0  A4D8               	btfss	status,2,c
  5177   002BB2  EFDD  F015         	goto	i2u556_41
  5178   002BB6  EFDF  F015         	goto	i2u556_40
  5179   002BBA                     i2u556_41:
  5180   002BBA  EFE1  F015         	goto	i2l6168
  5181   002BBE                     i2u556_40:
  5182   002BBE  EFE1  F015         	goto	i2l1186
  5183   002BC2                     i2l6168:
  5184   002BC2                     i2l1186:
  5185   002BC2  0012               	return		;funcret
  5186   002BC4                     __end_of_RB4_ISR:
  5187                           	callstack 0
  5188                           
  5189 ;; *************** function _MSSP_ISR *****************
  5190 ;; Defined at:
  5191 ;;		line 266 in file "MCAL_Layer/I2C/I2C.c"
  5192 ;; Parameters:    Size  Location     Type
  5193 ;;		None
  5194 ;; Auto vars:     Size  Location     Type
  5195 ;;		None
  5196 ;; Return value:  Size  Location     Type
  5197 ;;                  1    wreg      void 
  5198 ;; Registers used:
  5199 ;;		wreg, status,2, status,0, pcl, pclath, pclatu, tosl, cstack
  5200 ;; Tracked objects:
  5201 ;;		On entry : 0/0
  5202 ;;		On exit  : 0/0
  5203 ;;		Unchanged: 0/0
  5204 ;; Data sizes:     COMRAM   BANK0   BANK1   BANK2   BANK3   BANK4   BANK5   BANK6   BANK7   BANK8   BANK9  BANK10  BANK1
      +1  BANK12  BANK13  BANK14  BANK15
  5205 ;;      Params:         0       0       0       0       0       0       0       0       0       0       0       0       
      +0       0       0       0       0
  5206 ;;      Locals:         0       0       0       0       0       0       0       0       0       0       0       0       
      +0       0       0       0       0
  5207 ;;      Temps:          0       0       0       0       0       0       0       0       0       0       0       0       
      +0       0       0       0       0
  5208 ;;      Totals:         0       0       0       0       0       0       0       0       0       0       0       0       
      +0       0       0       0       0
  5209 ;;Total ram usage:        0 bytes
  5210 ;; Hardware stack levels used: 1
  5211 ;; Hardware stack levels required when called: 1
  5212 ;; This function calls:
  5213 ;;		NULL
  5214 ;;		_Default
  5215 ;; This function is called by:
  5216 ;;		_InterruptManagmentHigh
  5217 ;; This function uses a non-reentrant model
  5218 ;;
  5219                           
  5220                           	psect	text22
  5221   002B02                     __ptext22:
  5222                           	callstack 0
  5223   002B02                     _MSSP_ISR:
  5224                           	callstack 25
  5225   002B02                     
  5226                           ;MCAL_Layer/I2C/I2C.c: 267:     (PIR1bits.SSPIF=0);
  5227   002B02  969E               	bcf	158,3,c	;volatile
  5228   002B04                     
  5229                           ;MCAL_Layer/I2C/I2C.c: 268:     if(i2c_callback_ptr){
  5230   002B04  5064               	movf	_i2c_callback_ptr^0,w,c
  5231   002B06  1065               	iorwf	(_i2c_callback_ptr+1)^0,w,c
  5232   002B08  B4D8               	btfsc	status,2,c
  5233   002B0A  EF89  F015         	goto	i2u152_41
  5234   002B0E  EF8B  F015         	goto	i2u152_40
  5235   002B12                     i2u152_41:
  5236   002B12  EF97  F015         	goto	i2l920
  5237   002B16                     i2u152_40:
  5238   002B16                     
  5239                           ;MCAL_Layer/I2C/I2C.c: 269:         i2c_callback_ptr();
  5240   002B16  D802               	call	i2u153_48
  5241   002B18  EF97  F015         	goto	i2u153_49
  5242   002B1C                     i2u153_48:
  5243   002B1C  0005               	push	
  5244   002B1E  6EFA               	movwf	pclath,c
  5245   002B20  5064               	movf	_i2c_callback_ptr^0,w,c
  5246   002B22  6EFD               	movwf	tosl,c
  5247   002B24  5065               	movf	(_i2c_callback_ptr+1)^0,w,c
  5248   002B26  6EFE               	movwf	tosh,c
  5249   002B28  6AFF               	clrf	tosu,c
  5250   002B2A  50FA               	movf	pclath,w,c
  5251   002B2C  0012               	return		;indir
  5252   002B2E                     i2u153_49:
  5253   002B2E                     i2l920:
  5254   002B2E  0012               	return		;funcret
  5255   002B30                     __end_of_MSSP_ISR:
  5256                           	callstack 0
  5257                           
  5258 ;; *************** function _Default *****************
  5259 ;; Defined at:
  5260 ;;		line 13 in file "Application.c"
  5261 ;; Parameters:    Size  Location     Type
  5262 ;;		None
  5263 ;; Auto vars:     Size  Location     Type
  5264 ;;  dummydata       1    0        unsigned char 
  5265 ;; Return value:  Size  Location     Type
  5266 ;;                  1    wreg      void 
  5267 ;; Registers used:
  5268 ;;		wreg
  5269 ;; Tracked objects:
  5270 ;;		On entry : 0/0
  5271 ;;		On exit  : 0/0
  5272 ;;		Unchanged: 0/0
  5273 ;; Data sizes:     COMRAM   BANK0   BANK1   BANK2   BANK3   BANK4   BANK5   BANK6   BANK7   BANK8   BANK9  BANK10  BANK1
      +1  BANK12  BANK13  BANK14  BANK15
  5274 ;;      Params:         0       0       0       0       0       0       0       0       0       0       0       0       
      +0       0       0       0       0
  5275 ;;      Locals:         0       0       0       0       0       0       0       0       0       0       0       0       
      +0       0       0       0       0
  5276 ;;      Temps:          0       0       0       0       0       0       0       0       0       0       0       0       
      +0       0       0       0       0
  5277 ;;      Totals:         0       0       0       0       0       0       0       0       0       0       0       0       
      +0       0       0       0       0
  5278 ;;Total ram usage:        0 bytes
  5279 ;; Hardware stack levels used: 1
  5280 ;; This function calls:
  5281 ;;		Nothing
  5282 ;; This function is called by:
  5283 ;;		_MSSP_ISR
  5284 ;; This function uses a non-reentrant model
  5285 ;;
  5286                           
  5287                           	psect	text23
  5288   002AC6                     __ptext23:
  5289                           	callstack 0
  5290   002AC6                     _Default:
  5291                           	callstack 25
  5292   002AC6                     
  5293                           ;Application.c: 15:     (SSPCON1bits.CKP=0);
  5294   002AC6  98C6               	bcf	198,4,c	;volatile
  5295                           
  5296                           ;Application.c: 16:     if(((0)==(SSPSTATbits.RW))&&((0)==(SSPSTATbits.DA))){
  5297   002AC8  B4C7               	btfsc	199,2,c	;volatile
  5298   002ACA  EF69  F015         	goto	i2u15_41
  5299   002ACE  EF6B  F015         	goto	i2u15_40
  5300   002AD2                     i2u15_41:
  5301   002AD2  EF7E  F015         	goto	i2l1413
  5302   002AD6                     i2u15_40:
  5303   002AD6  BAC7               	btfsc	199,5,c	;volatile
  5304   002AD8  EF70  F015         	goto	i2u16_41
  5305   002ADC  EF72  F015         	goto	i2u16_40
  5306   002AE0                     i2u16_41:
  5307   002AE0  EF7E  F015         	goto	i2l1413
  5308   002AE4                     i2u16_40:
  5309   002AE4  50C9               	movf	201,w,c	;volatile
  5310   002AE6                     i2l1414:
  5311   002AE6  A0C7               	btfss	199,0,c	;volatile
  5312   002AE8  EF78  F015         	goto	i2u17_41
  5313   002AEC  EF7A  F015         	goto	i2u17_40
  5314   002AF0                     i2u17_41:
  5315   002AF0  EF73  F015         	goto	i2l1414
  5316   002AF4                     i2u17_40:
  5317   002AF4                     
  5318                           ;Application.c: 19:         slave1_data_rec=SSPBUF;
  5319   002AF4  CFC9 F06C          	movff	4041,_slave1_data_rec	;volatile
  5320                           
  5321                           ;Application.c: 20:     }
  5322   002AF8  EF7F  F015         	goto	i2l1417
  5323   002AFC                     i2l1413:
  5324   002AFC  50C7               	movf	199,w,c	;volatile
  5325   002AFE                     i2l1417:
  5326                           
  5327                           ;Application.c: 28:     (SSPCON1bits.CKP=1);
  5328   002AFE  88C6               	bsf	198,4,c	;volatile
  5329   002B00  0012               	return		;funcret
  5330   002B02                     __end_of_Default:
  5331                           	callstack 0
  5332                           
  5333 ;; *************** function _MSSP_BC_ISR *****************
  5334 ;; Defined at:
  5335 ;;		line 273 in file "MCAL_Layer/I2C/I2C.c"
  5336 ;; Parameters:    Size  Location     Type
  5337 ;;		None
  5338 ;; Auto vars:     Size  Location     Type
  5339 ;;		None
  5340 ;; Return value:  Size  Location     Type
  5341 ;;                  1    wreg      void 
  5342 ;; Registers used:
  5343 ;;		None
  5344 ;; Tracked objects:
  5345 ;;		On entry : 0/0
  5346 ;;		On exit  : 0/0
  5347 ;;		Unchanged: 0/0
  5348 ;; Data sizes:     COMRAM   BANK0   BANK1   BANK2   BANK3   BANK4   BANK5   BANK6   BANK7   BANK8   BANK9  BANK10  BANK1
      +1  BANK12  BANK13  BANK14  BANK15
  5349 ;;      Params:         0       0       0       0       0       0       0       0       0       0       0       0       
      +0       0       0       0       0
  5350 ;;      Locals:         0       0       0       0       0       0       0       0       0       0       0       0       
      +0       0       0       0       0
  5351 ;;      Temps:          0       0       0       0       0       0       0       0       0       0       0       0       
      +0       0       0       0       0
  5352 ;;      Totals:         0       0       0       0       0       0       0       0       0       0       0       0       
      +0       0       0       0       0
  5353 ;;Total ram usage:        0 bytes
  5354 ;; Hardware stack levels used: 1
  5355 ;; This function calls:
  5356 ;;		Nothing
  5357 ;; This function is called by:
  5358 ;;		_InterruptManagmentHigh
  5359 ;; This function uses a non-reentrant model
  5360 ;;
  5361                           
  5362                           	psect	text24
  5363   002C06                     __ptext24:
  5364                           	callstack 0
  5365   002C06                     _MSSP_BC_ISR:
  5366                           	callstack 26
  5367   002C06                     
  5368                           ;MCAL_Layer/I2C/I2C.c: 274:      (PIR2bits.BCLIF=0);
  5369   002C06  96A1               	bcf	161,3,c	;volatile
  5370   002C08  0012               	return		;funcret
  5371   002C0A                     __end_of_MSSP_BC_ISR:
  5372                           	callstack 0
  5373                           
  5374 ;; *************** function _INT2_ISR *****************
  5375 ;; Defined at:
  5376 ;;		line 371 in file "MCAL_Layer/Interrupt/Interrupt_external.c"
  5377 ;; Parameters:    Size  Location     Type
  5378 ;;		None
  5379 ;; Auto vars:     Size  Location     Type
  5380 ;;		None
  5381 ;; Return value:  Size  Location     Type
  5382 ;;                  1    wreg      void 
  5383 ;; Registers used:
  5384 ;;		None
  5385 ;; Tracked objects:
  5386 ;;		On entry : 0/0
  5387 ;;		On exit  : 0/0
  5388 ;;		Unchanged: 0/0
  5389 ;; Data sizes:     COMRAM   BANK0   BANK1   BANK2   BANK3   BANK4   BANK5   BANK6   BANK7   BANK8   BANK9  BANK10  BANK1
      +1  BANK12  BANK13  BANK14  BANK15
  5390 ;;      Params:         0       0       0       0       0       0       0       0       0       0       0       0       
      +0       0       0       0       0
  5391 ;;      Locals:         0       0       0       0       0       0       0       0       0       0       0       0       
      +0       0       0       0       0
  5392 ;;      Temps:          0       0       0       0       0       0       0       0       0       0       0       0       
      +0       0       0       0       0
  5393 ;;      Totals:         0       0       0       0       0       0       0       0       0       0       0       0       
      +0       0       0       0       0
  5394 ;;Total ram usage:        0 bytes
  5395 ;; Hardware stack levels used: 1
  5396 ;; This function calls:
  5397 ;;		Nothing
  5398 ;; This function is called by:
  5399 ;;		_InterruptManagmentHigh
  5400 ;; This function uses a non-reentrant model
  5401 ;;
  5402                           
  5403                           	psect	text25
  5404   002C0A                     __ptext25:
  5405                           	callstack 0
  5406   002C0A                     _INT2_ISR:
  5407                           	callstack 26
  5408   002C0A                     
  5409                           ;MCAL_Layer/Interrupt/Interrupt_external.c: 372:     (INTCON3bits.INT2IF=0);
  5410   002C0A  92F0               	bcf	240,1,c	;volatile
  5411   002C0C  0012               	return		;funcret
  5412   002C0E                     __end_of_INT2_ISR:
  5413                           	callstack 0
  5414                           
  5415 ;; *************** function _INT1_ISR *****************
  5416 ;; Defined at:
  5417 ;;		line 364 in file "MCAL_Layer/Interrupt/Interrupt_external.c"
  5418 ;; Parameters:    Size  Location     Type
  5419 ;;		None
  5420 ;; Auto vars:     Size  Location     Type
  5421 ;;		None
  5422 ;; Return value:  Size  Location     Type
  5423 ;;                  1    wreg      void 
  5424 ;; Registers used:
  5425 ;;		None
  5426 ;; Tracked objects:
  5427 ;;		On entry : 0/0
  5428 ;;		On exit  : 0/0
  5429 ;;		Unchanged: 0/0
  5430 ;; Data sizes:     COMRAM   BANK0   BANK1   BANK2   BANK3   BANK4   BANK5   BANK6   BANK7   BANK8   BANK9  BANK10  BANK1
      +1  BANK12  BANK13  BANK14  BANK15
  5431 ;;      Params:         0       0       0       0       0       0       0       0       0       0       0       0       
      +0       0       0       0       0
  5432 ;;      Locals:         0       0       0       0       0       0       0       0       0       0       0       0       
      +0       0       0       0       0
  5433 ;;      Temps:          0       0       0       0       0       0       0       0       0       0       0       0       
      +0       0       0       0       0
  5434 ;;      Totals:         0       0       0       0       0       0       0       0       0       0       0       0       
      +0       0       0       0       0
  5435 ;;Total ram usage:        0 bytes
  5436 ;; Hardware stack levels used: 1
  5437 ;; This function calls:
  5438 ;;		Nothing
  5439 ;; This function is called by:
  5440 ;;		_InterruptManagmentHigh
  5441 ;; This function uses a non-reentrant model
  5442 ;;
  5443                           
  5444                           	psect	text26
  5445   002C0E                     __ptext26:
  5446                           	callstack 0
  5447   002C0E                     _INT1_ISR:
  5448                           	callstack 26
  5449   002C0E                     
  5450                           ;MCAL_Layer/Interrupt/Interrupt_external.c: 365:     (INTCON3bits.INT1IF=0);
  5451   002C0E  90F0               	bcf	240,0,c	;volatile
  5452   002C10  0012               	return		;funcret
  5453   002C12                     __end_of_INT1_ISR:
  5454                           	callstack 0
  5455                           
  5456 ;; *************** function _INT0_ISR *****************
  5457 ;; Defined at:
  5458 ;;		line 357 in file "MCAL_Layer/Interrupt/Interrupt_external.c"
  5459 ;; Parameters:    Size  Location     Type
  5460 ;;		None
  5461 ;; Auto vars:     Size  Location     Type
  5462 ;;		None
  5463 ;; Return value:  Size  Location     Type
  5464 ;;                  1    wreg      void 
  5465 ;; Registers used:
  5466 ;;		None
  5467 ;; Tracked objects:
  5468 ;;		On entry : 0/0
  5469 ;;		On exit  : 0/0
  5470 ;;		Unchanged: 0/0
  5471 ;; Data sizes:     COMRAM   BANK0   BANK1   BANK2   BANK3   BANK4   BANK5   BANK6   BANK7   BANK8   BANK9  BANK10  BANK1
      +1  BANK12  BANK13  BANK14  BANK15
  5472 ;;      Params:         0       0       0       0       0       0       0       0       0       0       0       0       
      +0       0       0       0       0
  5473 ;;      Locals:         0       0       0       0       0       0       0       0       0       0       0       0       
      +0       0       0       0       0
  5474 ;;      Temps:          0       0       0       0       0       0       0       0       0       0       0       0       
      +0       0       0       0       0
  5475 ;;      Totals:         0       0       0       0       0       0       0       0       0       0       0       0       
      +0       0       0       0       0
  5476 ;;Total ram usage:        0 bytes
  5477 ;; Hardware stack levels used: 1
  5478 ;; This function calls:
  5479 ;;		Nothing
  5480 ;; This function is called by:
  5481 ;;		_InterruptManagmentHigh
  5482 ;; This function uses a non-reentrant model
  5483 ;;
  5484                           
  5485                           	psect	text27
  5486   002C12                     __ptext27:
  5487                           	callstack 0
  5488   002C12                     _INT0_ISR:
  5489                           	callstack 26
  5490   002C12                     
  5491                           ;MCAL_Layer/Interrupt/Interrupt_external.c: 358:     (INTCONbits.INT0IF=0);
  5492   002C12  92F2               	bcf	242,1,c	;volatile
  5493   002C14  0012               	return		;funcret
  5494   002C16                     __end_of_INT0_ISR:
  5495                           	callstack 0
  5496                           
  5497 ;; *************** function _EUSART_TX_ISR *****************
  5498 ;; Defined at:
  5499 ;;		line 286 in file "MCAL_Layer/EUSART/eusart.c"
  5500 ;; Parameters:    Size  Location     Type
  5501 ;;		None
  5502 ;; Auto vars:     Size  Location     Type
  5503 ;;		None
  5504 ;; Return value:  Size  Location     Type
  5505 ;;                  1    wreg      void 
  5506 ;; Registers used:
  5507 ;;		None
  5508 ;; Tracked objects:
  5509 ;;		On entry : 0/0
  5510 ;;		On exit  : 0/0
  5511 ;;		Unchanged: 0/0
  5512 ;; Data sizes:     COMRAM   BANK0   BANK1   BANK2   BANK3   BANK4   BANK5   BANK6   BANK7   BANK8   BANK9  BANK10  BANK1
      +1  BANK12  BANK13  BANK14  BANK15
  5513 ;;      Params:         0       0       0       0       0       0       0       0       0       0       0       0       
      +0       0       0       0       0
  5514 ;;      Locals:         0       0       0       0       0       0       0       0       0       0       0       0       
      +0       0       0       0       0
  5515 ;;      Temps:          0       0       0       0       0       0       0       0       0       0       0       0       
      +0       0       0       0       0
  5516 ;;      Totals:         0       0       0       0       0       0       0       0       0       0       0       0       
      +0       0       0       0       0
  5517 ;;Total ram usage:        0 bytes
  5518 ;; Hardware stack levels used: 1
  5519 ;; This function calls:
  5520 ;;		Nothing
  5521 ;; This function is called by:
  5522 ;;		_InterruptManagmentHigh
  5523 ;; This function uses a non-reentrant model
  5524 ;;
  5525                           
  5526                           	psect	text28
  5527   002C16                     __ptext28:
  5528                           	callstack 0
  5529   002C16                     _EUSART_TX_ISR:
  5530                           	callstack 26
  5531   002C16                     
  5532                           ;MCAL_Layer/EUSART/eusart.c: 288:     (PIE1bits.TXIE=0);
  5533   002C16  989D               	bcf	157,4,c	;volatile
  5534   002C18  0012               	return		;funcret
  5535   002C1A                     __end_of_EUSART_TX_ISR:
  5536                           	callstack 0
  5537                           
  5538 ;; *************** function _EUSART_RX_ISR *****************
  5539 ;; Defined at:
  5540 ;;		line 293 in file "MCAL_Layer/EUSART/eusart.c"
  5541 ;; Parameters:    Size  Location     Type
  5542 ;;		None
  5543 ;; Auto vars:     Size  Location     Type
  5544 ;;		None
  5545 ;; Return value:  Size  Location     Type
  5546 ;;                  1    wreg      void 
  5547 ;; Registers used:
  5548 ;;		wreg, status,2, status,0
  5549 ;; Tracked objects:
  5550 ;;		On entry : 0/0
  5551 ;;		On exit  : 0/0
  5552 ;;		Unchanged: 0/0
  5553 ;; Data sizes:     COMRAM   BANK0   BANK1   BANK2   BANK3   BANK4   BANK5   BANK6   BANK7   BANK8   BANK9  BANK10  BANK1
      +1  BANK12  BANK13  BANK14  BANK15
  5554 ;;      Params:         0       0       0       0       0       0       0       0       0       0       0       0       
      +0       0       0       0       0
  5555 ;;      Locals:         0       0       0       0       0       0       0       0       0       0       0       0       
      +0       0       0       0       0
  5556 ;;      Temps:          0       0       0       0       0       0       0       0       0       0       0       0       
      +0       0       0       0       0
  5557 ;;      Totals:         0       0       0       0       0       0       0       0       0       0       0       0       
      +0       0       0       0       0
  5558 ;;Total ram usage:        0 bytes
  5559 ;; Hardware stack levels used: 1
  5560 ;; This function calls:
  5561 ;;		Nothing
  5562 ;; This function is called by:
  5563 ;;		_InterruptManagmentHigh
  5564 ;; This function uses a non-reentrant model
  5565 ;;
  5566                           
  5567                           	psect	text29
  5568   002C26                     __ptext29:
  5569                           	callstack 0
  5570   002C26                     _EUSART_RX_ISR:
  5571                           	callstack 26
  5572   002C26  0012               	return		;funcret
  5573   002C28                     __end_of_EUSART_RX_ISR:
  5574                           	callstack 0
  5575                           
  5576 ;; *************** function _CCP2_ISR *****************
  5577 ;; Defined at:
  5578 ;;		line 261 in file "MCAL_Layer/ccp2/ccp2.c"
  5579 ;; Parameters:    Size  Location     Type
  5580 ;;		None
  5581 ;; Auto vars:     Size  Location     Type
  5582 ;;		None
  5583 ;; Return value:  Size  Location     Type
  5584 ;;                  1    wreg      void 
  5585 ;; Registers used:
  5586 ;;		None
  5587 ;; Tracked objects:
  5588 ;;		On entry : 0/0
  5589 ;;		On exit  : 0/0
  5590 ;;		Unchanged: 0/0
  5591 ;; Data sizes:     COMRAM   BANK0   BANK1   BANK2   BANK3   BANK4   BANK5   BANK6   BANK7   BANK8   BANK9  BANK10  BANK1
      +1  BANK12  BANK13  BANK14  BANK15
  5592 ;;      Params:         0       0       0       0       0       0       0       0       0       0       0       0       
      +0       0       0       0       0
  5593 ;;      Locals:         0       0       0       0       0       0       0       0       0       0       0       0       
      +0       0       0       0       0
  5594 ;;      Temps:          0       0       0       0       0       0       0       0       0       0       0       0       
      +0       0       0       0       0
  5595 ;;      Totals:         0       0       0       0       0       0       0       0       0       0       0       0       
      +0       0       0       0       0
  5596 ;;Total ram usage:        0 bytes
  5597 ;; Hardware stack levels used: 1
  5598 ;; This function calls:
  5599 ;;		Nothing
  5600 ;; This function is called by:
  5601 ;;		_InterruptManagmentHigh
  5602 ;; This function uses a non-reentrant model
  5603 ;;
  5604                           
  5605                           	psect	text30
  5606   002C1A                     __ptext30:
  5607                           	callstack 0
  5608   002C1A                     _CCP2_ISR:
  5609                           	callstack 26
  5610   002C1A                     
  5611                           ;MCAL_Layer/ccp2/ccp2.c: 262:     (PIR2bits.CCP2IF=0);
  5612   002C1A  90A1               	bcf	161,0,c	;volatile
  5613   002C1C  0012               	return		;funcret
  5614   002C1E                     __end_of_CCP2_ISR:
  5615                           	callstack 0
  5616                           
  5617 ;; *************** function _CCP1_ISR *****************
  5618 ;; Defined at:
  5619 ;;		line 262 in file "MCAL_Layer/ccp1/ccp1.c"
  5620 ;; Parameters:    Size  Location     Type
  5621 ;;		None
  5622 ;; Auto vars:     Size  Location     Type
  5623 ;;		None
  5624 ;; Return value:  Size  Location     Type
  5625 ;;                  1    wreg      void 
  5626 ;; Registers used:
  5627 ;;		None
  5628 ;; Tracked objects:
  5629 ;;		On entry : 0/0
  5630 ;;		On exit  : 0/0
  5631 ;;		Unchanged: 0/0
  5632 ;; Data sizes:     COMRAM   BANK0   BANK1   BANK2   BANK3   BANK4   BANK5   BANK6   BANK7   BANK8   BANK9  BANK10  BANK1
      +1  BANK12  BANK13  BANK14  BANK15
  5633 ;;      Params:         0       0       0       0       0       0       0       0       0       0       0       0       
      +0       0       0       0       0
  5634 ;;      Locals:         0       0       0       0       0       0       0       0       0       0       0       0       
      +0       0       0       0       0
  5635 ;;      Temps:          0       0       0       0       0       0       0       0       0       0       0       0       
      +0       0       0       0       0
  5636 ;;      Totals:         0       0       0       0       0       0       0       0       0       0       0       0       
      +0       0       0       0       0
  5637 ;;Total ram usage:        0 bytes
  5638 ;; Hardware stack levels used: 1
  5639 ;; This function calls:
  5640 ;;		Nothing
  5641 ;; This function is called by:
  5642 ;;		_InterruptManagmentHigh
  5643 ;; This function uses a non-reentrant model
  5644 ;;
  5645                           
  5646                           	psect	text31
  5647   002C1E                     __ptext31:
  5648                           	callstack 0
  5649   002C1E                     _CCP1_ISR:
  5650                           	callstack 26
  5651   002C1E                     
  5652                           ;MCAL_Layer/ccp1/ccp1.c: 263:     (PIR1bits.CCP1IF=0);
  5653   002C1E  949E               	bcf	158,2,c	;volatile
  5654   002C20  0012               	return		;funcret
  5655   002C22                     __end_of_CCP1_ISR:
  5656                           	callstack 0
  5657                           
  5658 ;; *************** function _ADC_ISR *****************
  5659 ;; Defined at:
  5660 ;;		line 322 in file "MCAL_Layer/ADC/ADC.c"
  5661 ;; Parameters:    Size  Location     Type
  5662 ;;		None
  5663 ;; Auto vars:     Size  Location     Type
  5664 ;;		None
  5665 ;; Return value:  Size  Location     Type
  5666 ;;                  1    wreg      void 
  5667 ;; Registers used:
  5668 ;;		None
  5669 ;; Tracked objects:
  5670 ;;		On entry : 0/0
  5671 ;;		On exit  : 0/0
  5672 ;;		Unchanged: 0/0
  5673 ;; Data sizes:     COMRAM   BANK0   BANK1   BANK2   BANK3   BANK4   BANK5   BANK6   BANK7   BANK8   BANK9  BANK10  BANK1
      +1  BANK12  BANK13  BANK14  BANK15
  5674 ;;      Params:         0       0       0       0       0       0       0       0       0       0       0       0       
      +0       0       0       0       0
  5675 ;;      Locals:         0       0       0       0       0       0       0       0       0       0       0       0       
      +0       0       0       0       0
  5676 ;;      Temps:          0       0       0       0       0       0       0       0       0       0       0       0       
      +0       0       0       0       0
  5677 ;;      Totals:         0       0       0       0       0       0       0       0       0       0       0       0       
      +0       0       0       0       0
  5678 ;;Total ram usage:        0 bytes
  5679 ;; Hardware stack levels used: 1
  5680 ;; This function calls:
  5681 ;;		Nothing
  5682 ;; This function is called by:
  5683 ;;		_InterruptManagmentHigh
  5684 ;; This function uses a non-reentrant model
  5685 ;;
  5686                           
  5687                           	psect	text32
  5688   002C22                     __ptext32:
  5689                           	callstack 0
  5690   002C22                     _ADC_ISR:
  5691                           	callstack 26
  5692   002C22                     
  5693                           ;MCAL_Layer/ADC/ADC.c: 323:     (PIR1bits.ADIF=0);
  5694   002C22  9C9E               	bcf	158,6,c	;volatile
  5695   002C24  0012               	return		;funcret
  5696   002C26                     __end_of_ADC_ISR:
  5697                           	callstack 0
  5698                           
  5699                           	psect	text33
  5700   000000                     __ptext33:
  5701                           	callstack 0
  5702   000000                     
  5703                           	psect	rparam
  5704   000000                     
  5705                           	psect	temp
  5706   00007B                     btemp:
  5707                           	callstack 0
  5708   00007B                     	ds	1
  5709   000000                     int$flags	set	btemp
  5710   000000                     wtemp8	set	btemp+1
  5711   000000                     ttemp5	set	btemp+1
  5712   000000                     ttemp6	set	btemp+4
  5713   000000                     ttemp7	set	btemp+8
  5714                           
  5715                           	psect	idloc
  5716                           
  5717                           ;Config register IDLOC0 @ 0x200000
  5718                           ;	unspecified, using default values
  5719   200000                     	org	2097152
  5720   200000  FF                 	db	255
  5721                           
  5722                           ;Config register IDLOC1 @ 0x200001
  5723                           ;	unspecified, using default values
  5724   200001                     	org	2097153
  5725   200001  FF                 	db	255
  5726                           
  5727                           ;Config register IDLOC2 @ 0x200002
  5728                           ;	unspecified, using default values
  5729   200002                     	org	2097154
  5730   200002  FF                 	db	255
  5731                           
  5732                           ;Config register IDLOC3 @ 0x200003
  5733                           ;	unspecified, using default values
  5734   200003                     	org	2097155
  5735   200003  FF                 	db	255
  5736                           
  5737                           ;Config register IDLOC4 @ 0x200004
  5738                           ;	unspecified, using default values
  5739   200004                     	org	2097156
  5740   200004  FF                 	db	255
  5741                           
  5742                           ;Config register IDLOC5 @ 0x200005
  5743                           ;	unspecified, using default values
  5744   200005                     	org	2097157
  5745   200005  FF                 	db	255
  5746                           
  5747                           ;Config register IDLOC6 @ 0x200006
  5748                           ;	unspecified, using default values
  5749   200006                     	org	2097158
  5750   200006  FF                 	db	255
  5751                           
  5752                           ;Config register IDLOC7 @ 0x200007
  5753                           ;	unspecified, using default values
  5754   200007                     	org	2097159
  5755   200007  FF                 	db	255
  5756                           
  5757                           	psect	config
  5758                           
  5759                           ; Padding undefined space
  5760   300000                     	org	3145728
  5761   300000  FF                 	db	255
  5762                           
  5763                           ;Config register CONFIG1H @ 0x300001
  5764                           ;	Oscillator Selection bits
  5765                           ;	OSC = HS, HS oscillator
  5766                           ;	Fail-Safe Clock Monitor Enable bit
  5767                           ;	FCMEN = OFF, Fail-Safe Clock Monitor disabled
  5768                           ;	Internal/External Oscillator Switchover bit
  5769                           ;	IESO = OFF, Oscillator Switchover mode disabled
  5770   300001                     	org	3145729
  5771   300001  02                 	db	2
  5772                           
  5773                           ;Config register CONFIG2L @ 0x300002
  5774                           ;	Power-up Timer Enable bit
  5775                           ;	PWRT = OFF, PWRT disabled
  5776                           ;	Brown-out Reset Enable bits
  5777                           ;	BOREN = OFF, Brown-out Reset disabled in hardware and software
  5778                           ;	Brown Out Reset Voltage bits
  5779                           ;	BORV = 1, 
  5780   300002                     	org	3145730
  5781   300002  09                 	db	9
  5782                           
  5783                           ;Config register CONFIG2H @ 0x300003
  5784                           ;	Watchdog Timer Enable bit
  5785                           ;	WDT = OFF, WDT disabled (control is placed on the SWDTEN bit)
  5786                           ;	Watchdog Timer Postscale Select bits
  5787                           ;	WDTPS = 32768, 1:32768
  5788   300003                     	org	3145731
  5789   300003  1E                 	db	30
  5790                           
  5791                           ; Padding undefined space
  5792   300004                     	org	3145732
  5793   300004  FF                 	db	255
  5794                           
  5795                           ;Config register CONFIG3H @ 0x300005
  5796                           ;	CCP2 MUX bit
  5797                           ;	CCP2MX = PORTC, CCP2 input/output is multiplexed with RC1
  5798                           ;	PORTB A/D Enable bit
  5799                           ;	PBADEN = OFF, PORTB<4:0> pins are configured as digital I/O on Reset
  5800                           ;	Low-Power Timer1 Oscillator Enable bit
  5801                           ;	LPT1OSC = OFF, Timer1 configured for higher power operation
  5802                           ;	MCLR Pin Enable bit
  5803                           ;	MCLRE = ON, MCLR pin enabled; RE3 input pin disabled
  5804   300005                     	org	3145733
  5805   300005  81                 	db	129
  5806                           
  5807                           ;Config register CONFIG4L @ 0x300006
  5808                           ;	Stack Full/Underflow Reset Enable bit
  5809                           ;	STVREN = ON, Stack full/underflow will cause Reset
  5810                           ;	Single-Supply ICSP Enable bit
  5811                           ;	LVP = OFF, Single-Supply ICSP disabled
  5812                           ;	Extended Instruction Set Enable bit
  5813                           ;	XINST = OFF, Instruction set extension and Indexed Addressing mode disabled (Legacy mo
      +                          de)
  5814                           ;	Background Debugger Enable bit
  5815                           ;	DEBUG = 0x1, unprogrammed default
  5816   300006                     	org	3145734
  5817   300006  81                 	db	129
  5818                           
  5819                           ; Padding undefined space
  5820   300007                     	org	3145735
  5821   300007  FF                 	db	255
  5822                           
  5823                           ;Config register CONFIG5L @ 0x300008
  5824                           ;	Code Protection bit
  5825                           ;	CP0 = OFF, Block 0 (000800-003FFFh) not code-protected
  5826                           ;	Code Protection bit
  5827                           ;	CP1 = OFF, Block 1 (004000-007FFFh) not code-protected
  5828                           ;	Code Protection bit
  5829                           ;	CP2 = OFF, Block 2 (008000-00BFFFh) not code-protected
  5830                           ;	Code Protection bit
  5831                           ;	CP3 = OFF, Block 3 (00C000-00FFFFh) not code-protected
  5832   300008                     	org	3145736
  5833   300008  0F                 	db	15
  5834                           
  5835                           ;Config register CONFIG5H @ 0x300009
  5836                           ;	Boot Block Code Protection bit
  5837                           ;	CPB = OFF, Boot block (000000-0007FFh) not code-protected
  5838                           ;	Data EEPROM Code Protection bit
  5839                           ;	CPD = OFF, Data EEPROM not code-protected
  5840   300009                     	org	3145737
  5841   300009  C0                 	db	192
  5842                           
  5843                           ;Config register CONFIG6L @ 0x30000A
  5844                           ;	Write Protection bit
  5845                           ;	WRT0 = OFF, Block 0 (000800-003FFFh) not write-protected
  5846                           ;	Write Protection bit
  5847                           ;	WRT1 = OFF, Block 1 (004000-007FFFh) not write-protected
  5848                           ;	Write Protection bit
  5849                           ;	WRT2 = OFF, Block 2 (008000-00BFFFh) not write-protected
  5850                           ;	Write Protection bit
  5851                           ;	WRT3 = OFF, Block 3 (00C000-00FFFFh) not write-protected
  5852   30000A                     	org	3145738
  5853   30000A  0F                 	db	15
  5854                           
  5855                           ;Config register CONFIG6H @ 0x30000B
  5856                           ;	Configuration Register Write Protection bit
  5857                           ;	WRTC = OFF, Configuration registers (300000-3000FFh) not write-protected
  5858                           ;	Boot Block Write Protection bit
  5859                           ;	WRTB = OFF, Boot Block (000000-0007FFh) not write-protected
  5860                           ;	Data EEPROM Write Protection bit
  5861                           ;	WRTD = OFF, Data EEPROM not write-protected
  5862   30000B                     	org	3145739
  5863   30000B  E0                 	db	224
  5864                           
  5865                           ;Config register CONFIG7L @ 0x30000C
  5866                           ;	Table Read Protection bit
  5867                           ;	EBTR0 = OFF, Block 0 (000800-003FFFh) not protected from table reads executed in other
      +                           blocks
  5868                           ;	Table Read Protection bit
  5869                           ;	EBTR1 = OFF, Block 1 (004000-007FFFh) not protected from table reads executed in other
      +                           blocks
  5870                           ;	Table Read Protection bit
  5871                           ;	EBTR2 = OFF, Block 2 (008000-00BFFFh) not protected from table reads executed in other
      +                           blocks
  5872                           ;	Table Read Protection bit
  5873                           ;	EBTR3 = OFF, Block 3 (00C000-00FFFFh) not protected from table reads executed in other
      +                           blocks
  5874   30000C                     	org	3145740
  5875   30000C  0F                 	db	15
  5876                           
  5877                           ;Config register CONFIG7H @ 0x30000D
  5878                           ;	Boot Block Table Read Protection bit
  5879                           ;	EBTRB = OFF, Boot Block (000000-0007FFh) not protected from table reads executed in ot
      +                          her blocks
  5880   30000D                     	org	3145741
  5881   30000D  40                 	db	64
  5882                           tosu	equ	0xFFF
  5883                           tosh	equ	0xFFE
  5884                           tosl	equ	0xFFD
  5885                           stkptr	equ	0xFFC
  5886                           pclatu	equ	0xFFB
  5887                           pclath	equ	0xFFA
  5888                           pcl	equ	0xFF9
  5889                           tblptru	equ	0xFF8
  5890                           tblptrh	equ	0xFF7
  5891                           tblptrl	equ	0xFF6
  5892                           tablat	equ	0xFF5
  5893                           prodh	equ	0xFF4
  5894                           prodl	equ	0xFF3
  5895                           indf0	equ	0xFEF
  5896                           postinc0	equ	0xFEE
  5897                           postdec0	equ	0xFED
  5898                           preinc0	equ	0xFEC
  5899                           plusw0	equ	0xFEB
  5900                           fsr0h	equ	0xFEA
  5901                           fsr0l	equ	0xFE9
  5902                           wreg	equ	0xFE8
  5903                           indf1	equ	0xFE7
  5904                           postinc1	equ	0xFE6
  5905                           postdec1	equ	0xFE5
  5906                           preinc1	equ	0xFE4
  5907                           plusw1	equ	0xFE3
  5908                           fsr1h	equ	0xFE2
  5909                           fsr1l	equ	0xFE1
  5910                           bsr	equ	0xFE0
  5911                           indf2	equ	0xFDF
  5912                           postinc2	equ	0xFDE
  5913                           postdec2	equ	0xFDD
  5914                           preinc2	equ	0xFDC
  5915                           plusw2	equ	0xFDB
  5916                           fsr2h	equ	0xFDA
  5917                           fsr2l	equ	0xFD9
  5918                           status	equ	0xFD8

Data Sizes:
    Strings     3
    Constant    0
    Data        65
    BSS         93
    Persistent  0
    Stack       0

Auto Spaces:
    Space          Size  Autos    Used
    COMRAM          126     93     122
    BANK0           128      4     117
    BANK1           256      0      16
    BANK2           256      0       0
    BANK3           256      0       0
    BANK4           256      0       0
    BANK5           256      0       0
    BANK6           256      0       0
    BANK7           256      0       0
    BANK8           256      0       0
    BANK9           256      0       0
    BANK10          256      0       0
    BANK11          256      0       0
    BANK12          256      0       0
    BANK13          256      0       0
    BANK14          256      0       0
    BANK15          128      0       0

Pointer List with Targets:

    vfprintf$2	PTR PTR void  size(2) Largest target is 2
		 -> sprintf@ap(COMRAM[2]), 

    vfprintf$1	PTR const unsigned char  size(2) Largest target is 3
		 -> STR_3(CODE[3]), STR_2(CODE[3]), STR_1(CODE[3]), 

    vfprintf$0	PTR struct _IO_FILE size(2) Largest target is 12
		 -> sprintf@f(COMRAM[12]), 

    eusart_master_callback_ptr	PTR FTN()void  size(2) Largest target is 1
		 -> NULL(), 

    eusart_slave_callback_ptr	PTR FTN()void  size(2) Largest target is 1
		 -> NULL(), 

    S4476$source	PTR const unsigned char  size(2) Largest target is 0

    f...source	PTR const unsigned char  size(2) Largest target is 0

    S4476$buffer	PTR unsigned char  size(2) Largest target is 0

    f...buffer	PTR unsigned char  size(2) Largest target is 0

    i2c.default_ptr	PTR FTN()void  size(2) Largest target is 1
		 -> Default(), 

    i2c.recive_overflow_ptr	PTR FTN()void  size(2) Largest target is 1
		 -> NULL(), 

    i2c.write_collision_ptr	PTR FTN()void  size(2) Largest target is 1
		 -> NULL(), 

    timer3_callback_ptr	PTR FTN()void  size(2) Largest target is 1
		 -> NULL(), 

    S3728$timer3_callback	PTR FTN()void  size(2) Largest target is 0

    timer3_int@ptr.timer3_callback	PTR FTN()void  size(2) Largest target is 0

    timer2_callback_ptr	PTR FTN()void  size(2) Largest target is 1
		 -> NULL(), 

    S3599$timer2_callback	PTR FTN()void  size(2) Largest target is 0

    timer2_int@ptr.timer2_callback	PTR FTN()void  size(2) Largest target is 0

    timer1_callback_ptr	PTR FTN()void  size(2) Largest target is 1
		 -> NULL(), 

    S3408$timer1_callback	PTR FTN()void  size(2) Largest target is 0

    timer1_int@ptr.timer1_callback	PTR FTN()void  size(2) Largest target is 0

    timer0_read@ptr.timer0_callback	PTR FTN()void  size(2) Largest target is 0

    timer0_write@ptr.timer0_callback	PTR FTN()void  size(2) Largest target is 0

    timer0_callback_ptr	PTR FTN()void  size(2) Largest target is 1
		 -> NULL(), 

    S3281$timer0_callback	PTR FTN()void  size(2) Largest target is 0

    timer0_int@ptr.timer0_callback	PTR FTN()void  size(2) Largest target is 0

    Intx_set_interrupt_Handeler@intx.interrupt_callback	PTR FTN()void  size(2) Largest target is 0

    Int2_interrupt_Handeler	PTR FTN()void  size(2) Largest target is 1
		 -> NULL(), 

    Int1_interrupt_Handeler	PTR FTN()void  size(2) Largest target is 1
		 -> NULL(), 

    Int0_interrupt_Handeler	PTR FTN()void  size(2) Largest target is 1
		 -> NULL(), 

    interrupt_intx_pin@intx.interrupt_callback	PTR FTN()void  size(2) Largest target is 0

    interrupt_intx_edge@intx.interrupt_callback	PTR FTN()void  size(2) Largest target is 0

    interrupt_intx_disable@intx.interrupt_callback	PTR FTN()void  size(2) Largest target is 0

    S2984$interrupt_callback	PTR FTN()void  size(2) Largest target is 0

    interrupt_intx_enable@intx.interrupt_callback	PTR FTN()void  size(2) Largest target is 0

    RB7_HIGH_interrupt_Handeler	PTR FTN()void  size(2) Largest target is 1
		 -> NULL(), 

    RB7_LOW_interrupt_Handeler	PTR FTN()void  size(2) Largest target is 1
		 -> NULL(), 

    RB6_HIGH_interrupt_Handeler	PTR FTN()void  size(2) Largest target is 1
		 -> NULL(), 

    RB6_LOW_interrupt_Handeler	PTR FTN()void  size(2) Largest target is 1
		 -> NULL(), 

    RB5_HIGH_interrupt_Handeler	PTR FTN()void  size(2) Largest target is 1
		 -> NULL(), 

    RB5_LOW_interrupt_Handeler	PTR FTN()void  size(2) Largest target is 1
		 -> NULL(), 

    RB4_HIGH_interrupt_Handeler	PTR FTN()void  size(2) Largest target is 1
		 -> NULL(), 

    RB4_LOW_interrupt_Handeler	PTR FTN()void  size(2) Largest target is 1
		 -> NULL(), 

    S3048$interrupt_callback_HIGH	PTR FTN()void  size(2) Largest target is 0

    interrupt_rbx_int@rbx.interrupt_callback_HIGH	PTR FTN()void  size(2) Largest target is 0

    S3048$interrupt_callback_LOW	PTR FTN()void  size(2) Largest target is 0

    interrupt_rbx_int@rbx.interrupt_callback_LOW	PTR FTN()void  size(2) Largest target is 0

    write_collision_callback_ptr	PTR FTN()void  size(2) Largest target is 1
		 -> NULL(), 

    recive_overflow_callback_ptr	PTR FTN()void  size(2) Largest target is 1
		 -> NULL(), 

    i2c_callback_ptr	PTR FTN()void  size(2) Largest target is 1
		 -> Default(), NULL(), 

    S2207$default_ptr	PTR FTN()void  size(2) Largest target is 1
		 -> Default(), 

    i2c_int@ptr.default_ptr	PTR FTN()void  size(2) Largest target is 1
		 -> Default(), 

    S2207$recive_overflow_ptr	PTR FTN()void  size(2) Largest target is 1
		 -> NULL(), 

    i2c_int@ptr.recive_overflow_ptr	PTR FTN()void  size(2) Largest target is 1
		 -> NULL(), 

    S2207$write_collision_ptr	PTR FTN()void  size(2) Largest target is 1
		 -> NULL(), 

    i2c_int@ptr.write_collision_ptr	PTR FTN()void  size(2) Largest target is 1
		 -> NULL(), 

    i2c_int@ptr	PTR const struct . size(2) Largest target is 14
		 -> i2c(BANK0[14]), 

    gpio_pin_int@pin_cfg	PTR const struct . size(2) Largest target is 1
		 -> led_int@pin_cfg(COMRAM[1]), 

    gpio_pin_write_level@pin_cfg	PTR const struct . size(2) Largest target is 1
		 -> relay_off@relay_pin(COMRAM[1]), relay_on@relay_pin(COMRAM[1]), relay_int@relay_pin(COMRAM[1]), led_off@pin_cfg(COMRAM[1]), 
		 -> led_on@pin_cfg(COMRAM[1]), led_int@pin_cfg(COMRAM[1]), 

    gpio_pin_direction_int@pin_cfg	PTR const struct . size(2) Largest target is 1
		 -> relay_int@relay_pin(COMRAM[1]), led_int@pin_cfg(COMRAM[1]), 

    Tris_Regs	PTR volatile unsigned char [5] size(2) Largest target is 1
		 -> TRISD(ABS[1]), TRISC(SFR[1]), TRISB(ABS[1]), TRISE(ABS[1]), 
		 -> TRISA(BITBIGSFRlllll[1]), 

    Lat_Regs	PTR volatile unsigned char [5] size(2) Largest target is 1
		 -> LATE(BITBIGSFRllllh[1]), LATD(BITBIGSFRllllh[1]), LATC(BITBIGSFRllllh[1]), LATB(BITBIGSFRllllh[1]), 
		 -> LATA(BITBIGSFRlllll[1]), 

    Port_Regs	PTR volatile unsigned char [5] size(2) Largest target is 1
		 -> PORTE(BITBIGSFRlllll[1]), PORTD(BITBIGSFRlllll[1]), PORTC(BITBIGSFRlllll[1]), PORTB(BITBIGSFRlllll[1]), 
		 -> PORTA(BITBIGSFRlllll[1]), 

    buadrate_calculation@ptr.EUASRT_OVERERR_INTERRUPT_PTR	PTR FTN()void  size(2) Largest target is 0

    buadrate_calculation@ptr.EUASRT_FRAMEERR_INTERRUPT_PTR	PTR FTN()void  size(2) Largest target is 0

    buadrate_calculation@ptr.EUASRT_RX_INTERRUPT_PTR	PTR FTN()void  size(2) Largest target is 0

    buadrate_calculation@ptr.EUASRT_TX_INTERRUPT_PTR	PTR FTN()void  size(2) Largest target is 0

    eusart_tx_callback_ptr	PTR FTN()void  size(2) Largest target is 1
		 -> NULL(), 

    eusart_tx_int@ptr.EUASRT_OVERERR_INTERRUPT_PTR	PTR FTN()void  size(2) Largest target is 0

    eusart_tx_int@ptr.EUASRT_FRAMEERR_INTERRUPT_PTR	PTR FTN()void  size(2) Largest target is 0

    eusart_tx_int@ptr.EUASRT_RX_INTERRUPT_PTR	PTR FTN()void  size(2) Largest target is 0

    eusart_tx_int@ptr.EUASRT_TX_INTERRUPT_PTR	PTR FTN()void  size(2) Largest target is 0

    eusart_overerr_callback_ptr	PTR FTN()void  size(2) Largest target is 1
		 -> NULL(), 

    eusart_framerr_callback_ptr	PTR FTN()void  size(2) Largest target is 1
		 -> NULL(), 

    eusart_rx_callback_ptr	PTR FTN()void  size(2) Largest target is 1
		 -> NULL(), 

    S1661$EUASRT_OVERERR_INTERRUPT_PTR	PTR FTN()void  size(2) Largest target is 0

    eusart_rx_int@ptr.EUASRT_OVERERR_INTERRUPT_PTR	PTR FTN()void  size(2) Largest target is 0

    S1661$EUASRT_FRAMEERR_INTERRUPT_PTR	PTR FTN()void  size(2) Largest target is 0

    eusart_rx_int@ptr.EUASRT_FRAMEERR_INTERRUPT_PTR	PTR FTN()void  size(2) Largest target is 0

    S1661$EUASRT_RX_INTERRUPT_PTR	PTR FTN()void  size(2) Largest target is 0

    eusart_rx_int@ptr.EUASRT_RX_INTERRUPT_PTR	PTR FTN()void  size(2) Largest target is 0

    S1661$EUASRT_TX_INTERRUPT_PTR	PTR FTN()void  size(2) Largest target is 0

    eusart_rx_int@ptr.EUASRT_TX_INTERRUPT_PTR	PTR FTN()void  size(2) Largest target is 0

    ccp2_callback_ptr	PTR FTN()void  size(2) Largest target is 1
		 -> NULL(), 

    S1433$ccp2_callback	PTR FTN()void  size(2) Largest target is 0

    ccp2_int@ptr.ccp2_callback	PTR FTN()void  size(2) Largest target is 0

    ccp1_callback_ptr	PTR FTN()void  size(2) Largest target is 1
		 -> NULL(), 

    S1133$ccp1_callback	PTR FTN()void  size(2) Largest target is 0

    ccp1_int@ptr.ccp1_callback	PTR FTN()void  size(2) Largest target is 0

    adc_reading_mode_cfg@adc.ADC_callback	PTR FTN()void  size(2) Largest target is 0

    adc_Vref_cfg@adc.ADC_callback	PTR FTN()void  size(2) Largest target is 0

    adc_reading_value@adc.ADC_callback	PTR FTN()void  size(2) Largest target is 0

    ADC_Interrupt_handler	PTR FTN()void  size(2) Largest target is 1
		 -> NULL(), 

    S719$ADC_callback	PTR FTN()void  size(2) Largest target is 0

    adc_int@adc.ADC_callback	PTR FTN()void  size(2) Largest target is 0

    led_off@led_cfg	PTR struct . size(2) Largest target is 1
		 -> led1(COMRAM[1]), 

    led_on@led_cfg	PTR struct . size(2) Largest target is 1
		 -> led1(COMRAM[1]), 

    led_int@led_cfg	PTR struct . size(2) Largest target is 1
		 -> led1(COMRAM[1]), 

    sp__memset	PTR void  size(2) Largest target is 0


Critical Paths under _main in COMRAM

    _led_on->_gpio_pin_write_level
    _led_off->_gpio_pin_write_level
    _led_int->_gpio_pin_int
    _gpio_pin_int->_gpio_pin_write_level
    _i2c_int->___fltol
    ___fltol->___fladd
    ___flmul->___xxtofl
    ___fldiv->___flmul
    ___fladd->___fldiv

Critical Paths under _InterruptManagmentHigh in COMRAM

    _InterruptManagmentHigh->_RB4_ISR
    _InterruptManagmentHigh->_RB5_ISR
    _InterruptManagmentHigh->_RB6_ISR
    _InterruptManagmentHigh->_RB7_ISR

Critical Paths under _main in BANK0

    _main->_i2c_int

Critical Paths under _InterruptManagmentHigh in BANK0

    None.

Critical Paths under _main in BANK1

    None.

Critical Paths under _InterruptManagmentHigh in BANK1

    None.

Critical Paths under _main in BANK2

    None.

Critical Paths under _InterruptManagmentHigh in BANK2

    None.

Critical Paths under _main in BANK3

    None.

Critical Paths under _InterruptManagmentHigh in BANK3

    None.

Critical Paths under _main in BANK4

    None.

Critical Paths under _InterruptManagmentHigh in BANK4

    None.

Critical Paths under _main in BANK5

    None.

Critical Paths under _InterruptManagmentHigh in BANK5

    None.

Critical Paths under _main in BANK6

    None.

Critical Paths under _InterruptManagmentHigh in BANK6

    None.

Critical Paths under _main in BANK7

    None.

Critical Paths under _InterruptManagmentHigh in BANK7

    None.

Critical Paths under _main in BANK8

    None.

Critical Paths under _InterruptManagmentHigh in BANK8

    None.

Critical Paths under _main in BANK9

    None.

Critical Paths under _InterruptManagmentHigh in BANK9

    None.

Critical Paths under _main in BANK10

    None.

Critical Paths under _InterruptManagmentHigh in BANK10

    None.

Critical Paths under _main in BANK11

    None.

Critical Paths under _InterruptManagmentHigh in BANK11

    None.

Critical Paths under _main in BANK12

    None.

Critical Paths under _InterruptManagmentHigh in BANK12

    None.

Critical Paths under _main in BANK13

    None.

Critical Paths under _InterruptManagmentHigh in BANK13

    None.

Critical Paths under _main in BANK14

    None.

Critical Paths under _InterruptManagmentHigh in BANK14

    None.

Critical Paths under _main in BANK15

    None.

Critical Paths under _InterruptManagmentHigh in BANK15

    None.

Call Graph Tables:

 ---------------------------------------------------------------------------------
 (Depth) Function   	        Calls       Base Space   Used Autos Params    Refs
 ---------------------------------------------------------------------------------
 (0) _main                                                 0     0      0   33759
                            _i2c_int
                            _led_int
                            _led_off
                             _led_on
 ---------------------------------------------------------------------------------
 (1) _led_on                                               5     3      2    6726
                                             12 COMRAM     4     2      2
               _gpio_pin_write_level
 ---------------------------------------------------------------------------------
 (1) _led_off                                              5     3      2    6726
                                             12 COMRAM     4     2      2
               _gpio_pin_write_level
 ---------------------------------------------------------------------------------
 (1) _led_int                                              5     3      2    8868
                                             14 COMRAM     4     2      2
                       _gpio_pin_int
 ---------------------------------------------------------------------------------
 (2) _gpio_pin_int                                         3     1      2    8660
                                             12 COMRAM     2     0      2
             _gpio_pin_direction_int
               _gpio_pin_write_level
 ---------------------------------------------------------------------------------
 (2) _gpio_pin_write_level                                10     7      3    6524
                                              3 COMRAM     9     6      3
 ---------------------------------------------------------------------------------
 (3) _gpio_pin_direction_int                               9     7      2    1433
                                              3 COMRAM     8     6      2
 ---------------------------------------------------------------------------------
 (1) _i2c_int                                              5     3      2   11439
                                              0 BANK0      4     2      2
                            ___fladd
                            ___fldiv
                            ___flmul
                            ___fltol
                           ___xxtofl
 ---------------------------------------------------------------------------------
 (2) ___xxtofl                                            14    10      4    1055
                                              3 COMRAM    14    10      4
 ---------------------------------------------------------------------------------
 (2) ___fltol                                             10     6      4     582
                                             83 COMRAM    10     6      4
                            ___fladd (ARG)
                            ___fldiv (ARG)
                            ___flmul (ARG)
                           ___xxtofl (ARG)
 ---------------------------------------------------------------------------------
 (2) ___flmul                                             25    17      8    2146
                                             17 COMRAM    25    17      8
                           ___xxtofl (ARG)
 ---------------------------------------------------------------------------------
 (2) ___fldiv                                             25    17      8    3473
                                             42 COMRAM    25    17      8
                            ___flmul (ARG)
                           ___xxtofl (ARG)
 ---------------------------------------------------------------------------------
 (2) ___fladd                                             16     8      8    3398
                                             67 COMRAM    16     8      8
                            ___fldiv (ARG)
                            ___flmul (ARG)
                           ___xxtofl (ARG)
 ---------------------------------------------------------------------------------
 Estimated maximum stack depth 3
 ---------------------------------------------------------------------------------
 (Depth) Function   	        Calls       Base Space   Used Autos Params    Refs
 ---------------------------------------------------------------------------------
 (4) _InterruptManagmentHigh                               2     2      0     176
                                              1 COMRAM     2     2      0
                            _ADC_ISR
                           _CCP1_ISR
                           _CCP2_ISR
                      _EUSART_RX_ISR
                      _EUSART_TX_ISR
                           _INT0_ISR
                           _INT1_ISR
                           _INT2_ISR
                        _MSSP_BC_ISR
                           _MSSP_ISR
                            _RB4_ISR
                            _RB5_ISR
                            _RB6_ISR
                            _RB7_ISR
                         _TIMER0_ISR
                         _TIMER1_ISR
                         _TIMER2_ISR
                         _TIMER3_ISR
 ---------------------------------------------------------------------------------
 (5) _TIMER3_ISR                                           0     0      0       0
 ---------------------------------------------------------------------------------
 (5) _TIMER2_ISR                                           0     0      0       0
 ---------------------------------------------------------------------------------
 (5) _TIMER1_ISR                                           0     0      0       0
 ---------------------------------------------------------------------------------
 (5) _TIMER0_ISR                                           0     0      0       0
 ---------------------------------------------------------------------------------
 (5) _RB7_ISR                                              1     1      0      44
                                              0 COMRAM     1     1      0
 ---------------------------------------------------------------------------------
 (5) _RB6_ISR                                              1     1      0      44
                                              0 COMRAM     1     1      0
 ---------------------------------------------------------------------------------
 (5) _RB5_ISR                                              1     1      0      44
                                              0 COMRAM     1     1      0
 ---------------------------------------------------------------------------------
 (5) _RB4_ISR                                              1     1      0      44
                                              0 COMRAM     1     1      0
 ---------------------------------------------------------------------------------
 (5) _MSSP_ISR                                             0     0      0       0
                                NULL *
                            _Default *
 ---------------------------------------------------------------------------------
 (6) _Default                                              1     1      0       0
 ---------------------------------------------------------------------------------
 (6) NULL(Fake)                                            0     0      0       0
 ---------------------------------------------------------------------------------
 (5) _MSSP_BC_ISR                                          0     0      0       0
 ---------------------------------------------------------------------------------
 (5) _INT2_ISR                                             0     0      0       0
 ---------------------------------------------------------------------------------
 (5) _INT1_ISR                                             0     0      0       0
 ---------------------------------------------------------------------------------
 (5) _INT0_ISR                                             0     0      0       0
 ---------------------------------------------------------------------------------
 (5) _EUSART_TX_ISR                                        0     0      0       0
 ---------------------------------------------------------------------------------
 (5) _EUSART_RX_ISR                                        0     0      0       0
 ---------------------------------------------------------------------------------
 (5) _CCP2_ISR                                             0     0      0       0
 ---------------------------------------------------------------------------------
 (5) _CCP1_ISR                                             0     0      0       0
 ---------------------------------------------------------------------------------
 (5) _ADC_ISR                                              0     0      0       0
 ---------------------------------------------------------------------------------
 Estimated maximum stack depth 6
 ---------------------------------------------------------------------------------

 Call Graph Graphs:

 _main (ROOT)
   _i2c_int
     ___fladd
       ___fldiv (ARG)
         ___flmul (ARG)
           ___xxtofl (ARG)
         ___xxtofl (ARG)
       ___flmul (ARG)
       ___xxtofl (ARG)
     ___fldiv
     ___flmul
     ___fltol
       ___fladd (ARG)
       ___fldiv (ARG)
       ___flmul (ARG)
       ___xxtofl (ARG)
     ___xxtofl
   _led_int
     _gpio_pin_int
       _gpio_pin_direction_int
       _gpio_pin_write_level
   _led_off
     _gpio_pin_write_level
   _led_on
     _gpio_pin_write_level

 _InterruptManagmentHigh (ROOT)
   _ADC_ISR
   _CCP1_ISR
   _CCP2_ISR
   _EUSART_RX_ISR
   _EUSART_TX_ISR
   _INT0_ISR
   _INT1_ISR
   _INT2_ISR
   _MSSP_BC_ISR
   _MSSP_ISR
     NULL(Fake) *
     _Default *
   _RB4_ISR
   _RB5_ISR
   _RB6_ISR
   _RB7_ISR
   _TIMER0_ISR
   _TIMER1_ISR
   _TIMER2_ISR
   _TIMER3_ISR

 Address spaces:
Name               Size   Autos  Total    Cost      Usage
BIGRAM             F7F      0       0      48        0.0%
EEDATA             400      0       0       0        0.0%
BITBANK14          100      0       0      32        0.0%
BANK14             100      0       0      33        0.0%
BITBANK13          100      0       0      30        0.0%
BANK13             100      0       0      31        0.0%
BITBANK12          100      0       0      28        0.0%
BANK12             100      0       0      29        0.0%
BITBANK11          100      0       0      26        0.0%
BANK11             100      0       0      27        0.0%
BITBANK10          100      0       0      24        0.0%
BANK10             100      0       0      25        0.0%
BITBANK9           100      0       0      22        0.0%
BANK9              100      0       0      23        0.0%
BITBANK8           100      0       0      20        0.0%
BANK8              100      0       0      21        0.0%
BITBANK7           100      0       0      18        0.0%
BANK7              100      0       0      19        0.0%
BITBANK6           100      0       0      16        0.0%
BANK6              100      0       0      17        0.0%
BITBANK5           100      0       0      14        0.0%
BANK5              100      0       0      15        0.0%
BITBANK4           100      0       0      12        0.0%
BANK4              100      0       0      13        0.0%
BITBANK3           100      0       0      10        0.0%
BANK3              100      0       0      11        0.0%
BITBANK2           100      0       0       8        0.0%
BANK2              100      0       0       9        0.0%
BITBANK1           100      0       0       6        0.0%
BANK1              100      0      10       7        6.2%
BITBANK15           80      0       0      34        0.0%
BANK15              80      0       0      35        0.0%
BITBANK0            80      0       0       4        0.0%
BANK0               80      4      75       5       91.4%
BITCOMRAM           7E      0       0       0        0.0%
COMRAM              7E     5D      7A       1       96.8%
BITBIGSFRhlhhlh     18      0       0      37        0.0%
BITBIGSFRhh          D      0       0      36        0.0%
BITBIGSFRlllhh       6      0       0      44        0.0%
BITBIGSFRhlhhll      5      0       0      38        0.0%
BITBIGSFRllllh       4      0       0      45        0.0%
BITBIGSFRllhllh      4      0       0      42        0.0%
BITBIGSFRllhlhl      4      0       0      41        0.0%
BITBIGSFRlllll       4      0       0      46        0.0%
BITBIGSFRllhlhl      1      0       0      40        0.0%
BITBIGSFRllhlhh      1      0       0      39        0.0%
BITBIGSFRllhlll      1      0       0      43        0.0%
BIGSFR               0      0       0     200        0.0%
BITSFR               0      0       0     200        0.0%
SFR                  0      0       0     200        0.0%
STACK                0      0       0       2        0.0%
NULL                 0      0       0       0        0.0%
ABS                  0      0      FF      47        0.0%
DATA                 0      0      FF       3        0.0%
CODE                 0      0       0       0        0.0%


Microchip Technology PIC18 Macro Assembler V2.41 build 20230208172133 
Symbol Table                                                                                   Sat Aug 26 03:08:12 2023

                  ___fldiv@aexp 0043                    ___fldiv@bexp 0042                    ___fldiv@sign 003B  
                   _SSPSTATbits 0FC7                             l261 29B2                             l255 293E  
                           l249 2A22                             l752 2642                             l842 2226  
                           l764 2848                             l861 2376                             l847 229C  
                           l776 2AC4                             l858 232C                             _PR2 0FCB  
                           _i2c 00E3         _Int2_interrupt_Handeler 00AD                 __end_of_ADC_ISR 2C26  
       ?_gpio_pin_direction_int 0004                             prod 0FF3                             tosl 0FFD  
                           wreg 0FE8                     led_on@F3059 0074                    ___flmul@aexp 0023  
                  ___flmul@bexp 0024                    ___flmul@sign 001E                    ___flmul@temp 0029  
                  ___flmul@prod 0025               _ccp2_callback_ptr 00C3                 __end_of_RB4_ISR 2BC4  
               __end_of_RB5_ISR 2BAA                 __end_of_RB6_ISR 2B90                 __end_of_RB7_ISR 2B76  
                  ___fltol@exp1 005D             gpio_pin_int@pin_cfg 000D                            l2100 252A  
                          l2111 24C2                            l2024 207E                            l2104 2466  
                          l2026 1EDE                            l2035 1F24                            l2060 18EE  
                          l2037 1F9C                            l2029 1EA2                            l2038 1F8A  
                          l2063 1780                            l1431 2A82                            l2056 158A  
                          l2073 18B0                            l2065 17F8                            l2066 17E6  
                          l2097 23CE                            l6000 29BA                            l6002 29CC  
                          l1739 2748                            l5300 281E                            l6004 29E8  
                          l6020 28E4                            l6012 28CC                            l5310 2A9C  
                          l6006 2A04                            l6030 2940                            l6022 2900  
                          l6014 28CC                            l5400 111A                            l6008 2A16  
                          l6040 2974                            l6032 2940                            l6024 291C  
                          l6016 28D0                            l1970 11F4                            l5410 112E  
                          l5402 111E                            l5306 2A8A                            l6042 2990  
                          l6034 2944                            l6026 292E                            l6018 28D2  
                          l1971 11E2                            l5500 138C                            l1972 11A8  
                          l5420 1142                            l5412 1132                            l5404 1122  
                          l5308 2A8A                            l6044 29A2                            l6036 2946  
                          l5510 13C4                            l5502 138E                            l5430 11A0  
                          l5414 1136                            l5406 1126                            l5422 1146  
                          l5350 1022                            l5270 2542                            l6038 2958  
                          l5520 1442                            l5504 139C                            l5440 11D6  
                          l5432 11B6                            l5424 114A                            l5416 113A  
                          l5408 112A                            l5352 1032                            l5360 105C  
                          l5344 1006                            l5600 1E08                            l5272 25A0  
                          l5280 2600                            l5264 252C                            l5530 1488  
                          l5514 13EE                            l5522 1444                            l5506 13A0  
                          l5450 1226                            l5442 11E0                            l5434 11C2  
                          l5426 1174                            l5418 113E                            l5370 108C  
                          l5362 106C                            l5354 1042                            l5346 1012  
                          l5610 1E56                            l5274 25A4                            l5266 252C  
                          l1987 130E                            l1979 14C4                            l5540 14B2  
                          l5532 1496                            l5524 1454                            l5516 13FA  
                          l5508 13AE                            l1996 13DE                            l5460 1262  
                          l5452 1236                            l5444 1202                            l5436 11C6  
                          l5428 1190                            l5380 10CC                            l5372 109A  
                          l5364 1072                            l5356 1052                            l5348 1020  
                          l5620 1EA0                            l5612 1E66                            l5604 1E1C  
                          l5700 1528                            l5292 2760                            l1997 13CC  
                          l5542 14B4                            l5534 149C                            l5526 1464  
                          l5518 1408                            l5470 12A8                            l5462 1270  
                          l5454 1244                            l5446 1212                            l5438 11D4  
                          l5390 1106                            l5382 10CE                            l5374 109C  
                          l5366 1084                            l5358 1054                            l5630 1EEE  
                          l5622 1EAC                            l5614 1E6E                            l5606 1E36  
                          l5550 1D00                            l5710 1554                            l5702 152E  
                          l5294 27BC                            l5286 274A                            l5536 149E  
                          l5528 1484                            l5480 1324                            l5472 12DC  
                          l5464 1272                            l5456 1252                            l5392 110A  
                          l5376 10AC                            l5384 10D6                            l5368 1086  
                          l5632 1F04                            l5640 1F34                            l5624 1ECA  
                          l5616 1E7E                            l5608 1E46                            l5560 1D34  
                          l5552 1D02                            l5800 18B4                            l5720 15AA  
                          l5712 1564                            l5704 1534                            l5296 281A  
                          l5288 274A                            l5538 14A4                            l5490 1360  
                          l5482 1334                            l5474 12DE                            l5466 127C  
                          l5458 125E                            l5394 110E                            l5386 10E6  
                          l5378 10BC                            l5642 1F42                            l5634 1F0A  
                          l5626 1ECC                            l5618 1E92                            l5570 1D66  
                          l5554 1D12                            l5562 1D3C                            l5546 1CE6  
                          l5810 18DE                            l5802 18C4                            l5730 15EA  
                          l5714 1574                            l5706 1542                            l5492 1362  
                          l5476 12EE                            l5468 1282                            l5396 1112  
                          l5388 10F8                            l5652 1FAC                            l5660 1FF4  
                          l5644 1F46                            l5636 1F14                            l5628 1EDC  
                          l5580 1D9A                            l5572 1D68                            l5564 1D4C  
                          l5556 1D22                            l5548 1CF2                            l5804 18D2  
                          l5740 1634                            l5732 15F6                            l5724 15BE  
                          l5716 157A                            l5708 1544                            l5820 266E  
                          l5900 251A                            l5494 1370                            l5486 1348  
                          l5478 12FE                            l5398 1116                            l5670 205E  
                          l5662 200E                            l5654 1FB8                            l5646 1F54  
                          l5638 1F22                            l5590 1DE0                            l5574 1D78  
                          l5582 1DA2                            l5566 1D52                            l5558 1D32  
                          l5806 18D4                            l5750 1686                            l5742 1640  
                          l5734 160E                            l5726 15CA                            l5718 159A  
                          l5830 26BC                            l5822 2698                            l5814 2644  
                          l5496 1378                            l5488 1352                            l5672 206C  
                          l5664 2024                            l5656 1FC6                            l5648 1F82  
                          l5592 1DE4                            l5584 1DB2                            l5576 1D88  
                          l5568 1D58                            l5808 18DA                            l5760 1704  
                          l5752 1696                            l5744 1650                            l5736 161A  
                          l5728 15D4                            l5840 26E8                            l5824 269A  
                          l5816 265A                            l5498 137C                            l5674 2072  
                          l5666 203E                            l5658 1FF0                            l5586 1DC8  
                          l5578 1D98                            l5770 177E                            l5762 173A  
                          l5754 16B2                            l5746 165C                            l5738 1626  
                          l5690 14E2                            l5850 2718                            l5826 26AA  
                          l5676 2074                            l5668 205A                            l5588 1DD8  
                          l5596 1DF8                            l5780 17DE                            l5772 1790  
                          l5764 1748                            l5756 16BE                            l5748 166C  
                          l5692 14F2                            l5684 14C6                            l5852 2728  
                          l5836 26D4                            l5828 26AE                            l5860 238A  
                          l7700 2178                            l5598 1E08                            l5790 184C  
                          l5774 179E                            l5766 1766                            l5758 16DA  
                          l5694 1502                            l5686 14D2                            l5854 2738  
                          l5846 26FC                            l5838 26DE                            l5870 2408  
                          l5862 2398                            l7710 2200                            l5784 1808  
                          l5792 1850                            l5776 17A2                            l5768 1770  
                          l5696 1512                            l5688 14E0                            l5848 2708  
                          l5880 245C                            l5872 2410                            l5864 23DE  
                          l7720 2248                            l7712 2206                            l7704 2196  
                          l5794 186A                            l5786 1814                            l5778 17B0  
                          l5698 1518                            l5890 24D2                            l5882 2498  
                          l5874 241C                            l5866 23F4                            l5858 237A  
                          l7714 2220                            l7730 22B2                            l7706 21CC  
                          l5796 187E                            l5788 1822                            l5892 24D6  
                          l5884 24A4                            l5876 244E                            l7740 230A  
                          l7732 22CE                            l7716 222A                            l7708 21E6  
                          l5798 1898                            l5894 24FA                            l5886 24B2  
                          l5878 2450                            l7750 236E                            l7742 2310  
                          l7734 22D4                            l7726 2266                            l5896 250A  
                          l5888 24D0                            l7752 2370                            l7744 232A  
                          l7736 22EE                            l7728 22A2                            l5898 2518  
                          l7754 2372                            l7746 2330                            l7738 22F0  
                          l7690 2094                            l5994 29B4                            l7770 2A24  
                    i2c_int@ptr 00F1                            l7756 2374                            l7748 236C  
                          l7692 209A                            l7860 2832                            l5996 29B4  
                          l7772 2A3E                            l7758 2376                            l7686 2080  
                          l7862 262C                            l5998 29B8                            l7774 2A50  
                          l7864 21B6                            l7696 20B8                            l7688 2080  
                          l7776 2A60                            l7866 2286                            l7698 20D2  
                          l7778 2A72                            STR_1 1001                            _LATA 0F89  
                          _LATB 0F8A                            _LATC 0F8B                            _LATD 0F8C  
                          _LATE 0F8D                            u5000 15AA                            u4200 2618  
                          u5001 15A6                            u4201 2612                            u5010 1724  
                          u4210 261A                            u5100 1898                            u5020 177E  
                          u4220 275C                            u5101 1894                            u5021 177A  
                          u4221 2758                            u4310 1020                            u5110 18D2  
                          u5030 179E                            u4311 101C                            u5111 18CE  
                          u5031 179A                            u5015 171A                            u4400 1174  
                          u4320 1032                            u5040 17B0                            u5120 265A  
                          u5200 2398                            u4401 1170                            u4321 102E  
                          u5041 17AC                            u5121 2656                            u5201 2394  
                          u4410 118C                            u4330 1042                            u5050 17DE  
                          u5130 268E                            u5210 23F4                            u4170 253E  
                          u4234 277E                            u4250 2A9C                            u4411 1186  
                          u4331 103E                            u5051 17DA                            u5211 23F0  
                          u4171 253A                            u4235 277A                            u4251 2A98  
                          u4500 1270                            u4420 118E                            u4340 1084  
                          u5060 17F4                            u5140 26BC                            u5220 244A  
                          u4244 27DA                            u4501 126C                            u4341 1080  
                          u5061 17F0                            u5141 26B8                            u5221 2446  
                          u4245 27D6                            u4510 12A8                            u4430 11B6  
                          u4350 109A                            u5070 1808                            u5150 26D0  
                          u5230 2494                            u4511 12A4                            u4431 11B2  
                          u4351 1096                            u5071 1804                            u5151 26CC  
                          u5135 2684                            u5231 2490                            u4600 13C4  
                          u4520 12EE                            u4440 11D4                            u4360 10AC  
                          u5080 1822                            u5160 26F8                            u5240 24B2  
                          u4184 2560                            u4601 13C0                            u4521 12EA  
                          u4441 11D0                            u4361 10A8                            u5081 181E  
                          u5161 26F4                            u5241 24AE                            u4185 255C  
                          u4610 13DA                            u4530 1324                            u4450 11F4  
                          u4370 10BC                            u5090 186A                            u5170 2718  
                          u5250 24C2                            u4194 25C2                            u4611 13D6  
                          u4531 1320                            u4451 11F0                            u4371 10B8  
                          u5091 1866                            u5171 2714                            u5251 24BE  
                          u4195 25BE                            u4620 13EE                            u4540 1334  
                          u4460 1202                            u4380 10F8                            u4700 1D00  
                          u5180 2728                            u5260 24D0                            u5420 2A16  
                          u4621 13EA                            u4541 1330                            u4461 11FE  
                          u4381 10F4                            u4701 1CFC                            u5181 2724  
                          u5261 24CC                            u5421 2A12                            u4630 1408  
                          u4550 1360                            u4470 1212                            u4390 1106  
                          u4710 1D12                            u5270 250A                            u5190 238A  
                          u4631 1404                            u4551 135C                            u4471 120E  
                          u4391 1102                            u4711 1D0E                            u5271 2506  
                          u5191 2386                            u5415 29CA                            u4640 1442  
                          u4560 1370                            u4480 1244                            u4800 1ECA  
                          u4720 1D22                            u5280 2518                            u5440 292E  
                          u4641 143E                            u4561 136C                            u4481 1240  
                          u4801 1EC6                            u4721 1D1E                            u5281 2514  
                          u5417 29CC                            u5441 292A                            u4650 1454  
                          u4570 138C                            u4490 1252                            u4810 1EEE  
                          u4730 1D66                            u4651 1450                            u4571 1388  
                          u4491 124E                            u4811 1EEA                            u4731 1D62  
                          u5435 28E2                            u4660 1464                            u4580 139C  
                          u4900 200E                            u4820 1F04                            u4740 1D78  
                          u5460 29A2                            u4661 1460                            u4581 1398  
                          u4901 200A                            u4821 1F00                            u4741 1D74  
                          u5461 299E                            u5437 28E4                            u4670 1484  
                          u4590 13AE                            u4910 203E                            u4830 1F22  
                          u4750 1D88                            u4671 1480                            u4591 13AA  
                          u4911 203A                            u4831 1F1E                            u4751 1D84  
                          u5455 2956                            u4680 1496                            u4920 206C  
                          u4840 1F42                            u4760 1DC8                            u4681 1492  
                          u4921 2068                            u4841 1F3E                            u4761 1DC4  
                          u5457 2958                            u4690 14B2                            u4850 1F54  
                          u4770 1E08                            u4930 14E0                            u4691 14AE  
                          u4851 1F50                            u4771 1E04                            u4931 14DC  
                          u4860 1F82                            u4780 1E7E                            u4940 14F2  
                          u7500 20B4                            u4861 1F7E                            u4781 1E7A  
                          u4941 14EE                            u7501 20B0                            u4870 1F98  
                          u4790 1EA0                            u4950 1502                            u7510 21E6  
                          u4871 1F94                            u4791 1E9C                            u4951 14FE  
                          u7511 21E2                            u4880 1FAC                            u4960 1542  
                          u7520 2200                            u4881 1FA8                            u4961 153E  
                          u7521 21FC                            u4890 1FC6                            u4970 1554  
                          u7530 2220                            u4891 1FC2                            u4971 1550  
                          u7531 221C                            u4980 1564                            u7540 22CE  
                          u4981 1560                            u7541 22CA                            u4990 159A  
                          u7550 22EE                            u4991 1596                            u7551 22EA  
                          u7560 230A                            u7561 2306                            u7570 232A  
                          u7490 2094                            u7571 2326                            u7491 2090  
                          u7580 2A50                            u7581 2A4C                            u7590 2A72  
                          u7591 2A6E                            _TMR2 0FCC                            _TMR3 0FB2  
                          _led1 007A                            _main 2A24                __end_of_CCP1_ISR 2C22  
              __end_of_CCP2_ISR 2C1E                            fsr2h 0FDA                            indf2 0FDF  
                          fsr1l 0FE1                            fsr2l 0FD9                            btemp 007B  
                          prodh 0FF4                            prodl 0FF3                            start 000E  
               __end_of_Default 2B02                 ___fldiv@new_exp 003C                    ___param_bank 0000  
           _timer1_callback_ptr 0099                 __end_of_i2c_int 2378            _gpio_pin_write_level 274A  
                   ?_TIMER0_ISR 0001                     ?_TIMER1_ISR 0001                     ?_TIMER2_ISR 0001  
                   ?_TIMER3_ISR 0001                __end_of_INT0_ISR 2C16                __end_of_INT1_ISR 2C12  
              __end_of_INT2_ISR 2C0E                   _EUSART_RX_ISR 2C26                   ___fltol@sign1 005C  
                 _EUSART_TX_ISR 2C16                 __end_of___fladd 14C6                           ?_main 0001  
               __end_of___fldiv 2080                           _EEADR 0FA9  __end_of_gpio_pin_direction_int 2644  
               __end_of___flmul 18F0                 __end_of___fltol 274A                    led_off@F3064 0073  
                         i2l503 2C20                           i2l428 2C24                           i2l701 2C18  
                         i2l707 2C26                           i2l920 2B2E                           i2l577 2C1C  
                         i2l924 2C08                           _RCREG 0FAE                           _TMR0H 0FD7  
                         _TMR1H 0FCF                           _TMR0L 0FD6                           _TMR3H 0FB3  
                         _TMR1L 0FCE                           _TMR3L 0FB2                           _SPBRG 0FAF  
                         _PORTA 0F80                           _PORTB 0F81                           _PORTC 0F82  
                         _PORTD 0F83                           _PORTE 0F84                           _TRISA 0F92  
                         _TRISB 0F93                           _TRISC 0F94                           _TRISD 0F95  
                         _TRISE 0F96                           _TXREG 0FAD                    led_int@F3054 0075  
              __end_of_MSSP_ISR 2B30                 __end_of_led_off 29B4                 __end_of_led_int 2A24  
                         pclath 0FFA                           pclatu 0FFB                           tablat 0FF5  
                         ttemp5 007C                           ttemp6 007F                           ttemp7 0083  
                         status 0FD8                           wtemp8 007C        ??_InterruptManagmentHigh 0002  
                  RB4_ISR@flage 0001                 __initialization 284A                   ?_gpio_pin_int 000D  
                  __end_of_main 2A8A           ?_gpio_pin_write_level 0004     _eusart_framerr_callback_ptr 00C1  
                     ??_ADC_ISR 0001                    RB5_ISR@flage 0001                  ?_EUSART_RX_ISR 0001  
                ?_EUSART_TX_ISR 0001                          ??_main 005E                   __activetblptr 0003  
                     ??_RB4_ISR 0001                       ??_RB5_ISR 0001                       ??_RB6_ISR 0001  
                     ??_RB7_ISR 0001    _recive_overflow_callback_ptr 00B5                    RB6_ISR@flage 0001  
                        _ADRESH 0FC4                          _EEADRH 0FAA                          _ADRESL 0FC3  
                        _EEDATA 0FA8                          _CCPR1H 0FBF                          _CCPR1L 0FBE  
                        _CCPR2L 0FBB                          _EECON2 0FA7                          i2l1034 1CDA  
                        i2l1204 2B8E                          i2l1213 2B74                          i2l1314 2BEA  
                        i2l1420 2B00                          i2l2212 2AC6                          i2l1173 2C10  
                        i2l1413 2AFC                          i2l1261 2BF6                          i2l1414 2AE6  
                        i2l2214 2AD6                          i2l3102 2B02                          i2l1416 2AF4  
                        i2l2216 2AE4                          i2l3104 2B04                          i2l1352 2BFE  
                        i2l1169 2C14                          i2l1177 2C0C                          i2l1417 2AFE  
                        i2l3106 2B16                          i2l1186 2BC2                          i2l1195 2BA8  
                        i2l1394 2BDE                          i2l6202 2BEC                          i2l6210 2BE0  
                        i2l6052 2C16                          i2l6204 2BEE                          i2l6212 2BE2  
                        i2l6150 2C12                          i2l6206 2BF2                          i2l6214 2BE6  
                        i2l6222 2BD4                          i2l6048 2C1A                          i2l6056 2C26  
                        i2l6224 2BD6                          i2l6154 2C0E                          i2l6146 2C06  
                        i2l6162 2BAC                          i2l6218 2BF8                          i2l6226 2BDA  
                        i2l6164 2BAE                          i2l6172 2B92                          i2l7300 1A50  
                        i2l2982 2C1E                          i2l6158 2C0A                          i2l6174 2B94  
                        i2l6182 2B78                          i2l7310 1A86                          i2l7302 1A60  
                        i2l6168 2BC2                          i2l6184 2B7A                          i2l6192 2B5E  
                        i2l7400 1C76                          i2l7320 1ABC                          i2l7312 1A94  
                        i2l7304 1A64                          i2l7240 18FA                          i2l2978 2C22  
                        i2l6178 2BA8                          i2l6194 2B60                          i2l7410 1CA8  
                        i2l7402 1C7A                          i2l7322 1ACA                          i2l7330 1AF2  
                        i2l7314 1AA4                          i2l7306 1A6A                          i2l7250 1936  
                        i2l7242 1908                       ??_Default 0001                          i2l6188 2B8E  
                        i2l7412 1CB6                          i2l7404 1C88                          i2l7340 1B30  
                        i2l7332 1B00                          i2l7324 1AD8                          i2l7316 1AA8  
                        i2l7308 1A78                          i2l7260 1968                          i2l7252 193A  
                        i2l7244 1916                          i2l6198 2B74                          i2l7414 1CBA  
                        i2l7406 1C96                          i2l7350 1B70                          i2l7334 1B0E  
                        i2l7342 1B36                          i2l7326 1AE8                          i2l7318 1AAE  
                        i2l7262 1976                          i2l7270 199E                          i2l7254 1948  
                        i2l7246 191A                          i2l7416 1CC8                          i2l7408 1C9A  
                        i2l7360 1B9A                          i2l7352 1B74                          i2l7344 1B44  
                        i2l7336 1B1C                          i2l7328 1AEC                          i2l7280 19DC  
                        i2l7272 19AC                          i2l7264 1984                          i2l7256 1956  
                        i2l7248 1928                          i2l7418 1CD6                          i2l7370 1BD6  
                        i2l7362 1BA8                          i2l7346 1B52                          i2l7354 1B7A  
                        i2l7338 1B2C                          i2l7290 1A1C                          i2l7274 19BA  
                        i2l7282 19E2                          i2l7266 1994                          i2l7258 195A  
                        i2l7380 1C08                          i2l7372 1BDA                          i2l7364 1BB6  
                        i2l7356 1B88                          i2l7348 1B60                          i2l7292 1A20  
                        i2l7284 19F0                          i2l7276 19C8                          i2l7268 1998  
                        i2l7390 1C3A                          i2l7382 1C16                          i2l7374 1BE8  
                        i2l7366 1BBA                          i2l7358 1B96                          i2l7286 19FE  
                        i2l7294 1A26                          i2l7278 19D8                          i2l7392 1C48  
                        i2l7384 1C1A                          i2l7376 1BF6                          i2l7368 1BC8  
                        i2l7296 1A34                          i2l7288 1A0C                          i2l7394 1C56  
                        i2l7386 1C28                          i2l7378 1BFA                          i2l7298 1A42  
                        i2l7396 1C5A                          i2l7388 1C36                          i2l7398 1C68  
                  RB7_ISR@flage 0001                    ?_MSSP_BC_ISR 0001                          _SPBRGH 0FB0  
                        _SSPADD 0FC8                          _SSPBUF 0FC9                __end_of___xxtofl 252C  
                     ??_i2c_int 00F3                  ??_gpio_pin_int 000F             _timer2_callback_ptr 0097  
                     ??___fladd 004C                       ??___fldiv 0033                       ??___flmul 001A  
                     ??___fltol 0058                          _led_on 28CC                          clear_0 28B0  
                        clear_1 28BC                          isa$std 0001                   led_on@led_cfg 000D  
                     ??_led_off 000F                       ??_led_int 0011                       ?_CCP1_ISR 0001  
                  __pdataCOMRAM 0076                       ?_CCP2_ISR 0001                   led_on@pin_cfg 0010  
                  __mediumconst 0000                          tblptrh 0FF7                          tblptrl 0FF6  
                        tblptru 0FF8     _RB5_HIGH_interrupt_Handeler 00A5                    ___xxtofl@arg 000E  
                  ___xxtofl@exp 000D                    ___xxtofl@val 0004                      __accesstop 0080  
       __end_of__initialization 28C2      _eusart_master_callback_ptr 00B7                       ?_INT0_ISR 0001  
                     ?_INT1_ISR 0001                       ?_INT2_ISR 0001                   ___rparam_used 0001  
                    ___fltol@f1 0054          ??_gpio_pin_write_level 0007                  __pcstackCOMRAM 0001  
                  __pidataBANK0 2B30                    __pidataBANK1 2BC4                 ??_EUSART_RX_ISR 0001  
                     ?_MSSP_ISR 0001                 ??_EUSART_TX_ISR 0001                      ??_CCP1_ISR 0001  
                    ??_CCP2_ISR 0001                      __pbssBANK0 0080      _RB5_LOW_interrupt_Handeler 00A7  
                    ??_INT0_ISR 0001                      ??_INT1_ISR 0001                      ??_INT2_ISR 0001  
   ccp1_compare_set_value@F3132 0066                 led_toggel@F3069 0072             _timer3_callback_ptr 0095  
                    ??_MSSP_ISR 0001                    ??_TIMER0_ISR 0001                    ??_TIMER1_ISR 0001  
                  ??_TIMER2_ISR 0001                    ??_TIMER3_ISR 0001                         ?_led_on 000D  
                       _ADC_ISR 2C22                         _RB4_ISR 2BAA         _Int1_interrupt_Handeler 00AF  
                       _RB5_ISR 2B90                         _RB6_ISR 2B76                         _RB7_ISR 2B5C  
                     ?___xxtofl 0004          _InterruptManagmentHigh 0008                         i2u15_40 2AD6  
                       i2u15_41 2AD2                         i2u16_40 2AE4                         i2u16_41 2AE0  
                       i2u17_40 2AF4                         i2u17_41 2AF0            __end_of_gpio_pin_int 2AC6  
                       _Default 2AC6              __end_of_TIMER0_ISR 2BF8              __end_of_TIMER1_ISR 2BEC  
            __end_of_TIMER2_ISR 2C00              __end_of_TIMER3_ISR 2BE0                         _i2c_int 2080  
                       __Hparam 0000                         __Lparam 0000                         ___fladd 1006  
                       ___fldiv 1CE6                         ___flmul 14C6                         ___fltol 2644  
                  __psmallconst 1000                         __pcinit 284A          _eusart_tx_callback_ptr 00BD  
                       __ramtop 1000                         _flage_4 0079                         _flage_5 0078  
                       _flage_6 0077                         _flage_7 0076                         __ptext0 2A24  
                       __ptext1 28CC                   relay_on@F3058 0070                         __ptext2 2940  
                       __ptext3 29B4                         __ptext4 2A8A                         __ptext5 274A  
                       __ptext6 252C                         __ptext7 2080                         __ptext8 2378  
                       __ptext9 2644                       _T0CONbits 0FD5                         _led_off 2940  
                       _led_int 29B4                       _T1CONbits 0FCD                       _T2CONbits 0FCA  
                    ??___xxtofl 0008                       _T3CONbits 0FB1       _eusart_slave_callback_ptr 00B9  
       convert_int_to_str@F3236 0080                  __pintcode_body 18F0            end_of_initialization 28C2  
                led_off@led_cfg 000D                         int_func 18F0                  led_off@pin_cfg 0010  
                    fp__Default 0000                       _RCSTAbits 0FAB                  led_int@led_cfg 000F  
                       postdec1 0FE5                         postdec2 0FDD                         postinc0 0FEE  
                       postinc2 0FDE                  led_int@pin_cfg 0012                       _PORTBbits 0F81  
                   ___fladd@grs 0053                   ___xxtofl@sign 000C                       _TRISCbits 0F94  
     convert_short_to_str@F3230 008B                     ___fldiv@grs 003E                     ___fldiv@rem 0037  
                   ___flmul@grs 001F                     _CCP1CONbits 0FBD                     _CCP2CONbits 0FBA  
                     _TXSTAbits 0FAC               relay_toggel@F3068 006E                    _KEYPAD_SHAPE 0100  
      ??_gpio_pin_direction_int 0006                     _BAUDCONbits 0FB8                   __pidataCOMRAM 2C00  
                _timer0_preload 0062                  __end_of_led_on 2940                  _timer1_preload 0060  
                _timer2_preload 006D     _eusart_overerr_callback_ptr 00BF             start_initialization 284A  
                _timer3_preload 005E     _RB6_HIGH_interrupt_Handeler 00A1                    _gpio_pin_int 2A8A  
                     _Port_Regs 00D9                        ??_led_on 000F                     __pdataBANK0 00C5  
                   __pdataBANK1 0100                        ?_ADC_ISR 0001           __end_of_EUSART_RX_ISR 2C28  
         __end_of_EUSART_TX_ISR 2C1A         ?_InterruptManagmentHigh 0001                       _Tris_Regs 00C5  
                     ___fladd@a 0048                       ___fladd@b 0044                       ___fldiv@a 002F  
                     ___fldiv@b 002B                        ?_RB4_ISR 0001                        ?_RB5_ISR 0001  
                      ?_RB6_ISR 0001                        ?_RB7_ISR 0001                       ___flmul@a 0016  
                     ___flmul@b 0012                     __pbssCOMRAM 005E                   __pcstackBANK0 00F1  
                      ?_Default 0001      _RB4_LOW_interrupt_Handeler 00AB                        ?_i2c_int 00F1  
    _RB7_LOW_interrupt_Handeler 009F       gpio_pin_write_level@level 0006                       __pintcode 0008  
                      ?___fladd 0044                        ?___fldiv 002B                        ?___flmul 0012  
                      ?___fltol 0054  __end_of_InterruptManagmentHigh 1CE6    _write_collision_callback_ptr 00B3  
                      ?_led_off 000D                        ?_led_int 000F                     __smallconst 1000  
       _Int0_interrupt_Handeler 00B1                        _CCP1_ISR 2C1E                        _CCP2_ISR 2C1A  
                 ??_MSSP_BC_ISR 0001                        _INT0_ISR 2C12                        _INT1_ISR 2C0E  
                      _INT2_ISR 2C0A                        _PIE1bits 0F9D                        _PIE2bits 0FA0  
                      i2u152_40 2B16                        i2u152_41 2B12                        i2u153_48 2B1C  
                      i2u153_49 2B2E                        _PIR1bits 0F9E                        _PIR2bits 0FA1  
                      i2u700_40 1B0E                        i2u700_41 1B0A                        i2u701_40 1B1C  
                      i2u701_41 1B18                        i2u710_40 1BB6                        i2u702_40 1B2C  
                      i2u710_41 1BB2                        i2u702_41 1B28                        i2u711_40 1BC8  
                      i2u703_40 1B44                        i2u711_41 1BC4                        i2u703_41 1B40  
                      i2u720_40 1C56                        i2u712_40 1BD6                        i2u704_40 1B52  
                      i2u720_41 1C52                        i2u712_41 1BD2                        i2u704_41 1B4E  
                      i2u721_40 1C68                        i2u713_40 1BE8                        i2u705_40 1B60  
                      i2u721_41 1C64                        i2u713_41 1BE4                        i2u705_41 1B5C  
                      i2u722_40 1C76                        i2u714_40 1BF6                        i2u706_40 1B70  
                      i2u722_41 1C72                        i2u714_41 1BF2                        i2u706_41 1B6C  
                      i2u723_40 1C88                        i2u715_40 1C08                        i2u707_40 1B88  
                      i2u723_41 1C84                        i2u715_41 1C04                        i2u707_41 1B84  
                      i2u556_40 2BBE                        i2u724_40 1C96                        i2u716_40 1C16  
                      i2u708_40 1B96                        i2u556_41 2BBA                        i2u724_41 1C92  
                      i2u716_41 1C12                        i2u708_41 1B92                        i2u557_40 2BA4  
                      i2u725_40 1CA8                        i2u717_40 1C28                        i2u709_40 1BA8  
                      i2u557_41 2BA0                        i2u725_41 1CA4                        i2u717_41 1C24  
                      i2u709_41 1BA4                        i2u558_40 2B8A                        i2u726_40 1CB6  
                      i2u718_40 1C36                        i2u670_40 1916                        i2u558_41 2B86  
                      i2u726_41 1CB2                        i2u718_41 1C32                        i2u670_41 1912  
                      i2u559_40 2B70                        i2u727_40 1CC8                        i2u719_40 1C48  
                      i2u671_40 1928                        i2u559_41 2B6C                        i2u727_41 1CC4  
                      i2u719_41 1C44                        i2u671_41 1924                        i2u728_40 1CD6  
                      i2u680_40 19BA                        i2u672_40 1936                        i2u728_41 1CD2  
                      i2u680_41 19B6                        i2u672_41 1932                        i2u681_40 19C8  
                      i2u673_40 1948                        i2u681_41 19C4                        i2u673_41 1944  
                      i2u690_40 1A60                        i2u682_40 19D8                        i2u674_40 1956  
                      i2u690_41 1A5C                        i2u682_41 19D4                        i2u674_41 1952  
                      i2u691_40 1A78                        i2u683_40 19F0                        i2u675_40 1968  
                      i2u691_41 1A74                        i2u683_41 19EC                        i2u675_41 1964  
                      i2u692_40 1A86                        i2u684_40 19FE                        i2u676_40 1976  
                      i2u692_41 1A82                        i2u684_41 19FA                        i2u676_41 1972  
                      i2u693_40 1A94                        i2u685_40 1A0C                        i2u677_40 1984  
                      i2u669_40 1908                        i2u693_41 1A90                        i2u685_41 1A08  
                      i2u677_41 1980                        i2u669_41 1904                        i2u694_40 1AA4  
                      i2u686_40 1A1C                        i2u678_40 1994                        i2u694_41 1AA0  
                      i2u686_41 1A18                        i2u678_41 1990                        i2u695_40 1ABC  
                      i2u687_40 1A34                        i2u679_40 19AC                        i2u695_41 1AB8  
                      i2u687_41 1A30                        i2u679_41 19A8                        i2u696_40 1ACA  
                      i2u688_40 1A42                        i2u696_41 1AC6                        i2u688_41 1A3E  
                      i2u697_40 1AD8                        i2u689_40 1A50                        i2u697_41 1AD4  
                      i2u689_41 1A4C                        i2u698_40 1AE8                        i2u698_41 1AE4  
                      i2u699_40 1B00                        i2u699_41 1AFC                        _MSSP_ISR 2B02  
               _slave1_data_rec 006C                      _ADCON0bits 0FC2                      _ADCON1bits 0FC1  
                    _ADCON2bits 0FC0          _gpio_pin_direction_int 252C                     _INTCON2bits 0FF1  
                   _INTCON3bits 0FF0                       copy_data0 285E                       copy_data1 287E  
                     copy_data2 289E                        _Lat_Regs 00CF                      _EECON1bits 0FA6  
                      __Hrparam 0000                        __Lrparam 0000             __end_of_MSSP_BC_ISR 2C0A  
                      ___xxtofl 2378     gpio_pin_write_level@pin_cfg 0004                        __ptext10 14C6  
                      __ptext11 1CE6                        __ptext20 2B90                        __ptext12 1006  
                      __ptext21 2BAA                        __ptext30 2C1A                        __ptext22 2B02  
                      __ptext14 2BD4                        __ptext31 2C1E                        __ptext23 2AC6  
                      __ptext15 2BF8                        __ptext32 2C22                        __ptext24 2C06  
                      __ptext16 2BE0                        __ptext33 0000                        __ptext25 2C0A  
                      __ptext17 2BEC                        __ptext26 2C0E                        __ptext18 2B5C  
                      __ptext27 2C12                        __ptext19 2B76                        __ptext28 2C16  
                      __ptext29 2C26           _ADC_Interrupt_handler 006A                  relay_off@F3063 006F  
                relay_int@F3053 0071                        isa$xinst 0000                        int$flags 007B  
        _eusart_rx_callback_ptr 00BB                      _INTCONbits 0FF2               _ccp1_callback_ptr 0068  
  __end_of_gpio_pin_write_level 284A     _RB4_HIGH_interrupt_Handeler 00A9                        intlevel2 0000  
                   _MSSP_BC_ISR 2C06     _RB7_HIGH_interrupt_Handeler 009D             _timer0_callback_ptr 009B  
 gpio_pin_direction_int@pin_cfg 0004                      _TIMER0_ISR 2BEC                      _TIMER1_ISR 2BE0  
                    _TIMER2_ISR 2BF8                      _TIMER3_ISR 2BD4                _i2c_callback_ptr 0064  
      convert_byte_to_str@F3224 0091                     _SSPCON1bits 0FC6                     _SSPCON2bits 0FC5  
                 ___fladd@signs 0050                    ___fladd@aexp 0051                    ___fladd@bexp 0052  
    _RB6_LOW_interrupt_Handeler 00A3  
